
sonar-int.elf:     file format elf32-littlearm


Disassembly of section .text:

00008000 <_start>:
    8000:	e3a0d302 	mov	sp, #134217728	; 0x8000000
    8004:	e3a0b000 	mov	fp, #0
    8008:	eb000112 	bl	8458 <_cstart>
    800c:	eb0002bf 	bl	8b10 <rpi_reboot>

00008010 <timeout_read>:
    8010:	e92d40f8 	push	{r3, r4, r5, r6, r7, lr}
    8014:	e1a05000 	mov	r5, r0
    8018:	e1a04001 	mov	r4, r1
    801c:	e1a07002 	mov	r7, r2
    8020:	eb0002df 	bl	8ba4 <timer_get_time>
    8024:	e1a06000 	mov	r6, r0
    8028:	e1a00005 	mov	r0, r5
    802c:	eb000347 	bl	8d50 <gpio_read>
    8030:	e1500004 	cmp	r0, r4
    8034:	1a000004 	bne	804c <timeout_read+0x3c>
    8038:	eb0002d9 	bl	8ba4 <timer_get_time>
    803c:	e0660000 	rsb	r0, r6, r0
    8040:	e1500007 	cmp	r0, r7
    8044:	9afffff7 	bls	8028 <timeout_read+0x18>
    8048:	ea000001 	b	8054 <timeout_read+0x44>
    804c:	e3a00001 	mov	r0, #1
    8050:	e8bd80f8 	pop	{r3, r4, r5, r6, r7, pc}
    8054:	e3a00000 	mov	r0, #0
    8058:	e8bd80f8 	pop	{r3, r4, r5, r6, r7, pc}

0000805c <int_handler>:
    805c:	e92d4008 	push	{r3, lr}
    8060:	eb000110 	bl	84a8 <RPI_GetIRQController>
    8064:	e5903000 	ldr	r3, [r0]
    8068:	e3130001 	tst	r3, #1
    806c:	08bd8008 	popeq	{r3, pc}
    8070:	e59f3054 	ldr	r3, [pc, #84]	; 80cc <int_handler+0x70>
    8074:	e5932028 	ldr	r2, [r3, #40]	; 0x28
    8078:	e59f1050 	ldr	r1, [pc, #80]	; 80d0 <int_handler+0x74>
    807c:	e0810291 	umull	r0, r1, r1, r2
    8080:	e1a011a1 	lsr	r1, r1, #3
    8084:	e0811101 	add	r1, r1, r1, lsl #2
    8088:	e0422081 	sub	r2, r2, r1, lsl #1
    808c:	e7933102 	ldr	r3, [r3, r2, lsl #2]
    8090:	e3530000 	cmp	r3, #0
    8094:	0a000002 	beq	80a4 <int_handler+0x48>
    8098:	e3a00014 	mov	r0, #20
    809c:	eb000340 	bl	8da4 <gpio_set_on>
    80a0:	ea000001 	b	80ac <int_handler+0x50>
    80a4:	e3a00014 	mov	r0, #20
    80a8:	eb000339 	bl	8d94 <gpio_set_off>
    80ac:	e59f3018 	ldr	r3, [pc, #24]	; 80cc <int_handler+0x70>
    80b0:	e5932028 	ldr	r2, [r3, #40]	; 0x28
    80b4:	e2822001 	add	r2, r2, #1
    80b8:	e5832028 	str	r2, [r3, #40]	; 0x28
    80bc:	eb000102 	bl	84cc <RPI_GetArmTimer>
    80c0:	e3a03001 	mov	r3, #1
    80c4:	e580300c 	str	r3, [r0, #12]
    80c8:	e8bd8008 	pop	{r3, pc}
    80cc:	000094ec 	andeq	r9, r0, ip, ror #9
    80d0:	cccccccd 	stclgt	12, cr12, [ip], {205}	; 0xcd

000080d4 <notmain>:
    80d4:	e92d4ff8 	push	{r3, r4, r5, r6, r7, r8, r9, sl, fp, lr}
    80d8:	eb0003d9 	bl	9044 <uart_init>
    80dc:	eb00006e 	bl	829c <install_int_handlers>
    80e0:	e3a00004 	mov	r0, #4
    80e4:	eb0000ff 	bl	84e8 <timer_interrupt_init>
    80e8:	e3a00014 	mov	r0, #20
    80ec:	eb000300 	bl	8cf4 <gpio_set_output>
    80f0:	e3a0001a 	mov	r0, #26
    80f4:	eb0002fe 	bl	8cf4 <gpio_set_output>
    80f8:	e3a00013 	mov	r0, #19
    80fc:	eb0002f8 	bl	8ce4 <gpio_set_input>
    8100:	e3a00013 	mov	r0, #19
    8104:	eb00034d 	bl	8e40 <gpio_set_pullup>
    8108:	eb000036 	bl	81e8 <system_enable_interrupts>
    810c:	e3a0801a 	mov	r8, #26
    8110:	e59f70bc 	ldr	r7, [pc, #188]	; 81d4 <notmain+0x100>
    8114:	e59fb0bc 	ldr	fp, [pc, #188]	; 81d8 <notmain+0x104>
    8118:	e59fa0bc 	ldr	sl, [pc, #188]	; 81dc <notmain+0x108>
    811c:	e59f90bc 	ldr	r9, [pc, #188]	; 81e0 <notmain+0x10c>
    8120:	e1a00008 	mov	r0, r8
    8124:	eb00031e 	bl	8da4 <gpio_set_on>
    8128:	e3a0000a 	mov	r0, #10
    812c:	eb0002a1 	bl	8bb8 <delay_us>
    8130:	e1a00008 	mov	r0, r8
    8134:	eb000316 	bl	8d94 <gpio_set_off>
    8138:	e3a04013 	mov	r4, #19
    813c:	e1a00004 	mov	r0, r4
    8140:	eb000302 	bl	8d50 <gpio_read>
    8144:	e3500000 	cmp	r0, #0
    8148:	0afffffb 	beq	813c <notmain+0x68>
    814c:	eb000294 	bl	8ba4 <timer_get_time>
    8150:	e1a05000 	mov	r5, r0
    8154:	e3a06013 	mov	r6, #19
    8158:	eb000291 	bl	8ba4 <timer_get_time>
    815c:	e1a04000 	mov	r4, r0
    8160:	e1a00006 	mov	r0, r6
    8164:	eb0002f9 	bl	8d50 <gpio_read>
    8168:	e3500000 	cmp	r0, #0
    816c:	1a00000d 	bne	81a8 <notmain+0xd4>
    8170:	e0654004 	rsb	r4, r5, r4
    8174:	e3a03ffa 	mov	r3, #1000	; 0x3e8
    8178:	e0040493 	mul	r4, r3, r4
    817c:	e1a04124 	lsr	r4, r4, #2
    8180:	e084349b 	umull	r3, r4, fp, r4
    8184:	e1a04124 	lsr	r4, r4, #2
    8188:	e084349a 	umull	r3, r4, sl, r4
    818c:	e1a04324 	lsr	r4, r4, #6
    8190:	e354000a 	cmp	r4, #10
    8194:	23a0400a 	movcs	r4, #10
    8198:	e59f0044 	ldr	r0, [pc, #68]	; 81e4 <notmain+0x110>
    819c:	e1a01004 	mov	r1, r4
    81a0:	eb0000ea 	bl	8550 <printk>
    81a4:	ea000003 	b	81b8 <notmain+0xe4>
    81a8:	e0654004 	rsb	r4, r5, r4
    81ac:	e1540007 	cmp	r4, r7
    81b0:	9affffe8 	bls	8158 <notmain+0x84>
    81b4:	e3a04001 	mov	r4, #1
    81b8:	e1a00009 	mov	r0, r9
    81bc:	e264100a 	rsb	r1, r4, #10
    81c0:	e3a0200a 	mov	r2, #10
    81c4:	eb000325 	bl	8e60 <pwm_compute>
    81c8:	e3a00064 	mov	r0, #100	; 0x64
    81cc:	eb000282 	bl	8bdc <delay_ms>
    81d0:	eaffffd2 	b	8120 <notmain+0x4c>
    81d4:	00009470 	andeq	r9, r0, r0, ror r4
    81d8:	1bacf915 	blne	feb46634 <__bss_end__+0xfeb3cd1c>
    81dc:	10624dd3 	ldrdne	r4, [r2], #-211	; 0xffffff2d	; <UNPREDICTABLE>
    81e0:	000094ec 	andeq	r9, r0, ip, ror #9
    81e4:	0000917c 	andeq	r9, r0, ip, ror r1

000081e8 <system_enable_interrupts>:
    81e8:	e10f0000 	mrs	r0, CPSR
    81ec:	e3c00080 	bic	r0, r0, #128	; 0x80
    81f0:	e121f000 	msr	CPSR_c, r0
    81f4:	e12fff1e 	bx	lr

000081f8 <system_disable_interrupts>:
    81f8:	e10f0000 	mrs	r0, CPSR
    81fc:	e3800080 	orr	r0, r0, #128	; 0x80
    8200:	e121f000 	msr	CPSR_c, r0
    8204:	e12fff1e 	bx	lr

00008208 <_interrupt_table>:
    8208:	e59ff030 	ldr	pc, [pc, #48]	; 8240 <_reset_asm>
    820c:	e59ff030 	ldr	pc, [pc, #48]	; 8244 <_undefined_instruction_asm>
    8210:	e59ff030 	ldr	pc, [pc, #48]	; 8248 <_software_interrupt_asm>
    8214:	e59ff030 	ldr	pc, [pc, #48]	; 824c <_prefetch_abort_asm>
    8218:	e59ff030 	ldr	pc, [pc, #48]	; 8250 <_data_abort_asm>
    821c:	e59ff01c 	ldr	pc, [pc, #28]	; 8240 <_reset_asm>
    8220:	e59ff02c 	ldr	pc, [pc, #44]	; 8254 <_interrupt_asm>

00008224 <fast_interrupt_asm>:
    8224:	e24ee004 	sub	lr, lr, #4
    8228:	e52de004 	push	{lr}		; (str lr, [sp, #-4]!)
    822c:	e92d1fff 	push	{r0, r1, r2, r3, r4, r5, r6, r7, r8, r9, sl, fp, ip}
    8230:	e1a0000e 	mov	r0, lr
    8234:	eb00002d 	bl	82f0 <fast_interrupt_vector>
    8238:	e8bd1fff 	pop	{r0, r1, r2, r3, r4, r5, r6, r7, r8, r9, sl, fp, ip}
    823c:	e8fd8000 	ldm	sp!, {pc}^

00008240 <_reset_asm>:
    8240:	00008274 	andeq	r8, r0, r4, ror r2

00008244 <_undefined_instruction_asm>:
    8244:	0000827c 	andeq	r8, r0, ip, ror r2

00008248 <_software_interrupt_asm>:
    8248:	00008284 	andeq	r8, r0, r4, lsl #5

0000824c <_prefetch_abort_asm>:
    824c:	0000828c 	andeq	r8, r0, ip, lsl #5

00008250 <_data_abort_asm>:
    8250:	00008294 	muleq	r0, r4, r2

00008254 <_interrupt_asm>:
    8254:	00008258 	andeq	r8, r0, r8, asr r2

00008258 <_interrupt_table_end>:
    8258:	e3a0d409 	mov	sp, #150994944	; 0x9000000
    825c:	e24ee004 	sub	lr, lr, #4
    8260:	e92d5fff 	push	{r0, r1, r2, r3, r4, r5, r6, r7, r8, r9, sl, fp, ip, lr}
    8264:	e1a0000e 	mov	r0, lr
    8268:	eb00001d 	bl	82e4 <interrupt_vector>
    826c:	e8bd5fff 	pop	{r0, r1, r2, r3, r4, r5, r6, r7, r8, r9, sl, fp, ip, lr}
    8270:	e1b0f00e 	movs	pc, lr

00008274 <reset_asm>:
    8274:	e24ee004 	sub	lr, lr, #4
    8278:	eb00003a 	bl	8368 <reset_vector>

0000827c <undefined_instruction_asm>:
    827c:	e24ee004 	sub	lr, lr, #4
    8280:	eb000047 	bl	83a4 <undefined_instruction_vector>

00008284 <software_interrupt_asm>:
    8284:	e24ee004 	sub	lr, lr, #4
    8288:	eb000027 	bl	832c <software_interrupt_vector>

0000828c <prefetch_abort_asm>:
    828c:	e24ee004 	sub	lr, lr, #4
    8290:	eb000052 	bl	83e0 <prefetch_abort_vector>

00008294 <data_abort_asm>:
    8294:	e24ee004 	sub	lr, lr, #4
    8298:	eb00005f 	bl	841c <data_abort_vector>

0000829c <install_int_handlers>:
    829c:	e59f3038 	ldr	r3, [pc, #56]	; 82dc <install_int_handlers+0x40>
    82a0:	e59f0038 	ldr	r0, [pc, #56]	; 82e0 <install_int_handlers+0x44>
    82a4:	e0630000 	rsb	r0, r3, r0
    82a8:	e1b00140 	asrs	r0, r0, #2
    82ac:	012fff1e 	bxeq	lr
    82b0:	e3a02000 	mov	r2, #0
    82b4:	e1a03002 	mov	r3, r2
    82b8:	e59fc01c 	ldr	ip, [pc, #28]	; 82dc <install_int_handlers+0x40>
    82bc:	e1a01102 	lsl	r1, r2, #2
    82c0:	e79c2102 	ldr	r2, [ip, r2, lsl #2]
    82c4:	e5812000 	str	r2, [r1]
    82c8:	e2833001 	add	r3, r3, #1
    82cc:	e1a02003 	mov	r2, r3
    82d0:	e1530000 	cmp	r3, r0
    82d4:	1afffff8 	bne	82bc <install_int_handlers+0x20>
    82d8:	e12fff1e 	bx	lr
    82dc:	00008208 	andeq	r8, r0, r8, lsl #4
    82e0:	00008258 	andeq	r8, r0, r8, asr r2

000082e4 <interrupt_vector>:
    82e4:	e92d4008 	push	{r3, lr}
    82e8:	ebffff5b 	bl	805c <int_handler>
    82ec:	e8bd8008 	pop	{r3, pc}

000082f0 <fast_interrupt_vector>:
    82f0:	e52de004 	push	{lr}		; (str lr, [sp, #-4]!)
    82f4:	e24dd00c 	sub	sp, sp, #12
    82f8:	e59f301c 	ldr	r3, [pc, #28]	; 831c <fast_interrupt_vector+0x2c>
    82fc:	e58d3000 	str	r3, [sp]
    8300:	e58d0004 	str	r0, [sp, #4]
    8304:	e59f0014 	ldr	r0, [pc, #20]	; 8320 <fast_interrupt_vector+0x30>
    8308:	e59f1014 	ldr	r1, [pc, #20]	; 8324 <fast_interrupt_vector+0x34>
    830c:	e59f2014 	ldr	r2, [pc, #20]	; 8328 <fast_interrupt_vector+0x38>
    8310:	e3a0301e 	mov	r3, #30
    8314:	eb00008d 	bl	8550 <printk>
    8318:	eb0001fc 	bl	8b10 <rpi_reboot>
    831c:	00009264 	andeq	r9, r0, r4, ror #4
    8320:	00009218 	andeq	r9, r0, r8, lsl r2
    8324:	00009254 	andeq	r9, r0, r4, asr r2
    8328:	00009188 	andeq	r9, r0, r8, lsl #3

0000832c <software_interrupt_vector>:
    832c:	e52de004 	push	{lr}		; (str lr, [sp, #-4]!)
    8330:	e24dd00c 	sub	sp, sp, #12
    8334:	e59f301c 	ldr	r3, [pc, #28]	; 8358 <software_interrupt_vector+0x2c>
    8338:	e58d3000 	str	r3, [sp]
    833c:	e58d0004 	str	r0, [sp, #4]
    8340:	e59f0014 	ldr	r0, [pc, #20]	; 835c <software_interrupt_vector+0x30>
    8344:	e59f1014 	ldr	r1, [pc, #20]	; 8360 <software_interrupt_vector+0x34>
    8348:	e59f2014 	ldr	r2, [pc, #20]	; 8364 <software_interrupt_vector+0x38>
    834c:	e3a03021 	mov	r3, #33	; 0x21
    8350:	eb00007e 	bl	8550 <printk>
    8354:	eb0001ed 	bl	8b10 <rpi_reboot>
    8358:	0000926c 	andeq	r9, r0, ip, ror #4
    835c:	00009218 	andeq	r9, r0, r8, lsl r2
    8360:	00009254 	andeq	r9, r0, r4, asr r2
    8364:	000091a0 	andeq	r9, r0, r0, lsr #3

00008368 <reset_vector>:
    8368:	e52de004 	push	{lr}		; (str lr, [sp, #-4]!)
    836c:	e24dd00c 	sub	sp, sp, #12
    8370:	e59f301c 	ldr	r3, [pc, #28]	; 8394 <reset_vector+0x2c>
    8374:	e58d3000 	str	r3, [sp]
    8378:	e58d0004 	str	r0, [sp, #4]
    837c:	e59f0014 	ldr	r0, [pc, #20]	; 8398 <reset_vector+0x30>
    8380:	e59f1014 	ldr	r1, [pc, #20]	; 839c <reset_vector+0x34>
    8384:	e59f2014 	ldr	r2, [pc, #20]	; 83a0 <reset_vector+0x38>
    8388:	e3a03024 	mov	r3, #36	; 0x24
    838c:	eb00006f 	bl	8550 <printk>
    8390:	eb0001de 	bl	8b10 <rpi_reboot>
    8394:	0000927c 	andeq	r9, r0, ip, ror r2
    8398:	00009218 	andeq	r9, r0, r8, lsl r2
    839c:	00009254 	andeq	r9, r0, r4, asr r2
    83a0:	000091bc 			; <UNDEFINED> instruction: 0x000091bc

000083a4 <undefined_instruction_vector>:
    83a4:	e52de004 	push	{lr}		; (str lr, [sp, #-4]!)
    83a8:	e24dd00c 	sub	sp, sp, #12
    83ac:	e59f301c 	ldr	r3, [pc, #28]	; 83d0 <undefined_instruction_vector+0x2c>
    83b0:	e58d3000 	str	r3, [sp]
    83b4:	e58d0004 	str	r0, [sp, #4]
    83b8:	e59f0014 	ldr	r0, [pc, #20]	; 83d4 <undefined_instruction_vector+0x30>
    83bc:	e59f1014 	ldr	r1, [pc, #20]	; 83d8 <undefined_instruction_vector+0x34>
    83c0:	e59f2014 	ldr	r2, [pc, #20]	; 83dc <undefined_instruction_vector+0x38>
    83c4:	e3a03027 	mov	r3, #39	; 0x27
    83c8:	eb000060 	bl	8550 <printk>
    83cc:	eb0001cf 	bl	8b10 <rpi_reboot>
    83d0:	0000928c 	andeq	r9, r0, ip, lsl #5
    83d4:	00009218 	andeq	r9, r0, r8, lsl r2
    83d8:	00009254 	andeq	r9, r0, r4, asr r2
    83dc:	000091cc 	andeq	r9, r0, ip, asr #3

000083e0 <prefetch_abort_vector>:
    83e0:	e52de004 	push	{lr}		; (str lr, [sp, #-4]!)
    83e4:	e24dd00c 	sub	sp, sp, #12
    83e8:	e59f301c 	ldr	r3, [pc, #28]	; 840c <prefetch_abort_vector+0x2c>
    83ec:	e58d3000 	str	r3, [sp]
    83f0:	e58d0004 	str	r0, [sp, #4]
    83f4:	e59f0014 	ldr	r0, [pc, #20]	; 8410 <prefetch_abort_vector+0x30>
    83f8:	e59f1014 	ldr	r1, [pc, #20]	; 8414 <prefetch_abort_vector+0x34>
    83fc:	e59f2014 	ldr	r2, [pc, #20]	; 8418 <prefetch_abort_vector+0x38>
    8400:	e3a0302a 	mov	r3, #42	; 0x2a
    8404:	eb000051 	bl	8550 <printk>
    8408:	eb0001c0 	bl	8b10 <rpi_reboot>
    840c:	000092a4 	andeq	r9, r0, r4, lsr #5
    8410:	00009218 	andeq	r9, r0, r8, lsl r2
    8414:	00009254 	andeq	r9, r0, r4, asr r2
    8418:	000091ec 	andeq	r9, r0, ip, ror #3

0000841c <data_abort_vector>:
    841c:	e52de004 	push	{lr}		; (str lr, [sp, #-4]!)
    8420:	e24dd00c 	sub	sp, sp, #12
    8424:	e59f301c 	ldr	r3, [pc, #28]	; 8448 <data_abort_vector+0x2c>
    8428:	e58d3000 	str	r3, [sp]
    842c:	e58d0004 	str	r0, [sp, #4]
    8430:	e59f0014 	ldr	r0, [pc, #20]	; 844c <data_abort_vector+0x30>
    8434:	e59f1014 	ldr	r1, [pc, #20]	; 8450 <data_abort_vector+0x34>
    8438:	e59f2014 	ldr	r2, [pc, #20]	; 8454 <data_abort_vector+0x38>
    843c:	e3a0302d 	mov	r3, #45	; 0x2d
    8440:	eb000042 	bl	8550 <printk>
    8444:	eb0001b1 	bl	8b10 <rpi_reboot>
    8448:	000092b4 			; <UNDEFINED> instruction: 0x000092b4
    844c:	00009218 	andeq	r9, r0, r8, lsl r2
    8450:	00009254 	andeq	r9, r0, r4, asr r2
    8454:	00009204 	andeq	r9, r0, r4, lsl #4

00008458 <_cstart>:
    8458:	e92d4008 	push	{r3, lr}
    845c:	e59f3038 	ldr	r3, [pc, #56]	; 849c <_cstart+0x44>
    8460:	e59f2038 	ldr	r2, [pc, #56]	; 84a0 <_cstart+0x48>
    8464:	e1520003 	cmp	r2, r3
    8468:	2a000009 	bcs	8494 <_cstart+0x3c>
    846c:	e2423004 	sub	r3, r2, #4
    8470:	e59f102c 	ldr	r1, [pc, #44]	; 84a4 <_cstart+0x4c>
    8474:	e0631001 	rsb	r1, r3, r1
    8478:	e3c11003 	bic	r1, r1, #3
    847c:	e2832004 	add	r2, r3, #4
    8480:	e0811002 	add	r1, r1, r2
    8484:	e3a02000 	mov	r2, #0
    8488:	e5a32004 	str	r2, [r3, #4]!
    848c:	e1530001 	cmp	r3, r1
    8490:	1afffffc 	bne	8488 <_cstart+0x30>
    8494:	ebffff0e 	bl	80d4 <notmain>
    8498:	e8bd8008 	pop	{r3, pc}
    849c:	00009918 	andeq	r9, r0, r8, lsl r9
    84a0:	000094ec 	andeq	r9, r0, ip, ror #9
    84a4:	00009913 	andeq	r9, r0, r3, lsl r9

000084a8 <RPI_GetIRQController>:
    84a8:	e92d4008 	push	{r3, lr}
    84ac:	eb0001d5 	bl	8c08 <dmb>
    84b0:	eb0001d6 	bl	8c10 <dsb>
    84b4:	e59f3004 	ldr	r3, [pc, #4]	; 84c0 <RPI_GetIRQController+0x18>
    84b8:	e5930000 	ldr	r0, [r3]
    84bc:	e8bd8008 	pop	{r3, pc}
    84c0:	00009168 	andeq	r9, r0, r8, ror #2

000084c4 <rpi_extract_basic_int>:
    84c4:	e6ef0070 	uxtb	r0, r0
    84c8:	e12fff1e 	bx	lr

000084cc <RPI_GetArmTimer>:
    84cc:	e92d4008 	push	{r3, lr}
    84d0:	eb0001cc 	bl	8c08 <dmb>
    84d4:	eb0001cd 	bl	8c10 <dsb>
    84d8:	e59f3004 	ldr	r3, [pc, #4]	; 84e4 <RPI_GetArmTimer+0x18>
    84dc:	e5930004 	ldr	r0, [r3, #4]
    84e0:	e8bd8008 	pop	{r3, pc}
    84e4:	00009168 	andeq	r9, r0, r8, ror #2

000084e8 <timer_interrupt_init>:
    84e8:	e92d4010 	push	{r4, lr}
    84ec:	e1a04000 	mov	r4, r0
    84f0:	e59f003c 	ldr	r0, [pc, #60]	; 8534 <timer_interrupt_init+0x4c>
    84f4:	e3e01000 	mvn	r1, #0
    84f8:	eb0002c0 	bl	9000 <PUT32>
    84fc:	e59f0034 	ldr	r0, [pc, #52]	; 8538 <timer_interrupt_init+0x50>
    8500:	e3e01000 	mvn	r1, #0
    8504:	eb0002bd 	bl	9000 <PUT32>
    8508:	eb0001be 	bl	8c08 <dmb>
    850c:	eb0001bf 	bl	8c10 <dsb>
    8510:	ebffffe4 	bl	84a8 <RPI_GetIRQController>
    8514:	e3a03001 	mov	r3, #1
    8518:	e5803018 	str	r3, [r0, #24]
    851c:	ebffffea 	bl	84cc <RPI_GetArmTimer>
    8520:	e5804000 	str	r4, [r0]
    8524:	ebffffe8 	bl	84cc <RPI_GetArmTimer>
    8528:	e3a030a2 	mov	r3, #162	; 0xa2
    852c:	e5803008 	str	r3, [r0, #8]
    8530:	e8bd8010 	pop	{r4, pc}
    8534:	2000b21c 	andcs	fp, r0, ip, lsl r2
    8538:	2000b220 	andcs	fp, r0, r0, lsr #4

0000853c <rpi_putchar>:
    853c:	e92d4010 	push	{r4, lr}
    8540:	e1a04000 	mov	r4, r0
    8544:	eb0002fa 	bl	9134 <uart_putc>
    8548:	e1a00004 	mov	r0, r4
    854c:	e8bd8010 	pop	{r4, pc}

00008550 <printk>:
    8550:	e92d000f 	push	{r0, r1, r2, r3}
    8554:	e92d4030 	push	{r4, r5, lr}
    8558:	e24dd00c 	sub	sp, sp, #12
    855c:	e28d301c 	add	r3, sp, #28
    8560:	e58d3004 	str	r3, [sp, #4]
    8564:	e59f4040 	ldr	r4, [pc, #64]	; 85ac <printk+0x5c>
    8568:	e1a00004 	mov	r0, r4
    856c:	e3a01b01 	mov	r1, #1024	; 0x400
    8570:	e59d2018 	ldr	r2, [sp, #24]
    8574:	eb00008c 	bl	87ac <va_printk>
    8578:	e1a05000 	mov	r5, r0
    857c:	e5d40000 	ldrb	r0, [r4]
    8580:	e3500000 	cmp	r0, #0
    8584:	0a000003 	beq	8598 <printk+0x48>
    8588:	eb0002e9 	bl	9134 <uart_putc>
    858c:	e5f40001 	ldrb	r0, [r4, #1]!
    8590:	e3500000 	cmp	r0, #0
    8594:	1afffffb 	bne	8588 <printk+0x38>
    8598:	e1a00005 	mov	r0, r5
    859c:	e28dd00c 	add	sp, sp, #12
    85a0:	e8bd4030 	pop	{r4, r5, lr}
    85a4:	e28dd010 	add	sp, sp, #16
    85a8:	e12fff1e 	bx	lr
    85ac:	00009518 	andeq	r9, r0, r8, lsl r5

000085b0 <emit>:
    85b0:	e92d43f0 	push	{r4, r5, r6, r7, r8, r9, lr}
    85b4:	e24dd044 	sub	sp, sp, #68	; 0x44
    85b8:	e59d5060 	ldr	r5, [sp, #96]	; 0x60
    85bc:	e1550002 	cmp	r5, r2
    85c0:	c2425001 	subgt	r5, r2, #1
    85c4:	e1a0c003 	mov	ip, r3
    85c8:	e2400002 	sub	r0, r0, #2
    85cc:	e350000e 	cmp	r0, #14
    85d0:	979ff100 	ldrls	pc, [pc, r0, lsl #2]
    85d4:	ea00003f 	b	86d8 <emit+0x128>
    85d8:	000086b0 			; <UNDEFINED> instruction: 0x000086b0
    85dc:	000086d8 	ldrdeq	r8, [r0], -r8	; <UNPREDICTABLE>
    85e0:	000086d8 	ldrdeq	r8, [r0], -r8	; <UNPREDICTABLE>
    85e4:	000086d8 	ldrdeq	r8, [r0], -r8	; <UNPREDICTABLE>
    85e8:	000086d8 	ldrdeq	r8, [r0], -r8	; <UNPREDICTABLE>
    85ec:	000086d8 	ldrdeq	r8, [r0], -r8	; <UNPREDICTABLE>
    85f0:	000086a4 	andeq	r8, r0, r4, lsr #13
    85f4:	000086d8 	ldrdeq	r8, [r0], -r8	; <UNPREDICTABLE>
    85f8:	00008614 	andeq	r8, r0, r4, lsl r6
    85fc:	000086d8 	ldrdeq	r8, [r0], -r8	; <UNPREDICTABLE>
    8600:	000086d8 	ldrdeq	r8, [r0], -r8	; <UNPREDICTABLE>
    8604:	000086d8 	ldrdeq	r8, [r0], -r8	; <UNPREDICTABLE>
    8608:	000086d8 	ldrdeq	r8, [r0], -r8	; <UNPREDICTABLE>
    860c:	000086d8 	ldrdeq	r8, [r0], -r8	; <UNPREDICTABLE>
    8610:	0000867c 	andeq	r8, r0, ip, ror r6
    8614:	e59d0064 	ldr	r0, [sp, #100]	; 0x64
    8618:	e2900000 	adds	r0, r0, #0
    861c:	13a00001 	movne	r0, #1
    8620:	e0100fa3 	ands	r0, r0, r3, lsr #31
    8624:	1263c000 	rsbne	ip, r3, #0
    8628:	13a09001 	movne	r9, #1
    862c:	03a09000 	moveq	r9, #0
    8630:	e1a0000d 	mov	r0, sp
    8634:	e59f8154 	ldr	r8, [pc, #340]	; 8790 <emit+0x1e0>
    8638:	e59f7154 	ldr	r7, [pc, #340]	; 8794 <emit+0x1e4>
    863c:	e1a03000 	mov	r3, r0
    8640:	e0846c97 	umull	r6, r4, r7, ip
    8644:	e1a041a4 	lsr	r4, r4, #3
    8648:	e0846104 	add	r6, r4, r4, lsl #2
    864c:	e04cc086 	sub	ip, ip, r6, lsl #1
    8650:	e7d8c00c 	ldrb	ip, [r8, ip]
    8654:	e4c3c001 	strb	ip, [r3], #1
    8658:	e1a0c004 	mov	ip, r4
    865c:	e3540000 	cmp	r4, #0
    8660:	11a00003 	movne	r0, r3
    8664:	1afffff4 	bne	863c <emit+0x8c>
    8668:	e3590000 	cmp	r9, #0
    866c:	12803002 	addne	r3, r0, #2
    8670:	13a0c02d 	movne	ip, #45	; 0x2d
    8674:	15c0c001 	strbne	ip, [r0, #1]
    8678:	ea00001c 	b	86f0 <emit+0x140>
    867c:	e28d4001 	add	r4, sp, #1
    8680:	e59f6110 	ldr	r6, [pc, #272]	; 8798 <emit+0x1e8>
    8684:	e1a03004 	mov	r3, r4
    8688:	e20c000f 	and	r0, ip, #15
    868c:	e7d60000 	ldrb	r0, [r6, r0]
    8690:	e5440001 	strb	r0, [r4, #-1]
    8694:	e2844001 	add	r4, r4, #1
    8698:	e1b0c22c 	lsrs	ip, ip, #4
    869c:	1afffff8 	bne	8684 <emit+0xd4>
    86a0:	ea000012 	b	86f0 <emit+0x140>
    86a4:	e5cd3000 	strb	r3, [sp]
    86a8:	e28d3001 	add	r3, sp, #1
    86ac:	ea00000f 	b	86f0 <emit+0x140>
    86b0:	e28d4001 	add	r4, sp, #1
    86b4:	e59f60e0 	ldr	r6, [pc, #224]	; 879c <emit+0x1ec>
    86b8:	e1a03004 	mov	r3, r4
    86bc:	e20c0001 	and	r0, ip, #1
    86c0:	e7d60000 	ldrb	r0, [r6, r0]
    86c4:	e5440001 	strb	r0, [r4, #-1]
    86c8:	e2844001 	add	r4, r4, #1
    86cc:	e1b0c0ac 	lsrs	ip, ip, #1
    86d0:	1afffff8 	bne	86b8 <emit+0x108>
    86d4:	ea000005 	b	86f0 <emit+0x140>
    86d8:	e59f00c0 	ldr	r0, [pc, #192]	; 87a0 <emit+0x1f0>
    86dc:	e59f10c0 	ldr	r1, [pc, #192]	; 87a4 <emit+0x1f4>
    86e0:	e59f20c0 	ldr	r2, [pc, #192]	; 87a8 <emit+0x1f8>
    86e4:	e3a0308d 	mov	r3, #141	; 0x8d
    86e8:	ebffff98 	bl	8550 <printk>
    86ec:	eb000107 	bl	8b10 <rpi_reboot>
    86f0:	e1a0400d 	mov	r4, sp
    86f4:	e064c003 	rsb	ip, r4, r3
    86f8:	e155000c 	cmp	r5, ip
    86fc:	da000006 	ble	871c <emit+0x16c>
    8700:	e06cc005 	rsb	ip, ip, r5
    8704:	e083c00c 	add	ip, r3, ip
    8708:	e3a00020 	mov	r0, #32
    870c:	e4c30001 	strb	r0, [r3], #1
    8710:	e153000c 	cmp	r3, ip
    8714:	1afffffc 	bne	870c <emit+0x15c>
    8718:	ea000000 	b	8720 <emit+0x170>
    871c:	e1a0c003 	mov	ip, r3
    8720:	e3a03000 	mov	r3, #0
    8724:	e5cc3000 	strb	r3, [ip]
    8728:	e064400c 	rsb	r4, r4, ip
    872c:	e2844001 	add	r4, r4, #1
    8730:	e1520004 	cmp	r2, r4
    8734:	b0624004 	rsblt	r4, r2, r4
    8738:	b08d3003 	addlt	r3, sp, r3
    873c:	b0834004 	addlt	r4, r3, r4
    8740:	a1a0400d 	movge	r4, sp
    8744:	e24c3001 	sub	r3, ip, #1
    8748:	e1540003 	cmp	r4, r3
    874c:	8a000009 	bhi	8778 <emit+0x1c8>
    8750:	e1a0000c 	mov	r0, ip
    8754:	e1a0300c 	mov	r3, ip
    8758:	e1a02001 	mov	r2, r1
    875c:	e573c001 	ldrb	ip, [r3, #-1]!
    8760:	e4c2c001 	strb	ip, [r2], #1
    8764:	e1530004 	cmp	r3, r4
    8768:	1afffffb 	bne	875c <emit+0x1ac>
    876c:	e0644000 	rsb	r4, r4, r0
    8770:	e0814004 	add	r4, r1, r4
    8774:	ea000000 	b	877c <emit+0x1cc>
    8778:	e1a04001 	mov	r4, r1
    877c:	e3a03000 	mov	r3, #0
    8780:	e5c43000 	strb	r3, [r4]
    8784:	e1a00001 	mov	r0, r1
    8788:	e28dd044 	add	sp, sp, #68	; 0x44
    878c:	e8bd83f0 	pop	{r4, r5, r6, r7, r8, r9, pc}
    8790:	000092f8 	strdeq	r9, [r0], -r8
    8794:	cccccccd 	stclgt	12, cr12, [ip], {205}	; 0xcd
    8798:	00009304 	andeq	r9, r0, r4, lsl #6
    879c:	00009318 	andeq	r9, r0, r8, lsl r3
    87a0:	000092d4 	ldrdeq	r9, [r0], -r4
    87a4:	000092e8 	andeq	r9, r0, r8, ror #5
    87a8:	000092c0 	andeq	r9, r0, r0, asr #5

000087ac <va_printk>:
    87ac:	e92d4ff0 	push	{r4, r5, r6, r7, r8, r9, sl, fp, lr}
    87b0:	e24dd08c 	sub	sp, sp, #140	; 0x8c
    87b4:	e1a07000 	mov	r7, r0
    87b8:	e2411001 	sub	r1, r1, #1
    87bc:	e0805001 	add	r5, r0, r1
    87c0:	e3a01000 	mov	r1, #0
    87c4:	e5c01000 	strb	r1, [r0]
    87c8:	e1a04000 	mov	r4, r0
    87cc:	e1a08001 	mov	r8, r1
    87d0:	e3a0a008 	mov	sl, #8
    87d4:	e3a09080 	mov	r9, #128	; 0x80
    87d8:	ea000088 	b	8a00 <va_printk+0x254>
    87dc:	e3510025 	cmp	r1, #37	; 0x25
    87e0:	12822001 	addne	r2, r2, #1
    87e4:	15c41000 	strbne	r1, [r4]
    87e8:	12844001 	addne	r4, r4, #1
    87ec:	1a000083 	bne	8a00 <va_printk+0x254>
    87f0:	e5d21001 	ldrb	r1, [r2, #1]
    87f4:	e3510025 	cmp	r1, #37	; 0x25
    87f8:	05c41000 	strbeq	r1, [r4]
    87fc:	02822002 	addeq	r2, r2, #2
    8800:	02844001 	addeq	r4, r4, #1
    8804:	0a00007d 	beq	8a00 <va_printk+0x254>
    8808:	e2826001 	add	r6, r2, #1
    880c:	e1a00001 	mov	r0, r1
    8810:	e241c030 	sub	ip, r1, #48	; 0x30
    8814:	e35c0009 	cmp	ip, #9
    8818:	8a000012 	bhi	8868 <va_printk+0xbc>
    881c:	e2822002 	add	r2, r2, #2
    8820:	e1a0c008 	mov	ip, r8
    8824:	e08cc10c 	add	ip, ip, ip, lsl #2
    8828:	e080c08c 	add	ip, r0, ip, lsl #1
    882c:	e24cc030 	sub	ip, ip, #48	; 0x30
    8830:	e1a06002 	mov	r6, r2
    8834:	e4d21001 	ldrb	r1, [r2], #1
    8838:	e1a00001 	mov	r0, r1
    883c:	e241b030 	sub	fp, r1, #48	; 0x30
    8840:	e35b0009 	cmp	fp, #9
    8844:	9afffff6 	bls	8824 <va_printk+0x78>
    8848:	e35c001f 	cmp	ip, #31
    884c:	9a000007 	bls	8870 <va_printk+0xc4>
    8850:	e59f01e8 	ldr	r0, [pc, #488]	; 8a40 <va_printk+0x294>
    8854:	e59f11e8 	ldr	r1, [pc, #488]	; 8a44 <va_printk+0x298>
    8858:	e59f21e8 	ldr	r2, [pc, #488]	; 8a48 <va_printk+0x29c>
    885c:	e3a030a9 	mov	r3, #169	; 0xa9
    8860:	ebffff3a 	bl	8550 <printk>
    8864:	eb0000a9 	bl	8b10 <rpi_reboot>
    8868:	e1a00001 	mov	r0, r1
    886c:	e1a0c008 	mov	ip, r8
    8870:	e2411062 	sub	r1, r1, #98	; 0x62
    8874:	e3510016 	cmp	r1, #22
    8878:	979ff101 	ldrls	pc, [pc, r1, lsl #2]
    887c:	ea000052 	b	89cc <va_printk+0x220>
    8880:	00008970 	andeq	r8, r0, r0, ror r9
    8884:	000089a4 	andeq	r8, r0, r4, lsr #19
    8888:	000088f4 	strdeq	r8, [r0], -r4
    888c:	000089cc 	andeq	r8, r0, ip, asr #19
    8890:	000088dc 	ldrdeq	r8, [r0], -ip
    8894:	000089cc 	andeq	r8, r0, ip, asr #19
    8898:	000089cc 	andeq	r8, r0, ip, asr #19
    889c:	000089cc 	andeq	r8, r0, ip, asr #19
    88a0:	000089cc 	andeq	r8, r0, ip, asr #19
    88a4:	000089cc 	andeq	r8, r0, ip, asr #19
    88a8:	000089cc 	andeq	r8, r0, ip, asr #19
    88ac:	000089cc 	andeq	r8, r0, ip, asr #19
    88b0:	000089cc 	andeq	r8, r0, ip, asr #19
    88b4:	000089cc 	andeq	r8, r0, ip, asr #19
    88b8:	00008948 	andeq	r8, r0, r8, asr #18
    88bc:	000089cc 	andeq	r8, r0, ip, asr #19
    88c0:	000089cc 	andeq	r8, r0, ip, asr #19
    88c4:	00008998 	muleq	r0, r8, r9
    88c8:	000089cc 	andeq	r8, r0, ip, asr #19
    88cc:	00008920 	andeq	r8, r0, r0, lsr #18
    88d0:	000089cc 	andeq	r8, r0, ip, asr #19
    88d4:	000089cc 	andeq	r8, r0, ip, asr #19
    88d8:	00008948 	andeq	r8, r0, r8, asr #18
    88dc:	e59f0168 	ldr	r0, [pc, #360]	; 8a4c <va_printk+0x2a0>
    88e0:	e59f115c 	ldr	r1, [pc, #348]	; 8a44 <va_printk+0x298>
    88e4:	e59f215c 	ldr	r2, [pc, #348]	; 8a48 <va_printk+0x29c>
    88e8:	e3a030af 	mov	r3, #175	; 0xaf
    88ec:	ebffff17 	bl	8550 <printk>
    88f0:	eb000086 	bl	8b10 <rpi_reboot>
    88f4:	e283b004 	add	fp, r3, #4
    88f8:	e5933000 	ldr	r3, [r3]
    88fc:	e58dc000 	str	ip, [sp]
    8900:	e3a02001 	mov	r2, #1
    8904:	e58d2004 	str	r2, [sp, #4]
    8908:	e3a0000a 	mov	r0, #10
    890c:	e28d1008 	add	r1, sp, #8
    8910:	e1a02009 	mov	r2, r9
    8914:	ebffff25 	bl	85b0 <emit>
    8918:	e1a0300b 	mov	r3, fp
    891c:	ea000040 	b	8a24 <va_printk+0x278>
    8920:	e283b004 	add	fp, r3, #4
    8924:	e5933000 	ldr	r3, [r3]
    8928:	e58dc000 	str	ip, [sp]
    892c:	e58d8004 	str	r8, [sp, #4]
    8930:	e3a0000a 	mov	r0, #10
    8934:	e28d1008 	add	r1, sp, #8
    8938:	e1a02009 	mov	r2, r9
    893c:	ebffff1b 	bl	85b0 <emit>
    8940:	e1a0300b 	mov	r3, fp
    8944:	ea000036 	b	8a24 <va_printk+0x278>
    8948:	e283b004 	add	fp, r3, #4
    894c:	e5933000 	ldr	r3, [r3]
    8950:	e58dc000 	str	ip, [sp]
    8954:	e58d8004 	str	r8, [sp, #4]
    8958:	e3a00010 	mov	r0, #16
    895c:	e28d1008 	add	r1, sp, #8
    8960:	e1a02009 	mov	r2, r9
    8964:	ebffff11 	bl	85b0 <emit>
    8968:	e1a0300b 	mov	r3, fp
    896c:	ea00002c 	b	8a24 <va_printk+0x278>
    8970:	e283b004 	add	fp, r3, #4
    8974:	e5933000 	ldr	r3, [r3]
    8978:	e58dc000 	str	ip, [sp]
    897c:	e58d8004 	str	r8, [sp, #4]
    8980:	e3a00002 	mov	r0, #2
    8984:	e28d1008 	add	r1, sp, #8
    8988:	e1a02009 	mov	r2, r9
    898c:	ebffff07 	bl	85b0 <emit>
    8990:	e1a0300b 	mov	r3, fp
    8994:	ea000022 	b	8a24 <va_printk+0x278>
    8998:	e5930000 	ldr	r0, [r3]
    899c:	e2833004 	add	r3, r3, #4
    89a0:	ea00001f 	b	8a24 <va_printk+0x278>
    89a4:	e283b004 	add	fp, r3, #4
    89a8:	e5933000 	ldr	r3, [r3]
    89ac:	e58dc000 	str	ip, [sp]
    89b0:	e58d8004 	str	r8, [sp, #4]
    89b4:	e1a0000a 	mov	r0, sl
    89b8:	e28d1008 	add	r1, sp, #8
    89bc:	e1a02009 	mov	r2, r9
    89c0:	ebfffefa 	bl	85b0 <emit>
    89c4:	e1a0300b 	mov	r3, fp
    89c8:	ea000015 	b	8a24 <va_printk+0x278>
    89cc:	e58d0000 	str	r0, [sp]
    89d0:	e59f0078 	ldr	r0, [pc, #120]	; 8a50 <va_printk+0x2a4>
    89d4:	e59f1068 	ldr	r1, [pc, #104]	; 8a44 <va_printk+0x298>
    89d8:	e59f2068 	ldr	r2, [pc, #104]	; 8a48 <va_printk+0x29c>
    89dc:	e3a030d0 	mov	r3, #208	; 0xd0
    89e0:	ebfffeda 	bl	8550 <printk>
    89e4:	eb000049 	bl	8b10 <rpi_reboot>
    89e8:	e4c41001 	strb	r1, [r4], #1
    89ec:	e1540005 	cmp	r4, r5
    89f0:	0a000002 	beq	8a00 <va_printk+0x254>
    89f4:	e5f01001 	ldrb	r1, [r0, #1]!
    89f8:	e3510000 	cmp	r1, #0
    89fc:	1afffff9 	bne	89e8 <va_printk+0x23c>
    8a00:	e5d21000 	ldrb	r1, [r2]
    8a04:	e3510000 	cmp	r1, #0
    8a08:	0a000001 	beq	8a14 <va_printk+0x268>
    8a0c:	e1540005 	cmp	r4, r5
    8a10:	3affff71 	bcc	87dc <va_printk+0x30>
    8a14:	e3a03000 	mov	r3, #0
    8a18:	e4c43001 	strb	r3, [r4], #1
    8a1c:	e0670004 	rsb	r0, r7, r4
    8a20:	ea000004 	b	8a38 <va_printk+0x28c>
    8a24:	e2862001 	add	r2, r6, #1
    8a28:	e5d01000 	ldrb	r1, [r0]
    8a2c:	e3510000 	cmp	r1, #0
    8a30:	0afffff2 	beq	8a00 <va_printk+0x254>
    8a34:	eaffffeb 	b	89e8 <va_printk+0x23c>
    8a38:	e28dd08c 	add	sp, sp, #140	; 0x8c
    8a3c:	e8bd8ff0 	pop	{r4, r5, r6, r7, r8, r9, sl, fp, pc}
    8a40:	0000931c 	andeq	r9, r0, ip, lsl r3
    8a44:	000092e8 	andeq	r9, r0, r8, ror #5
    8a48:	000092c8 	andeq	r9, r0, r8, asr #5
    8a4c:	00009338 	andeq	r9, r0, r8, lsr r3
    8a50:	00009360 	andeq	r9, r0, r0, ror #6

00008a54 <snprintk>:
    8a54:	e92d000c 	push	{r2, r3}
    8a58:	e52de004 	push	{lr}		; (str lr, [sp, #-4]!)
    8a5c:	e24dd00c 	sub	sp, sp, #12
    8a60:	e28d3014 	add	r3, sp, #20
    8a64:	e58d3004 	str	r3, [sp, #4]
    8a68:	e59d2010 	ldr	r2, [sp, #16]
    8a6c:	ebffff4e 	bl	87ac <va_printk>
    8a70:	e28dd00c 	add	sp, sp, #12
    8a74:	e49de004 	pop	{lr}		; (ldr lr, [sp], #4)
    8a78:	e28dd008 	add	sp, sp, #8
    8a7c:	e12fff1e 	bx	lr

00008a80 <putk>:
    8a80:	e92d4010 	push	{r4, lr}
    8a84:	e1a04000 	mov	r4, r0
    8a88:	e5d00000 	ldrb	r0, [r0]
    8a8c:	e3500000 	cmp	r0, #0
    8a90:	0a000003 	beq	8aa4 <putk+0x24>
    8a94:	eb0001a6 	bl	9134 <uart_putc>
    8a98:	e5f40001 	ldrb	r0, [r4, #1]!
    8a9c:	e3500000 	cmp	r0, #0
    8aa0:	1afffffb 	bne	8a94 <putk+0x14>
    8aa4:	e3a00001 	mov	r0, #1
    8aa8:	e8bd8010 	pop	{r4, pc}

00008aac <panic>:
    8aac:	e92d4008 	push	{r3, lr}
    8ab0:	e1a06000 	mov	r6, r0
    8ab4:	e1a05001 	mov	r5, r1
    8ab8:	e1a04002 	mov	r4, r2
    8abc:	e59f0018 	ldr	r0, [pc, #24]	; 8adc <panic+0x30>
    8ac0:	ebffffee 	bl	8a80 <putk>
    8ac4:	e59f0014 	ldr	r0, [pc, #20]	; 8ae0 <panic+0x34>
    8ac8:	e1a01006 	mov	r1, r6
    8acc:	e1a02005 	mov	r2, r5
    8ad0:	e1a03004 	mov	r3, r4
    8ad4:	ebfffe9d 	bl	8550 <printk>
    8ad8:	eb00000c 	bl	8b10 <rpi_reboot>
    8adc:	00009398 	muleq	r0, r8, r3
    8ae0:	000093a4 	andeq	r9, r0, r4, lsr #7

00008ae4 <at_user_level>:
    8ae4:	e10f0000 	mrs	r0, CPSR
    8ae8:	e200001f 	and	r0, r0, #31
    8aec:	e3500010 	cmp	r0, #16
    8af0:	13a00000 	movne	r0, #0
    8af4:	03a00001 	moveq	r0, #1
    8af8:	e12fff1e 	bx	lr

00008afc <set_user_level>:
    8afc:	e10f3000 	mrs	r3, CPSR
    8b00:	e3c3301f 	bic	r3, r3, #31
    8b04:	e3833010 	orr	r3, r3, #16
    8b08:	e129f003 	msr	CPSR_fc, r3
    8b0c:	e12fff1e 	bx	lr

00008b10 <rpi_reboot>:
    8b10:	e92d4008 	push	{r3, lr}
    8b14:	ebfffff2 	bl	8ae4 <at_user_level>
    8b18:	e3500000 	cmp	r0, #0
    8b1c:	0a000009 	beq	8b48 <rpi_reboot+0x38>
    8b20:	ebfffff5 	bl	8afc <set_user_level>
    8b24:	ebffffee 	bl	8ae4 <at_user_level>
    8b28:	e3500000 	cmp	r0, #0
    8b2c:	1a000005 	bne	8b48 <rpi_reboot+0x38>
    8b30:	e59f0034 	ldr	r0, [pc, #52]	; 8b6c <rpi_reboot+0x5c>
    8b34:	e59f1034 	ldr	r1, [pc, #52]	; 8b70 <rpi_reboot+0x60>
    8b38:	e59f2034 	ldr	r2, [pc, #52]	; 8b74 <rpi_reboot+0x64>
    8b3c:	e3a0301f 	mov	r3, #31
    8b40:	ebfffe82 	bl	8550 <printk>
    8b44:	ebfffff1 	bl	8b10 <rpi_reboot>
    8b48:	e3a0001e 	mov	r0, #30
    8b4c:	eb000022 	bl	8bdc <delay_ms>
    8b50:	e59f0020 	ldr	r0, [pc, #32]	; 8b78 <rpi_reboot+0x68>
    8b54:	e59f1020 	ldr	r1, [pc, #32]	; 8b7c <rpi_reboot+0x6c>
    8b58:	eb000128 	bl	9000 <PUT32>
    8b5c:	e59f001c 	ldr	r0, [pc, #28]	; 8b80 <rpi_reboot+0x70>
    8b60:	e59f101c 	ldr	r1, [pc, #28]	; 8b84 <rpi_reboot+0x74>
    8b64:	eb000125 	bl	9000 <PUT32>
    8b68:	eafffffe 	b	8b68 <rpi_reboot+0x58>
    8b6c:	000093d0 	ldrdeq	r9, [r0], -r0
    8b70:	000093f0 	strdeq	r9, [r0], -r0
    8b74:	000093c4 	andeq	r9, r0, r4, asr #7
    8b78:	20100024 	andscs	r0, r0, r4, lsr #32
    8b7c:	5a000001 	bpl	8b88 <clean_reboot>
    8b80:	2010001c 	andscs	r0, r0, ip, lsl r0
    8b84:	5a000020 	bpl	8c0c <dmb+0x4>

00008b88 <clean_reboot>:
    8b88:	e92d4008 	push	{r3, lr}
    8b8c:	e59f000c 	ldr	r0, [pc, #12]	; 8ba0 <clean_reboot+0x18>
    8b90:	ebffffba 	bl	8a80 <putk>
    8b94:	e3a00032 	mov	r0, #50	; 0x32
    8b98:	eb00000f 	bl	8bdc <delay_ms>
    8b9c:	ebffffdb 	bl	8b10 <rpi_reboot>
    8ba0:	00009400 	andeq	r9, r0, r0, lsl #8

00008ba4 <timer_get_time>:
    8ba4:	e92d4008 	push	{r3, lr}
    8ba8:	e59f0004 	ldr	r0, [pc, #4]	; 8bb4 <timer_get_time+0x10>
    8bac:	eb00011b 	bl	9020 <GET32>
    8bb0:	e8bd8008 	pop	{r3, pc}
    8bb4:	20003004 	andcs	r3, r0, r4

00008bb8 <delay_us>:
    8bb8:	e92d4038 	push	{r3, r4, r5, lr}
    8bbc:	e1a05000 	mov	r5, r0
    8bc0:	ebfffff7 	bl	8ba4 <timer_get_time>
    8bc4:	e1a04000 	mov	r4, r0
    8bc8:	ebfffff5 	bl	8ba4 <timer_get_time>
    8bcc:	e0640000 	rsb	r0, r4, r0
    8bd0:	e1500005 	cmp	r0, r5
    8bd4:	3afffffb 	bcc	8bc8 <delay_us+0x10>
    8bd8:	e8bd8038 	pop	{r3, r4, r5, pc}

00008bdc <delay_ms>:
    8bdc:	e92d4008 	push	{r3, lr}
    8be0:	e3a03ffa 	mov	r3, #1000	; 0x3e8
    8be4:	e0000093 	mul	r0, r3, r0
    8be8:	ebfffff2 	bl	8bb8 <delay_us>
    8bec:	e8bd8008 	pop	{r3, pc}

00008bf0 <mb>:
    8bf0:	e3a00000 	mov	r0, #0
    8bf4:	ee070f15 	mcr	15, 0, r0, cr7, cr5, {0}
    8bf8:	ee070fd5 	mcr	15, 0, r0, cr7, cr5, {6}
    8bfc:	ee070f9a 	mcr	15, 0, r0, cr7, cr10, {4}
    8c00:	ee070f95 	mcr	15, 0, r0, cr7, cr5, {4}
    8c04:	e12fff1e 	bx	lr

00008c08 <dmb>:
    8c08:	ee070fba 	mcr	15, 0, r0, cr7, cr10, {5}
    8c0c:	e12fff1e 	bx	lr

00008c10 <dsb>:
    8c10:	ee070f9a 	mcr	15, 0, r0, cr7, cr10, {4}
    8c14:	e12fff1e 	bx	lr

00008c18 <gpio_set_function>:
    8c18:	e92d40f8 	push	{r3, r4, r5, r6, r7, lr}
    8c1c:	e1a04000 	mov	r4, r0
    8c20:	e1a06001 	mov	r6, r1
    8c24:	e3500035 	cmp	r0, #53	; 0x35
    8c28:	8a000013 	bhi	8c7c <gpio_set_function+0x64>
    8c2c:	e3510007 	cmp	r1, #7
    8c30:	8a000013 	bhi	8c84 <gpio_set_function+0x6c>
    8c34:	e59f5050 	ldr	r5, [pc, #80]	; 8c8c <gpio_set_function+0x74>
    8c38:	e0853095 	umull	r3, r5, r5, r0
    8c3c:	e1a051a5 	lsr	r5, r5, #3
    8c40:	e2857302 	add	r7, r5, #134217728	; 0x8000000
    8c44:	e2877702 	add	r7, r7, #524288	; 0x80000
    8c48:	e1a07107 	lsl	r7, r7, #2
    8c4c:	e1a00007 	mov	r0, r7
    8c50:	eb0000f2 	bl	9020 <GET32>
    8c54:	e0855105 	add	r5, r5, r5, lsl #2
    8c58:	e0444085 	sub	r4, r4, r5, lsl #1
    8c5c:	e0844084 	add	r4, r4, r4, lsl #1
    8c60:	e3a01007 	mov	r1, #7
    8c64:	e1c01411 	bic	r1, r0, r1, lsl r4
    8c68:	e1a00007 	mov	r0, r7
    8c6c:	e1811416 	orr	r1, r1, r6, lsl r4
    8c70:	eb0000e2 	bl	9000 <PUT32>
    8c74:	e3a00000 	mov	r0, #0
    8c78:	e8bd80f8 	pop	{r3, r4, r5, r6, r7, pc}
    8c7c:	e3e00000 	mvn	r0, #0
    8c80:	e8bd80f8 	pop	{r3, r4, r5, r6, r7, pc}
    8c84:	e3e00000 	mvn	r0, #0
    8c88:	e8bd80f8 	pop	{r3, r4, r5, r6, r7, pc}
    8c8c:	cccccccd 	stclgt	12, cr12, [ip], {205}	; 0xcd

00008c90 <gpio_get_function>:
    8c90:	e92d4038 	push	{r3, r4, r5, lr}
    8c94:	e1a04000 	mov	r4, r0
    8c98:	e3500035 	cmp	r0, #53	; 0x35
    8c9c:	8a00000d 	bhi	8cd8 <gpio_get_function+0x48>
    8ca0:	e59f5038 	ldr	r5, [pc, #56]	; 8ce0 <gpio_get_function+0x50>
    8ca4:	e0853095 	umull	r3, r5, r5, r0
    8ca8:	e1a051a5 	lsr	r5, r5, #3
    8cac:	e2850302 	add	r0, r5, #134217728	; 0x8000000
    8cb0:	e2800702 	add	r0, r0, #524288	; 0x80000
    8cb4:	e1a00100 	lsl	r0, r0, #2
    8cb8:	eb0000d8 	bl	9020 <GET32>
    8cbc:	e0855105 	add	r5, r5, r5, lsl #2
    8cc0:	e0444085 	sub	r4, r4, r5, lsl #1
    8cc4:	e0844084 	add	r4, r4, r4, lsl #1
    8cc8:	e3a03007 	mov	r3, #7
    8ccc:	e0000413 	and	r0, r0, r3, lsl r4
    8cd0:	e1a00430 	lsr	r0, r0, r4
    8cd4:	e8bd8038 	pop	{r3, r4, r5, pc}
    8cd8:	e3e00000 	mvn	r0, #0
    8cdc:	e8bd8038 	pop	{r3, r4, r5, pc}
    8ce0:	cccccccd 	stclgt	12, cr12, [ip], {205}	; 0xcd

00008ce4 <gpio_set_input>:
    8ce4:	e92d4008 	push	{r3, lr}
    8ce8:	e3a01000 	mov	r1, #0
    8cec:	ebffffc9 	bl	8c18 <gpio_set_function>
    8cf0:	e8bd8008 	pop	{r3, pc}

00008cf4 <gpio_set_output>:
    8cf4:	e92d4008 	push	{r3, lr}
    8cf8:	e3a01001 	mov	r1, #1
    8cfc:	ebffffc5 	bl	8c18 <gpio_set_function>
    8d00:	e8bd8008 	pop	{r3, pc}

00008d04 <gpio_write>:
    8d04:	e92d4008 	push	{r3, lr}
    8d08:	e3500035 	cmp	r0, #53	; 0x35
    8d0c:	8a00000b 	bhi	8d40 <gpio_write+0x3c>
    8d10:	e3510000 	cmp	r1, #0
    8d14:	e1a022a0 	lsr	r2, r0, #5
    8d18:	159f3028 	ldrne	r3, [pc, #40]	; 8d48 <gpio_write+0x44>
    8d1c:	059f3028 	ldreq	r3, [pc, #40]	; 8d4c <gpio_write+0x48>
    8d20:	e0832102 	add	r2, r3, r2, lsl #2
    8d24:	e200301f 	and	r3, r0, #31
    8d28:	e1a00002 	mov	r0, r2
    8d2c:	e3a01001 	mov	r1, #1
    8d30:	e1a01311 	lsl	r1, r1, r3
    8d34:	eb0000b1 	bl	9000 <PUT32>
    8d38:	e3a00000 	mov	r0, #0
    8d3c:	e8bd8008 	pop	{r3, pc}
    8d40:	e3e00000 	mvn	r0, #0
    8d44:	e8bd8008 	pop	{r3, pc}
    8d48:	2020001c 	eorcs	r0, r0, ip, lsl r0
    8d4c:	20200028 	eorcs	r0, r0, r8, lsr #32

00008d50 <gpio_read>:
    8d50:	e92d4010 	push	{r4, lr}
    8d54:	e1a04000 	mov	r4, r0
    8d58:	e3500035 	cmp	r0, #53	; 0x35
    8d5c:	8a000009 	bhi	8d88 <gpio_read+0x38>
    8d60:	e1a002a0 	lsr	r0, r0, #5
    8d64:	e59f3024 	ldr	r3, [pc, #36]	; 8d90 <gpio_read+0x40>
    8d68:	e0830100 	add	r0, r3, r0, lsl #2
    8d6c:	eb0000ab 	bl	9020 <GET32>
    8d70:	e204401f 	and	r4, r4, #31
    8d74:	e3a03001 	mov	r3, #1
    8d78:	e0103413 	ands	r3, r0, r3, lsl r4
    8d7c:	03a00000 	moveq	r0, #0
    8d80:	13a00001 	movne	r0, #1
    8d84:	e8bd8010 	pop	{r4, pc}
    8d88:	e3e00000 	mvn	r0, #0
    8d8c:	e8bd8010 	pop	{r4, pc}
    8d90:	20200034 	eorcs	r0, r0, r4, lsr r0

00008d94 <gpio_set_off>:
    8d94:	e92d4008 	push	{r3, lr}
    8d98:	e3a01000 	mov	r1, #0
    8d9c:	ebffffd8 	bl	8d04 <gpio_write>
    8da0:	e8bd8008 	pop	{r3, pc}

00008da4 <gpio_set_on>:
    8da4:	e92d4008 	push	{r3, lr}
    8da8:	e3a01001 	mov	r1, #1
    8dac:	ebffffd4 	bl	8d04 <gpio_write>
    8db0:	e8bd8008 	pop	{r3, pc}

00008db4 <gpio_set_pud>:
    8db4:	e92d4070 	push	{r4, r5, r6, lr}
    8db8:	e1a04000 	mov	r4, r0
    8dbc:	e3500035 	cmp	r0, #53	; 0x35
    8dc0:	8a000018 	bhi	8e28 <gpio_set_pud+0x74>
    8dc4:	e3510002 	cmp	r1, #2
    8dc8:	8a000018 	bhi	8e30 <gpio_set_pud+0x7c>
    8dcc:	e59f6064 	ldr	r6, [pc, #100]	; 8e38 <gpio_set_pud+0x84>
    8dd0:	e1a00006 	mov	r0, r6
    8dd4:	eb000089 	bl	9000 <PUT32>
    8dd8:	e3a00096 	mov	r0, #150	; 0x96
    8ddc:	ebffff75 	bl	8bb8 <delay_us>
    8de0:	e1a052a4 	lsr	r5, r4, #5
    8de4:	e59f3050 	ldr	r3, [pc, #80]	; 8e3c <gpio_set_pud+0x88>
    8de8:	e0835105 	add	r5, r3, r5, lsl #2
    8dec:	e204401f 	and	r4, r4, #31
    8df0:	e1a00005 	mov	r0, r5
    8df4:	e3a01001 	mov	r1, #1
    8df8:	e1a01411 	lsl	r1, r1, r4
    8dfc:	eb00007f 	bl	9000 <PUT32>
    8e00:	e3a00096 	mov	r0, #150	; 0x96
    8e04:	ebffff6b 	bl	8bb8 <delay_us>
    8e08:	e1a00006 	mov	r0, r6
    8e0c:	e3a01000 	mov	r1, #0
    8e10:	eb00007a 	bl	9000 <PUT32>
    8e14:	e1a00005 	mov	r0, r5
    8e18:	e3a01000 	mov	r1, #0
    8e1c:	eb000077 	bl	9000 <PUT32>
    8e20:	e3a00000 	mov	r0, #0
    8e24:	e8bd8070 	pop	{r4, r5, r6, pc}
    8e28:	e3e00000 	mvn	r0, #0
    8e2c:	e8bd8070 	pop	{r4, r5, r6, pc}
    8e30:	e3e00000 	mvn	r0, #0
    8e34:	e8bd8070 	pop	{r4, r5, r6, pc}
    8e38:	20200094 	mlacs	r0, r4, r0, r0
    8e3c:	20200098 	mlacs	r0, r8, r0, r0

00008e40 <gpio_set_pullup>:
    8e40:	e92d4008 	push	{r3, lr}
    8e44:	e3a01002 	mov	r1, #2
    8e48:	ebffffd9 	bl	8db4 <gpio_set_pud>
    8e4c:	e8bd8008 	pop	{r3, pc}

00008e50 <gpio_set_pulldown>:
    8e50:	e92d4008 	push	{r3, lr}
    8e54:	e3a01001 	mov	r1, #1
    8e58:	ebffffd5 	bl	8db4 <gpio_set_pud>
    8e5c:	e8bd8008 	pop	{r3, pc}

00008e60 <pwm_compute>:
    8e60:	e92d47f0 	push	{r4, r5, r6, r7, r8, r9, sl, lr}
    8e64:	e1510002 	cmp	r1, r2
    8e68:	9a000005 	bls	8e84 <pwm_compute+0x24>
    8e6c:	e59f00cc 	ldr	r0, [pc, #204]	; 8f40 <pwm_compute+0xe0>
    8e70:	e59f10cc 	ldr	r1, [pc, #204]	; 8f44 <pwm_compute+0xe4>
    8e74:	e59f20cc 	ldr	r2, [pc, #204]	; 8f48 <pwm_compute+0xe8>
    8e78:	e3a03028 	mov	r3, #40	; 0x28
    8e7c:	ebfffdb3 	bl	8550 <printk>
    8e80:	ebffff22 	bl	8b10 <rpi_reboot>
    8e84:	e1a07001 	mov	r7, r1
    8e88:	e061c002 	rsb	ip, r1, r2
    8e8c:	e151000c 	cmp	r1, ip
    8e90:	d26c3000 	rsble	r3, ip, #0
    8e94:	d0833fa3 	addle	r3, r3, r3, lsr #31
    8e98:	c0813fa1 	addgt	r3, r1, r1, lsr #31
    8e9c:	e1a030c3 	asr	r3, r3, #1
    8ea0:	e081100c 	add	r1, r1, ip
    8ea4:	e1520001 	cmp	r2, r1
    8ea8:	1a000006 	bne	8ec8 <pwm_compute+0x68>
    8eac:	e3a04000 	mov	r4, #0
    8eb0:	e1a05004 	mov	r5, r4
    8eb4:	e1a01004 	mov	r1, r4
    8eb8:	e2678000 	rsb	r8, r7, #0
    8ebc:	e3a0a001 	mov	sl, #1
    8ec0:	e1a09004 	mov	r9, r4
    8ec4:	ea000005 	b	8ee0 <pwm_compute+0x80>
    8ec8:	e59f007c 	ldr	r0, [pc, #124]	; 8f4c <pwm_compute+0xec>
    8ecc:	e59f1070 	ldr	r1, [pc, #112]	; 8f44 <pwm_compute+0xe4>
    8ed0:	e59f2078 	ldr	r2, [pc, #120]	; 8f50 <pwm_compute+0xf0>
    8ed4:	e3a0301c 	mov	r3, #28
    8ed8:	ebfffd9c 	bl	8550 <printk>
    8edc:	ebffff0b 	bl	8b10 <rpi_reboot>
    8ee0:	e15c0004 	cmp	ip, r4
    8ee4:	01570005 	cmpeq	r7, r5
    8ee8:	0a00000c 	beq	8f20 <pwm_compute+0xc0>
    8eec:	e1580003 	cmp	r8, r3
    8ef0:	b06c6003 	rsblt	r6, ip, r3
    8ef4:	b2855001 	addlt	r5, r5, #1
    8ef8:	b780a101 	strlt	sl, [r0, r1, lsl #2]
    8efc:	b2811001 	addlt	r1, r1, #1
    8f00:	a1a06003 	movge	r6, r3
    8f04:	e15c0003 	cmp	ip, r3
    8f08:	d1a03006 	movle	r3, r6
    8f0c:	c0873006 	addgt	r3, r7, r6
    8f10:	c2844001 	addgt	r4, r4, #1
    8f14:	c7809101 	strgt	r9, [r0, r1, lsl #2]
    8f18:	c2811001 	addgt	r1, r1, #1
    8f1c:	eaffffef 	b	8ee0 <pwm_compute+0x80>
    8f20:	e1520001 	cmp	r2, r1
    8f24:	08bd87f0 	popeq	{r4, r5, r6, r7, r8, r9, sl, pc}
    8f28:	e59f0024 	ldr	r0, [pc, #36]	; 8f54 <pwm_compute+0xf4>
    8f2c:	e59f1010 	ldr	r1, [pc, #16]	; 8f44 <pwm_compute+0xe4>
    8f30:	e59f2018 	ldr	r2, [pc, #24]	; 8f50 <pwm_compute+0xf0>
    8f34:	e3a03024 	mov	r3, #36	; 0x24
    8f38:	ebfffd84 	bl	8550 <printk>
    8f3c:	ebfffef3 	bl	8b10 <rpi_reboot>
    8f40:	00009430 	andeq	r9, r0, r0, lsr r4
    8f44:	00009448 	andeq	r9, r0, r8, asr #8
    8f48:	0000940c 	andeq	r9, r0, ip, lsl #8
    8f4c:	00009458 	andeq	r9, r0, r8, asr r4
    8f50:	00009418 	andeq	r9, r0, r8, lsl r4
    8f54:	00009474 	andeq	r9, r0, r4, ror r4

00008f58 <pwm_print>:
    8f58:	e92d40f8 	push	{r3, r4, r5, r6, r7, lr}
    8f5c:	e1a05000 	mov	r5, r0
    8f60:	e1a04001 	mov	r4, r1
    8f64:	e1a07002 	mov	r7, r2
    8f68:	e1510002 	cmp	r1, r2
    8f6c:	9a000005 	bls	8f88 <pwm_print+0x30>
    8f70:	e59f0068 	ldr	r0, [pc, #104]	; 8fe0 <pwm_print+0x88>
    8f74:	e59f1068 	ldr	r1, [pc, #104]	; 8fe4 <pwm_print+0x8c>
    8f78:	e59f2068 	ldr	r2, [pc, #104]	; 8fe8 <pwm_print+0x90>
    8f7c:	e3a0302f 	mov	r3, #47	; 0x2f
    8f80:	ebfffd72 	bl	8550 <printk>
    8f84:	ebfffee1 	bl	8b10 <rpi_reboot>
    8f88:	e0616002 	rsb	r6, r1, r2
    8f8c:	e59f0058 	ldr	r0, [pc, #88]	; 8fec <pwm_print+0x94>
    8f90:	ebfffd6e 	bl	8550 <printk>
    8f94:	e59f0054 	ldr	r0, [pc, #84]	; 8ff0 <pwm_print+0x98>
    8f98:	e1a01007 	mov	r1, r7
    8f9c:	e1a02004 	mov	r2, r4
    8fa0:	e1a03006 	mov	r3, r6
    8fa4:	ebfffd69 	bl	8550 <printk>
    8fa8:	e3570000 	cmp	r7, #0
    8fac:	08bd80f8 	popeq	{r3, r4, r5, r6, r7, pc}
    8fb0:	e3a03000 	mov	r3, #0
    8fb4:	e1a04003 	mov	r4, r3
    8fb8:	e59f6034 	ldr	r6, [pc, #52]	; 8ff4 <pwm_print+0x9c>
    8fbc:	e1a00006 	mov	r0, r6
    8fc0:	e1a01004 	mov	r1, r4
    8fc4:	e7952103 	ldr	r2, [r5, r3, lsl #2]
    8fc8:	ebfffd60 	bl	8550 <printk>
    8fcc:	e2844001 	add	r4, r4, #1
    8fd0:	e1a03004 	mov	r3, r4
    8fd4:	e1540007 	cmp	r4, r7
    8fd8:	1afffff7 	bne	8fbc <pwm_print+0x64>
    8fdc:	e8bd80f8 	pop	{r3, r4, r5, r6, r7, pc}
    8fe0:	00009430 	andeq	r9, r0, r0, lsr r4
    8fe4:	00009448 	andeq	r9, r0, r8, asr #8
    8fe8:	00009424 	andeq	r9, r0, r4, lsr #8
    8fec:	00009490 	muleq	r0, r0, r4
    8ff0:	000094c4 	andeq	r9, r0, r4, asr #9
    8ff4:	000094dc 	ldrdeq	r9, [r0], -ip

00008ff8 <put32>:
    8ff8:	e5801000 	str	r1, [r0]
    8ffc:	e12fff1e 	bx	lr

00009000 <PUT32>:
    9000:	e5801000 	str	r1, [r0]
    9004:	e12fff1e 	bx	lr

00009008 <PUT16>:
    9008:	e1c010b0 	strh	r1, [r0]
    900c:	e12fff1e 	bx	lr

00009010 <PUT8>:
    9010:	e5c01000 	strb	r1, [r0]
    9014:	e12fff1e 	bx	lr

00009018 <get32>:
    9018:	e5900000 	ldr	r0, [r0]
    901c:	e12fff1e 	bx	lr

00009020 <GET32>:
    9020:	e5900000 	ldr	r0, [r0]
    9024:	e12fff1e 	bx	lr

00009028 <GETPC>:
    9028:	e1a0000e 	mov	r0, lr
    902c:	e12fff1e 	bx	lr

00009030 <dummy>:
    9030:	e12fff1e 	bx	lr

00009034 <dev_barrier>:
    9034:	e92d4008 	push	{r3, lr}
    9038:	ebfffef2 	bl	8c08 <dmb>
    903c:	ebfffef3 	bl	8c10 <dsb>
    9040:	e8bd8008 	pop	{r3, pc}

00009044 <uart_init>:
    9044:	e92d4038 	push	{r3, r4, r5, lr}
    9048:	ebfffff9 	bl	9034 <dev_barrier>
    904c:	e3a0000e 	mov	r0, #14
    9050:	e3a01002 	mov	r1, #2
    9054:	ebfffeef 	bl	8c18 <gpio_set_function>
    9058:	e3a0000f 	mov	r0, #15
    905c:	e3a01002 	mov	r1, #2
    9060:	ebfffeec 	bl	8c18 <gpio_set_function>
    9064:	ebfffff2 	bl	9034 <dev_barrier>
    9068:	e59f4084 	ldr	r4, [pc, #132]	; 90f4 <uart_init+0xb0>
    906c:	e1a00004 	mov	r0, r4
    9070:	ebffffe8 	bl	9018 <get32>
    9074:	e3801001 	orr	r1, r0, #1
    9078:	e1a00004 	mov	r0, r4
    907c:	ebffffdd 	bl	8ff8 <put32>
    9080:	ebffffeb 	bl	9034 <dev_barrier>
    9084:	e284405c 	add	r4, r4, #92	; 0x5c
    9088:	e1a00004 	mov	r0, r4
    908c:	ebffffe1 	bl	9018 <get32>
    9090:	e3c01003 	bic	r1, r0, #3
    9094:	e1a00004 	mov	r0, r4
    9098:	ebffffd6 	bl	8ff8 <put32>
    909c:	e59f0054 	ldr	r0, [pc, #84]	; 90f8 <uart_init+0xb4>
    90a0:	e59f1054 	ldr	r1, [pc, #84]	; 90fc <uart_init+0xb8>
    90a4:	ebffffd3 	bl	8ff8 <put32>
    90a8:	e59f5050 	ldr	r5, [pc, #80]	; 9100 <uart_init+0xbc>
    90ac:	e1a00005 	mov	r0, r5
    90b0:	ebffffd8 	bl	9018 <get32>
    90b4:	e3801003 	orr	r1, r0, #3
    90b8:	e1a00005 	mov	r0, r5
    90bc:	ebffffcd 	bl	8ff8 <put32>
    90c0:	e2455004 	sub	r5, r5, #4
    90c4:	e1a00005 	mov	r0, r5
    90c8:	ebffffd2 	bl	9018 <get32>
    90cc:	e3801006 	orr	r1, r0, #6
    90d0:	e1a00005 	mov	r0, r5
    90d4:	ebffffc7 	bl	8ff8 <put32>
    90d8:	e1a00004 	mov	r0, r4
    90dc:	ebffffcd 	bl	9018 <get32>
    90e0:	e3801003 	orr	r1, r0, #3
    90e4:	e1a00004 	mov	r0, r4
    90e8:	ebffffc2 	bl	8ff8 <put32>
    90ec:	ebffffd0 	bl	9034 <dev_barrier>
    90f0:	e8bd8038 	pop	{r3, r4, r5, pc}
    90f4:	20215004 	eorcs	r5, r1, r4
    90f8:	20215068 	eorcs	r5, r1, r8, rrx
    90fc:	0000010e 	andeq	r0, r0, lr, lsl #2
    9100:	2021504c 	eorcs	r5, r1, ip, asr #32

00009104 <uart_getc>:
    9104:	e92d4010 	push	{r4, lr}
    9108:	e59f401c 	ldr	r4, [pc, #28]	; 912c <uart_getc+0x28>
    910c:	e1a00004 	mov	r0, r4
    9110:	ebffffc0 	bl	9018 <get32>
    9114:	e3100001 	tst	r0, #1
    9118:	0afffffb 	beq	910c <uart_getc+0x8>
    911c:	e59f000c 	ldr	r0, [pc, #12]	; 9130 <uart_getc+0x2c>
    9120:	ebffffbc 	bl	9018 <get32>
    9124:	e6ef0070 	uxtb	r0, r0
    9128:	e8bd8010 	pop	{r4, pc}
    912c:	20215054 	eorcs	r5, r1, r4, asr r0
    9130:	20215040 	eorcs	r5, r1, r0, asr #32

00009134 <uart_putc>:
    9134:	e92d4038 	push	{r3, r4, r5, lr}
    9138:	e1a05000 	mov	r5, r0
    913c:	e59f401c 	ldr	r4, [pc, #28]	; 9160 <uart_putc+0x2c>
    9140:	e1a00004 	mov	r0, r4
    9144:	ebffffb3 	bl	9018 <get32>
    9148:	e3100020 	tst	r0, #32
    914c:	0afffffb 	beq	9140 <uart_putc+0xc>
    9150:	e59f000c 	ldr	r0, [pc, #12]	; 9164 <uart_putc+0x30>
    9154:	e6ef1075 	uxtb	r1, r5
    9158:	ebffffa6 	bl	8ff8 <put32>
    915c:	e8bd8038 	pop	{r3, r4, r5, pc}
    9160:	20215054 	eorcs	r5, r1, r4, asr r0
    9164:	20215040 	eorcs	r5, r1, r0, asr #32

Disassembly of section .data:

00009168 <rpiIRQController>:
    9168:	2000b200 	andcs	fp, r0, r0, lsl #4

0000916c <rpiArmTimer>:
    916c:	2000b400 	andcs	fp, r0, r0, lsl #8

Disassembly of section .rodata:

00009170 <led>:
    9170:	00000014 	andeq	r0, r0, r4, lsl r0

00009174 <echo>:
    9174:	00000013 	andeq	r0, r0, r3, lsl r0

00009178 <trigger>:
    9178:	0000001a 	andeq	r0, r0, sl, lsl r0
    917c:	6c616373 	stclvs	3, cr6, [r1], #-460	; 0xfffffe34
    9180:	203a6465 	eorscs	r6, sl, r5, ror #8
    9184:	000a6425 	andeq	r6, sl, r5, lsr #8

00009188 <__FUNCTION__.3800>:
    9188:	74736166 	ldrbtvc	r6, [r3], #-358	; 0x166
    918c:	746e695f 	strbtvc	r6, [lr], #-2399	; 0x95f
    9190:	75727265 	ldrbvc	r7, [r2, #-613]!	; 0x265
    9194:	765f7470 			; <UNDEFINED> instruction: 0x765f7470
    9198:	6f746365 	svcvs	0x00746365
    919c:	00000072 	andeq	r0, r0, r2, ror r0

000091a0 <__FUNCTION__.3804>:
    91a0:	74666f73 	strbtvc	r6, [r6], #-3955	; 0xf73
    91a4:	65726177 	ldrbvs	r6, [r2, #-375]!	; 0x177
    91a8:	746e695f 	strbtvc	r6, [lr], #-2399	; 0x95f
    91ac:	75727265 	ldrbvc	r7, [r2, #-613]!	; 0x265
    91b0:	765f7470 			; <UNDEFINED> instruction: 0x765f7470
    91b4:	6f746365 	svcvs	0x00746365
    91b8:	00000072 	andeq	r0, r0, r2, ror r0

000091bc <__FUNCTION__.3808>:
    91bc:	65736572 	ldrbvs	r6, [r3, #-1394]!	; 0x572
    91c0:	65765f74 	ldrbvs	r5, [r6, #-3956]!	; 0xf74
    91c4:	726f7463 	rsbvc	r7, pc, #1660944384	; 0x63000000
    91c8:	00000000 	andeq	r0, r0, r0

000091cc <__FUNCTION__.3812>:
    91cc:	65646e75 	strbvs	r6, [r4, #-3701]!	; 0xe75
    91d0:	656e6966 	strbvs	r6, [lr, #-2406]!	; 0x966
    91d4:	6e695f64 	cdpvs	15, 6, cr5, cr9, cr4, {3}
    91d8:	75727473 	ldrbvc	r7, [r2, #-1139]!	; 0x473
    91dc:	6f697463 	svcvs	0x00697463
    91e0:	65765f6e 	ldrbvs	r5, [r6, #-3950]!	; 0xf6e
    91e4:	726f7463 	rsbvc	r7, pc, #1660944384	; 0x63000000
    91e8:	00000000 	andeq	r0, r0, r0

000091ec <__FUNCTION__.3816>:
    91ec:	66657270 			; <UNDEFINED> instruction: 0x66657270
    91f0:	68637465 	stmdavs	r3!, {r0, r2, r5, r6, sl, ip, sp, lr}^
    91f4:	6f62615f 	svcvs	0x0062615f
    91f8:	765f7472 			; <UNDEFINED> instruction: 0x765f7472
    91fc:	6f746365 	svcvs	0x00746365
    9200:	00000072 	andeq	r0, r0, r2, ror r0

00009204 <__FUNCTION__.3820>:
    9204:	61746164 	cmnvs	r4, r4, ror #2
    9208:	6f62615f 	svcvs	0x0062615f
    920c:	765f7472 			; <UNDEFINED> instruction: 0x765f7472
    9210:	6f746365 	svcvs	0x00746365
    9214:	00000072 	andeq	r0, r0, r2, ror r0
    9218:	494e4150 	stmdbmi	lr, {r4, r6, r8, lr}^
    921c:	73253a43 	teqvc	r5, #274432	; 0x43000
    9220:	3a73253a 	bcc	1cd2710 <__bss_end__+0x1cc8df8>
    9224:	453a6425 	ldrmi	r6, [sl, #-1061]!	; 0x425
    9228:	524f5252 	subpl	r5, pc, #536870917	; 0x20000005
    922c:	6e75203a 	mrcvs	0, 3, r2, cr5, cr10, {1}
    9230:	646e6168 	strbtvs	r6, [lr], #-360	; 0x168
    9234:	2064656c 	rsbcs	r6, r4, ip, ror #10
    9238:	65637865 	strbvs	r7, [r3, #-2149]!	; 0x865
    923c:	6f697470 	svcvs	0x00697470
    9240:	253c206e 	ldrcs	r2, [ip, #-110]!	; 0x6e
    9244:	61203e73 	teqvs	r0, r3, ror lr
    9248:	43502074 	cmpmi	r0, #116	; 0x74
    924c:	0a78253d 	beq	1e12748 <__bss_end__+0x1e08e30>
    9250:	0000000a 	andeq	r0, r0, sl
    9254:	65746e69 	ldrbvs	r6, [r4, #-3689]!	; 0xe69
    9258:	70757272 	rsbsvc	r7, r5, r2, ror r2
    925c:	632d7374 	teqvs	sp, #116, 6	; 0xd0000001
    9260:	0000632e 	andeq	r6, r0, lr, lsr #6
    9264:	74736166 	ldrbtvc	r6, [r3], #-358	; 0x166
    9268:	00000000 	andeq	r0, r0, r0
    926c:	74666f73 	strbtvc	r6, [r6], #-3955	; 0xf73
    9270:	746e6920 	strbtvc	r6, [lr], #-2336	; 0x920
    9274:	75727265 	ldrbvc	r7, [r2, #-613]!	; 0x265
    9278:	00007470 	andeq	r7, r0, r0, ror r4
    927c:	65736572 	ldrbvs	r6, [r3, #-1394]!	; 0x572
    9280:	65762074 	ldrbvs	r2, [r6, #-116]!	; 0x74
    9284:	726f7463 	rsbvc	r7, pc, #1660944384	; 0x63000000
    9288:	00000000 	andeq	r0, r0, r0
    928c:	65646e75 	strbvs	r6, [r4, #-3701]!	; 0xe75
    9290:	656e6966 	strbvs	r6, [lr, #-2406]!	; 0x966
    9294:	6e692064 	cdpvs	0, 6, cr2, cr9, cr4, {3}
    9298:	75727473 	ldrbvc	r7, [r2, #-1139]!	; 0x473
    929c:	6f697463 	svcvs	0x00697463
    92a0:	0000006e 	andeq	r0, r0, lr, rrx
    92a4:	66657270 			; <UNDEFINED> instruction: 0x66657270
    92a8:	68637465 	stmdavs	r3!, {r0, r2, r5, r6, sl, ip, sp, lr}^
    92ac:	6f626120 	svcvs	0x00626120
    92b0:	00007472 	andeq	r7, r0, r2, ror r4
    92b4:	61746164 	cmnvs	r4, r4, ror #2
    92b8:	6f626120 	svcvs	0x00626120
    92bc:	00007472 	andeq	r7, r0, r2, ror r4

000092c0 <__FUNCTION__.3816>:
    92c0:	74696d65 	strbtvc	r6, [r9], #-3429	; 0xd65
    92c4:	00000000 	andeq	r0, r0, r0

000092c8 <__FUNCTION__.3831>:
    92c8:	705f6176 	subsvc	r6, pc, r6, ror r1	; <UNPREDICTABLE>
    92cc:	746e6972 	strbtvc	r6, [lr], #-2418	; 0x972
    92d0:	0000006b 	andeq	r0, r0, fp, rrx
    92d4:	494e4150 	stmdbmi	lr, {r4, r6, r8, lr}^
    92d8:	73253a43 	teqvc	r5, #274432	; 0x43000
    92dc:	3a73253a 	bcc	1cd27cc <__bss_end__+0x1cc8eb4>
    92e0:	303a6425 	eorscc	r6, sl, r5, lsr #8
    92e4:	0000000a 	andeq	r0, r0, sl
    92e8:	34317363 	ldrtcc	r7, [r1], #-867	; 0x363
    92ec:	702d6530 	eorvc	r6, sp, r0, lsr r5
    92f0:	746e6972 	strbtvc	r6, [lr], #-2418	; 0x972
    92f4:	00632e66 	rsbeq	r2, r3, r6, ror #28
    92f8:	33323130 	teqcc	r2, #48, 2
    92fc:	37363534 			; <UNDEFINED> instruction: 0x37363534
    9300:	00003938 	andeq	r3, r0, r8, lsr r9
    9304:	33323130 	teqcc	r2, #48, 2
    9308:	37363534 			; <UNDEFINED> instruction: 0x37363534
    930c:	62613938 	rsbvs	r3, r1, #56, 18	; 0xe0000
    9310:	66656463 	strbtvs	r6, [r5], -r3, ror #8
    9314:	00000000 	andeq	r0, r0, r0
    9318:	00003130 	andeq	r3, r0, r0, lsr r1
    931c:	494e4150 	stmdbmi	lr, {r4, r6, r8, lr}^
    9320:	73253a43 	teqvc	r5, #274432	; 0x43000
    9324:	3a73253a 	bcc	1cd2814 <__bss_end__+0x1cc8efc>
    9328:	773a6425 	ldrvc	r6, [sl, -r5, lsr #8]!
    932c:	68746469 	ldmdavs	r4!, {r0, r3, r5, r6, sl, sp, lr}^
    9330:	33203c20 	teqcc	r0, #32, 24	; 0x2000
    9334:	00000a32 	andeq	r0, r0, r2, lsr sl
    9338:	494e4150 	stmdbmi	lr, {r4, r6, r8, lr}^
    933c:	73253a43 	teqvc	r5, #274432	; 0x43000
    9340:	3a73253a 	bcc	1cd2830 <__bss_end__+0x1cc8f18>
    9344:	663a6425 	ldrtvs	r6, [sl], -r5, lsr #8
    9348:	74616f6c 	strbtvc	r6, [r1], #-3948	; 0xf6c
    934c:	746f6e20 	strbtvc	r6, [pc], #-3616	; 9354 <__FUNCTION__.3831+0x8c>
    9350:	616e6520 	cmnvs	lr, r0, lsr #10
    9354:	64656c62 	strbtvs	r6, [r5], #-3170	; 0xc62
    9358:	0a212121 	beq	8517e4 <__bss_end__+0x847ecc>
    935c:	00000000 	andeq	r0, r0, r0
    9360:	494e4150 	stmdbmi	lr, {r4, r6, r8, lr}^
    9364:	73253a43 	teqvc	r5, #274432	; 0x43000
    9368:	3a73253a 	bcc	1cd2858 <__bss_end__+0x1cc8f40>
    936c:	703a6425 	eorsvc	r6, sl, r5, lsr #8
    9370:	746e6972 	strbtvc	r6, [lr], #-2418	; 0x972
    9374:	6e203a6b 	vnmulvs.f32	s6, s0, s23
    9378:	6820746f 	stmdavs	r0!, {r0, r1, r2, r3, r5, r6, sl, ip, sp, lr}
    937c:	6c646e61 	stclvs	14, cr6, [r4], #-388	; 0xfffffe7c
    9380:	20676e69 	rsbcs	r6, r7, r9, ror #28
    9384:	63657073 	cmnvs	r5, #115	; 0x73
    9388:	65696669 	strbvs	r6, [r9, #-1641]!	; 0x669
    938c:	25272072 	strcs	r2, [r7, #-114]!	; 0x72
    9390:	0a0a2763 	beq	293124 <__bss_end__+0x28980c>
    9394:	00000000 	andeq	r0, r0, r0
    9398:	4e41503c 	mcrmi	0, 2, r5, cr1, cr12, {1}
    939c:	3a3e4349 	bcc	f9a0c8 <__bss_end__+0xf907b0>
    93a0:	00000000 	andeq	r0, r0, r0
    93a4:	253a7325 	ldrcs	r7, [sl, #-805]!	; 0x325
    93a8:	50203a64 	eorpl	r3, r0, r4, ror #20
    93ac:	43494e41 	movtmi	r4, #40513	; 0x9e41
    93b0:	4e415020 	cdpmi	0, 4, cr5, cr1, cr0, {1}
    93b4:	50204349 	eorpl	r4, r0, r9, asr #6
    93b8:	43494e41 	movtmi	r4, #40513	; 0x9e41
    93bc:	7325203a 	teqvc	r5, #58	; 0x3a
    93c0:	0000000a 	andeq	r0, r0, sl

000093c4 <__FUNCTION__.3767>:
    93c4:	5f697072 	svcpl	0x00697072
    93c8:	6f626572 	svcvs	0x00626572
    93cc:	0000746f 	andeq	r7, r0, pc, ror #8
    93d0:	494e4150 	stmdbmi	lr, {r4, r6, r8, lr}^
    93d4:	73253a43 	teqvc	r5, #274432	; 0x43000
    93d8:	3a73253a 	bcc	1cd28c8 <__bss_end__+0x1cc8fb0>
    93dc:	613a6425 	teqvs	sl, r5, lsr #8
    93e0:	73755f74 	cmnvc	r5, #116, 30	; 0x1d0
    93e4:	6c5f7265 	lfmvs	f7, 2, [pc], {101}	; 0x65
    93e8:	6c657665 	stclvs	6, cr7, [r5], #-404	; 0xfffffe6c
    93ec:	000a2928 	andeq	r2, sl, r8, lsr #18
    93f0:	34317363 	ldrtcc	r7, [r1], #-867	; 0x363
    93f4:	722d6530 	eorvc	r6, sp, #48, 10	; 0xc000000
    93f8:	6f6f6265 	svcvs	0x006f6265
    93fc:	00632e74 	rsbeq	r2, r3, r4, ror lr
    9400:	454e4f44 	strbmi	r4, [lr, #-3908]	; 0xf44
    9404:	0a212121 	beq	851890 <__bss_end__+0x847f78>
    9408:	00000000 	andeq	r0, r0, r0

0000940c <__FUNCTION__.3784>:
    940c:	5f6d7770 	svcpl	0x006d7770
    9410:	706d6f63 	rsbvc	r6, sp, r3, ror #30
    9414:	00657475 	rsbeq	r7, r5, r5, ror r4

00009418 <__FUNCTION__.3776>:
    9418:	5f746e69 	svcpl	0x00746e69
    941c:	656e696c 	strbvs	r6, [lr, #-2412]!	; 0x96c
    9420:	00000000 	andeq	r0, r0, r0

00009424 <__FUNCTION__.3791>:
    9424:	5f6d7770 	svcpl	0x006d7770
    9428:	6e697270 	mcrvs	2, 3, r7, cr9, cr0, {3}
    942c:	00000074 	andeq	r0, r0, r4, ror r0
    9430:	494e4150 	stmdbmi	lr, {r4, r6, r8, lr}^
    9434:	73253a43 	teqvc	r5, #274432	; 0x43000
    9438:	3a73253a 	bcc	1cd2928 <__bss_end__+0x1cc9010>
    943c:	6f3a6425 	svcvs	0x003a6425
    9440:	6e3d3c6e 	cdpvs	12, 3, cr3, cr13, cr14, {3}
    9444:	0000000a 	andeq	r0, r0, sl
    9448:	34317363 	ldrtcc	r7, [r1], #-867	; 0x363
    944c:	702d6530 	eorvc	r6, sp, r0, lsr r5
    9450:	632e6d77 	teqvs	lr, #7616	; 0x1dc0
    9454:	00000000 	andeq	r0, r0, r0
    9458:	494e4150 	stmdbmi	lr, {r4, r6, r8, lr}^
    945c:	73253a43 	teqvc	r5, #274432	; 0x43000
    9460:	3a73253a 	bcc	1cd2950 <__bss_end__+0x1cc9038>
    9464:	6e3a6425 	cdpvs	4, 3, cr6, cr10, cr5, {1}
    9468:	31783d3d 	cmncc	r8, sp, lsr sp
    946c:	0a31792b 	beq	c67920 <__bss_end__+0xc5e008>
    9470:	00000000 	andeq	r0, r0, r0
    9474:	494e4150 	stmdbmi	lr, {r4, r6, r8, lr}^
    9478:	73253a43 	teqvc	r5, #274432	; 0x43000
    947c:	3a73253a 	bcc	1cd296c <__bss_end__+0x1cc9054>
    9480:	703a6425 	eorsvc	r6, sl, r5, lsr #8
    9484:	3d20736f 	stccc	3, cr7, [r0, #-444]!	; 0xfffffe44
    9488:	0a6e203d 	beq	1b91584 <__bss_end__+0x1b87c6c>
    948c:	00000000 	andeq	r0, r0, r0
    9490:	2d2d2d2d 	stccs	13, cr2, [sp, #-180]!	; 0xffffff4c
    9494:	2d2d2d2d 	stccs	13, cr2, [sp, #-180]!	; 0xffffff4c
    9498:	2d2d2d2d 	stccs	13, cr2, [sp, #-180]!	; 0xffffff4c
    949c:	2d2d2d2d 	stccs	13, cr2, [sp, #-180]!	; 0xffffff4c
    94a0:	2d2d2d2d 	stccs	13, cr2, [sp, #-180]!	; 0xffffff4c
    94a4:	2d2d2d2d 	stccs	13, cr2, [sp, #-180]!	; 0xffffff4c
    94a8:	2d2d2d2d 	stccs	13, cr2, [sp, #-180]!	; 0xffffff4c
    94ac:	2d2d2d2d 	stccs	13, cr2, [sp, #-180]!	; 0xffffff4c
    94b0:	2d2d2d2d 	stccs	13, cr2, [sp, #-180]!	; 0xffffff4c
    94b4:	2d2d2d2d 	stccs	13, cr2, [sp, #-180]!	; 0xffffff4c
    94b8:	2d2d2d2d 	stccs	13, cr2, [sp, #-180]!	; 0xffffff4c
    94bc:	2d2d2d2d 	stccs	13, cr2, [sp, #-180]!	; 0xffffff4c
    94c0:	0000000a 	andeq	r0, r0, sl
    94c4:	64253d6e 	strtvs	r3, [r5], #-3438	; 0xd6e
    94c8:	6e6f202c 	cdpvs	0, 6, cr2, cr15, cr12, {1}
    94cc:	2c64253d 	cfstr64cs	mvdx2, [r4], #-244	; 0xffffff0c
    94d0:	66666f20 	strbtvs	r6, [r6], -r0, lsr #30
    94d4:	0a64253d 	beq	19129d0 <__bss_end__+0x19090b8>
    94d8:	00000000 	andeq	r0, r0, r0
    94dc:	6d777009 	ldclvs	0, cr7, [r7, #-36]!	; 0xffffffdc
    94e0:	5d64255b 	cfstr64pl	mvdx2, [r4, #-364]!	; 0xfffffe94
    94e4:	0a64253d 	beq	19129e0 <__bss_end__+0x19090c8>
    94e8:	00000000 	andeq	r0, r0, r0

Disassembly of section .bss:

000094ec <__bss_start__>:
	...

00009514 <choiceIdx>:
    9514:	00000000 	andeq	r0, r0, r0

00009518 <buf.3858>:
	...

Disassembly of section .comment:

00000000 <.comment>:
   0:	3a434347 	bcc	10d0d24 <__bss_end__+0x10c740c>
   4:	4e472820 	cdpmi	8, 4, cr2, cr7, cr0, {1}
   8:	34202955 	strtcc	r2, [r0], #-2389	; 0x955
   c:	332e382e 	teqcc	lr, #3014656	; 0x2e0000
	...

Disassembly of section .ARM.attributes:

00000000 <.ARM.attributes>:
   0:	00002c41 	andeq	r2, r0, r1, asr #24
   4:	61656100 	cmnvs	r5, r0, lsl #2
   8:	01006962 	tsteq	r0, r2, ror #18
   c:	00000022 	andeq	r0, r0, r2, lsr #32
  10:	4b5a3605 	blmi	168d82c <__bss_end__+0x1683f14>
  14:	08070600 	stmdaeq	r7, {r9, sl}
  18:	12010901 	andne	r0, r1, #16384	; 0x4000
  1c:	15011404 	strne	r1, [r1, #-1028]	; 0x404
  20:	18031701 	stmdane	r3, {r0, r8, r9, sl, ip}
  24:	1e011a01 	vmlane.f32	s2, s2, s2
  28:	44012201 	strmi	r2, [r1], #-513	; 0x201
  2c:	Address 0x000000000000002c is out of bounds.

