
sd.elf:     file format elf32-littlearm


Disassembly of section .text:

00008000 <_start>:
    8000:	e3a0d302 	mov	sp, #134217728	; 0x8000000
    8004:	e3a0b000 	mov	fp, #0
    8008:	eb000fd1 	bl	bf54 <_cstart>
    800c:	eb000f17 	bl	bc70 <rpi_reboot>

00008010 <sec_read>:
    8010:	e92d4070 	push	{r4, r5, r6, lr}
    8014:	e1a06000 	mov	r6, r0
    8018:	e1a04001 	mov	r4, r1
    801c:	e59f002c 	ldr	r0, [pc, #44]	; 8050 <sec_read+0x40>
    8020:	e1a01006 	mov	r1, r6
    8024:	e1a02004 	mov	r2, r4
    8028:	eb000d9b 	bl	b69c <printk>
    802c:	e1a00484 	lsl	r0, r4, #9
    8030:	eb000ff3 	bl	c004 <kmalloc>
    8034:	e1a05000 	mov	r5, r0
    8038:	e1a00006 	mov	r0, r6
    803c:	e1a01005 	mov	r1, r5
    8040:	e1a02004 	mov	r2, r4
    8044:	eb000a97 	bl	aaa8 <sd_readblock>
    8048:	e1a00005 	mov	r0, r5
    804c:	e8bd8070 	pop	{r4, r5, r6, pc}
    8050:	0000c4e0 	andeq	ip, r0, r0, ror #9

00008054 <cluster_to_lba>:
    8054:	e2411002 	sub	r1, r1, #2
    8058:	e5902008 	ldr	r2, [r0, #8]
    805c:	e5900004 	ldr	r0, [r0, #4]
    8060:	e0200192 	mla	r0, r2, r1, r0
    8064:	e12fff1e 	bx	lr

00008068 <fat32_dir_cnt_entries>:
    8068:	e92d40f8 	push	{r3, r4, r5, r6, r7, lr}
    806c:	e1a04000 	mov	r4, r0
    8070:	e2516000 	subs	r6, r1, #0
    8074:	da00000d 	ble	80b0 <fat32_dir_cnt_entries+0x48>
    8078:	e3a05000 	mov	r5, #0
    807c:	e1a07005 	mov	r7, r5
    8080:	e1a00004 	mov	r0, r4
    8084:	eb000747 	bl	9da8 <fat32_dirent_free>
    8088:	e3500000 	cmp	r0, #0
    808c:	1a000002 	bne	809c <fat32_dir_cnt_entries+0x34>
    8090:	e5d4300b 	ldrb	r3, [r4, #11]
    8094:	e353000f 	cmp	r3, #15
    8098:	12877001 	addne	r7, r7, #1
    809c:	e2855001 	add	r5, r5, #1
    80a0:	e2844020 	add	r4, r4, #32
    80a4:	e1550006 	cmp	r5, r6
    80a8:	1afffff4 	bne	8080 <fat32_dir_cnt_entries+0x18>
    80ac:	ea000000 	b	80b4 <fat32_dir_cnt_entries+0x4c>
    80b0:	e3a07000 	mov	r7, #0
    80b4:	e1a00007 	mov	r0, r7
    80b8:	e8bd80f8 	pop	{r3, r4, r5, r6, r7, pc}

000080bc <fat32_to_dirent>:
    80bc:	e92d4ff8 	push	{r3, r4, r5, r6, r7, r8, r9, sl, fp, lr}
    80c0:	e1a0b000 	mov	fp, r0
    80c4:	e1a04002 	mov	r4, r2
    80c8:	e1a06003 	mov	r6, r3
    80cc:	e1a00002 	mov	r0, r2
    80d0:	e1a01003 	mov	r1, r3
    80d4:	ebffffe3 	bl	8068 <fat32_dir_cnt_entries>
    80d8:	e1a08000 	mov	r8, r0
    80dc:	e3a00f45 	mov	r0, #276	; 0x114
    80e0:	e0000890 	mul	r0, r0, r8
    80e4:	eb000fc6 	bl	c004 <kmalloc>
    80e8:	e1a09000 	mov	r9, r0
    80ec:	e0846286 	add	r6, r4, r6, lsl #5
    80f0:	e1540006 	cmp	r4, r6
    80f4:	2a000028 	bcs	819c <fat32_to_dirent+0xe0>
    80f8:	e3a05000 	mov	r5, #0
    80fc:	e3a0af45 	mov	sl, #276	; 0x114
    8100:	e1a00004 	mov	r0, r4
    8104:	eb000727 	bl	9da8 <fat32_dirent_free>
    8108:	e3500000 	cmp	r0, #0
    810c:	1a00001f 	bne	8190 <fat32_to_dirent+0xd4>
    8110:	e2857001 	add	r7, r5, #1
    8114:	e025959a 	mla	r5, sl, r5, r9
    8118:	e1580007 	cmp	r8, r7
    811c:	2a000005 	bcs	8138 <fat32_to_dirent+0x7c>
    8120:	e59f0084 	ldr	r0, [pc, #132]	; 81ac <fat32_to_dirent+0xf0>
    8124:	e59f1084 	ldr	r1, [pc, #132]	; 81b0 <fat32_to_dirent+0xf4>
    8128:	e59f2084 	ldr	r2, [pc, #132]	; 81b4 <fat32_to_dirent+0xf8>
    812c:	e3a0305f 	mov	r3, #95	; 0x5f
    8130:	eb000d59 	bl	b69c <printk>
    8134:	eb000ecd 	bl	bc70 <rpi_reboot>
    8138:	e1a00005 	mov	r0, r5
    813c:	e1a01004 	mov	r1, r4
    8140:	e1a02006 	mov	r2, r6
    8144:	eb000725 	bl	9de0 <fat32_dir_filename>
    8148:	e1a04000 	mov	r4, r0
    814c:	e5d03014 	ldrb	r3, [r0, #20]
    8150:	e5d02015 	ldrb	r2, [r0, #21]
    8154:	e1832402 	orr	r2, r3, r2, lsl #8
    8158:	e5d0301a 	ldrb	r3, [r0, #26]
    815c:	e5d0101b 	ldrb	r1, [r0, #27]
    8160:	e1833401 	orr	r3, r3, r1, lsl #8
    8164:	e1833402 	orr	r3, r3, r2, lsl #8
    8168:	e5853100 	str	r3, [r5, #256]	; 0x100
    816c:	e5d0301c 	ldrb	r3, [r0, #28]
    8170:	e5d0201d 	ldrb	r2, [r0, #29]
    8174:	e1833402 	orr	r3, r3, r2, lsl #8
    8178:	e5d0201e 	ldrb	r2, [r0, #30]
    817c:	e1833802 	orr	r3, r3, r2, lsl #16
    8180:	e5d0201f 	ldrb	r2, [r0, #31]
    8184:	e1833c02 	orr	r3, r3, r2, lsl #24
    8188:	e5853108 	str	r3, [r5, #264]	; 0x108
    818c:	e1a05007 	mov	r5, r7
    8190:	e2844020 	add	r4, r4, #32
    8194:	e1560004 	cmp	r6, r4
    8198:	8affffd8 	bhi	8100 <fat32_to_dirent+0x44>
    819c:	e58b9000 	str	r9, [fp]
    81a0:	e58b8004 	str	r8, [fp, #4]
    81a4:	e1a0000b 	mov	r0, fp
    81a8:	e8bd8ff8 	pop	{r3, r4, r5, r6, r7, r8, r9, sl, fp, pc}
    81ac:	0000c500 	andeq	ip, r0, r0, lsl #10
    81b0:	0000c51c 	andeq	ip, r0, ip, lsl r5
    81b4:	0000c4b8 			; <UNDEFINED> instruction: 0x0000c4b8

000081b8 <fat32_read_file>:
    81b8:	e92d4ff0 	push	{r4, r5, r6, r7, r8, r9, sl, fp, lr}
    81bc:	e24dd00c 	sub	sp, sp, #12
    81c0:	e1a09000 	mov	r9, r0
    81c4:	e1a06001 	mov	r6, r1
    81c8:	e5925100 	ldr	r5, [r2, #256]	; 0x100
    81cc:	e592b108 	ldr	fp, [r2, #264]	; 0x108
    81d0:	e28baf7f 	add	sl, fp, #508	; 0x1fc
    81d4:	e28aa003 	add	sl, sl, #3
    81d8:	e3caaf7f 	bic	sl, sl, #508	; 0x1fc
    81dc:	e3caa003 	bic	sl, sl, #3
    81e0:	e1a074aa 	lsr	r7, sl, #9
    81e4:	e58d7000 	str	r7, [sp]
    81e8:	e59f00c8 	ldr	r0, [pc, #200]	; 82b8 <fat32_read_file+0x100>
    81ec:	e1a01005 	mov	r1, r5
    81f0:	e1a0200b 	mov	r2, fp
    81f4:	e1a0300a 	mov	r3, sl
    81f8:	eb000d27 	bl	b69c <printk>
    81fc:	e1a0000a 	mov	r0, sl
    8200:	eb000f7f 	bl	c004 <kmalloc>
    8204:	e1a08000 	mov	r8, r0
    8208:	e3570000 	cmp	r7, #0
    820c:	da000023 	ble	82a0 <fat32_read_file+0xe8>
    8210:	e3a04000 	mov	r4, #0
    8214:	e5963008 	ldr	r3, [r6, #8]
    8218:	e2450002 	sub	r0, r5, #2
    821c:	e5961004 	ldr	r1, [r6, #4]
    8220:	e0642007 	rsb	r2, r4, r7
    8224:	e0201093 	mla	r0, r3, r0, r1
    8228:	e0881484 	add	r1, r8, r4, lsl #9
    822c:	e1520003 	cmp	r2, r3
    8230:	21a02003 	movcs	r2, r3
    8234:	eb000a1b 	bl	aaa8 <sd_readblock>
    8238:	e2803f7f 	add	r3, r0, #508	; 0x1fc
    823c:	e3500000 	cmp	r0, #0
    8240:	b2830003 	addlt	r0, r3, #3
    8244:	e08444c0 	add	r4, r4, r0, asr #9
    8248:	e5963010 	ldr	r3, [r6, #16]
    824c:	e7935105 	ldr	r5, [r3, r5, lsl #2]
    8250:	e1a00005 	mov	r0, r5
    8254:	eb00055b 	bl	97c8 <fat32_fat_entry_type>
    8258:	e370028f 	cmn	r0, #-268435448	; 0xf0000008
    825c:	1a000007 	bne	8280 <fat32_read_file+0xc8>
    8260:	e1540007 	cmp	r4, r7
    8264:	0a00000d 	beq	82a0 <fat32_read_file+0xe8>
    8268:	e59f004c 	ldr	r0, [pc, #76]	; 82bc <fat32_read_file+0x104>
    826c:	e59f104c 	ldr	r1, [pc, #76]	; 82c0 <fat32_read_file+0x108>
    8270:	e59f204c 	ldr	r2, [pc, #76]	; 82c4 <fat32_read_file+0x10c>
    8274:	e3a0308d 	mov	r3, #141	; 0x8d
    8278:	eb000d07 	bl	b69c <printk>
    827c:	eb000e7b 	bl	bc70 <rpi_reboot>
    8280:	e1570004 	cmp	r7, r4
    8284:	caffffe2 	bgt	8214 <fat32_read_file+0x5c>
    8288:	e59f0038 	ldr	r0, [pc, #56]	; 82c8 <fat32_read_file+0x110>
    828c:	e59f102c 	ldr	r1, [pc, #44]	; 82c0 <fat32_read_file+0x108>
    8290:	e59f202c 	ldr	r2, [pc, #44]	; 82c4 <fat32_read_file+0x10c>
    8294:	e3a03090 	mov	r3, #144	; 0x90
    8298:	eb000cff 	bl	b69c <printk>
    829c:	eb000e73 	bl	bc70 <rpi_reboot>
    82a0:	e5898000 	str	r8, [r9]
    82a4:	e589a004 	str	sl, [r9, #4]
    82a8:	e589b008 	str	fp, [r9, #8]
    82ac:	e1a00009 	mov	r0, r9
    82b0:	e28dd00c 	add	sp, sp, #12
    82b4:	e8bd8ff0 	pop	{r4, r5, r6, r7, r8, r9, sl, fp, pc}
    82b8:	0000c528 	andeq	ip, r0, r8, lsr #10
    82bc:	0000c560 	andeq	ip, r0, r0, ror #10
    82c0:	0000c51c 	andeq	ip, r0, ip, lsl r5
    82c4:	0000c4c8 	andeq	ip, r0, r8, asr #9
    82c8:	0000c58c 	andeq	ip, r0, ip, lsl #11

000082cc <dir_lookup>:
    82cc:	e92d41f0 	push	{r4, r5, r6, r7, r8, lr}
    82d0:	e1a05000 	mov	r5, r0
    82d4:	e1a07001 	mov	r7, r1
    82d8:	e5903004 	ldr	r3, [r0, #4]
    82dc:	e3530000 	cmp	r3, #0
    82e0:	0a00000f 	beq	8324 <dir_lookup+0x58>
    82e4:	e3a03000 	mov	r3, #0
    82e8:	e1a04003 	mov	r4, r3
    82ec:	e3a08f45 	mov	r8, #276	; 0x114
    82f0:	e5956000 	ldr	r6, [r5]
    82f4:	e0266398 	mla	r6, r8, r3, r6
    82f8:	e1a00007 	mov	r0, r7
    82fc:	e1a01006 	mov	r1, r6
    8300:	eb000ed3 	bl	be54 <strcmp>
    8304:	e3500000 	cmp	r0, #0
    8308:	0a000007 	beq	832c <dir_lookup+0x60>
    830c:	e2844001 	add	r4, r4, #1
    8310:	e1a03004 	mov	r3, r4
    8314:	e5952004 	ldr	r2, [r5, #4]
    8318:	e1540002 	cmp	r4, r2
    831c:	3afffff3 	bcc	82f0 <dir_lookup+0x24>
    8320:	ea000003 	b	8334 <dir_lookup+0x68>
    8324:	e3a00000 	mov	r0, #0
    8328:	e8bd81f0 	pop	{r4, r5, r6, r7, r8, pc}
    832c:	e1a00006 	mov	r0, r6
    8330:	e8bd81f0 	pop	{r4, r5, r6, r7, r8, pc}
    8334:	e3a00000 	mov	r0, #0
    8338:	e8bd81f0 	pop	{r4, r5, r6, r7, r8, pc}

0000833c <notmain>:
    833c:	e92d47f0 	push	{r4, r5, r6, r7, r8, r9, sl, lr}
    8340:	e24dd050 	sub	sp, sp, #80	; 0x50
    8344:	eb000f77 	bl	c128 <uart_init>
    8348:	eb000af9 	bl	af34 <sd_init>
    834c:	e3a00000 	mov	r0, #0
    8350:	e3a01001 	mov	r1, #1
    8354:	ebffff2d 	bl	8010 <sec_read>
    8358:	e1a03000 	mov	r3, r0
    835c:	e59f0504 	ldr	r0, [pc, #1284]	; 8868 <notmain+0x52c>
    8360:	e5d311fe 	ldrb	r1, [r3, #510]	; 0x1fe
    8364:	e5d321ff 	ldrb	r2, [r3, #511]	; 0x1ff
    8368:	eb000ccb 	bl	b69c <printk>
    836c:	e59f04f8 	ldr	r0, [pc, #1272]	; 886c <notmain+0x530>
    8370:	eb000cc9 	bl	b69c <printk>
    8374:	e3a00000 	mov	r0, #0
    8378:	e3a01001 	mov	r1, #1
    837c:	ebffff23 	bl	8010 <sec_read>
    8380:	e1a05000 	mov	r5, r0
    8384:	eb000193 	bl	89d8 <fat32_mbr_check>
    8388:	e2854f6f 	add	r4, r5, #444	; 0x1bc
    838c:	e2844002 	add	r4, r4, #2
    8390:	e28d0040 	add	r0, sp, #64	; 0x40
    8394:	e1a01004 	mov	r1, r4
    8398:	e3a02010 	mov	r2, #16
    839c:	eb000e93 	bl	bdf0 <memcpy>
    83a0:	e59f04c8 	ldr	r0, [pc, #1224]	; 8870 <notmain+0x534>
    83a4:	e28d1040 	add	r1, sp, #64	; 0x40
    83a8:	eb000311 	bl	8ff4 <fat32_partition_print>
    83ac:	e5dd3044 	ldrb	r3, [sp, #68]	; 0x44
    83b0:	e243300b 	sub	r3, r3, #11
    83b4:	e3530001 	cmp	r3, #1
    83b8:	9a000005 	bls	83d4 <notmain+0x98>
    83bc:	e59f04b0 	ldr	r0, [pc, #1200]	; 8874 <notmain+0x538>
    83c0:	e59f14b0 	ldr	r1, [pc, #1200]	; 8878 <notmain+0x53c>
    83c4:	e59f24b0 	ldr	r2, [pc, #1200]	; 887c <notmain+0x540>
    83c8:	e3a030c3 	mov	r3, #195	; 0xc3
    83cc:	eb000cb2 	bl	b69c <printk>
    83d0:	eb000e26 	bl	bc70 <rpi_reboot>
    83d4:	e1a00004 	mov	r0, r4
    83d8:	eb000353 	bl	912c <fat32_partition_empty>
    83dc:	e3500000 	cmp	r0, #0
    83e0:	0a000005 	beq	83fc <notmain+0xc0>
    83e4:	e59f0494 	ldr	r0, [pc, #1172]	; 8880 <notmain+0x544>
    83e8:	e59f1488 	ldr	r1, [pc, #1160]	; 8878 <notmain+0x53c>
    83ec:	e59f2488 	ldr	r2, [pc, #1160]	; 887c <notmain+0x540>
    83f0:	e3a030c4 	mov	r3, #196	; 0xc4
    83f4:	eb000ca8 	bl	b69c <printk>
    83f8:	eb000e1c 	bl	bc70 <rpi_reboot>
    83fc:	e2850f73 	add	r0, r5, #460	; 0x1cc
    8400:	e2800002 	add	r0, r0, #2
    8404:	eb000348 	bl	912c <fat32_partition_empty>
    8408:	e3500000 	cmp	r0, #0
    840c:	1a000005 	bne	8428 <notmain+0xec>
    8410:	e59f046c 	ldr	r0, [pc, #1132]	; 8884 <notmain+0x548>
    8414:	e59f145c 	ldr	r1, [pc, #1116]	; 8878 <notmain+0x53c>
    8418:	e59f245c 	ldr	r2, [pc, #1116]	; 887c <notmain+0x540>
    841c:	e3a030c5 	mov	r3, #197	; 0xc5
    8420:	eb000c9d 	bl	b69c <printk>
    8424:	eb000e11 	bl	bc70 <rpi_reboot>
    8428:	e2850f77 	add	r0, r5, #476	; 0x1dc
    842c:	e2800002 	add	r0, r0, #2
    8430:	eb00033d 	bl	912c <fat32_partition_empty>
    8434:	e3500000 	cmp	r0, #0
    8438:	1a000005 	bne	8454 <notmain+0x118>
    843c:	e59f0444 	ldr	r0, [pc, #1092]	; 8888 <notmain+0x54c>
    8440:	e59f1430 	ldr	r1, [pc, #1072]	; 8878 <notmain+0x53c>
    8444:	e59f2430 	ldr	r2, [pc, #1072]	; 887c <notmain+0x540>
    8448:	e3a030c6 	mov	r3, #198	; 0xc6
    844c:	eb000c92 	bl	b69c <printk>
    8450:	eb000e06 	bl	bc70 <rpi_reboot>
    8454:	e2850f7b 	add	r0, r5, #492	; 0x1ec
    8458:	e2800002 	add	r0, r0, #2
    845c:	eb000332 	bl	912c <fat32_partition_empty>
    8460:	e3500000 	cmp	r0, #0
    8464:	1a000005 	bne	8480 <notmain+0x144>
    8468:	e59f041c 	ldr	r0, [pc, #1052]	; 888c <notmain+0x550>
    846c:	e59f1404 	ldr	r1, [pc, #1028]	; 8878 <notmain+0x53c>
    8470:	e59f2404 	ldr	r2, [pc, #1028]	; 887c <notmain+0x540>
    8474:	e3a030c7 	mov	r3, #199	; 0xc7
    8478:	eb000c87 	bl	b69c <printk>
    847c:	eb000dfb 	bl	bc70 <rpi_reboot>
    8480:	e59f0408 	ldr	r0, [pc, #1032]	; 8890 <notmain+0x554>
    8484:	eb000c84 	bl	b69c <printk>
    8488:	e59d0048 	ldr	r0, [sp, #72]	; 0x48
    848c:	e3a01001 	mov	r1, #1
    8490:	ebfffede 	bl	8010 <sec_read>
    8494:	e1a04000 	mov	r4, r0
    8498:	eb000334 	bl	9170 <fat32_volume_id_check>
    849c:	e59f03f0 	ldr	r0, [pc, #1008]	; 8894 <notmain+0x558>
    84a0:	e1a01004 	mov	r1, r4
    84a4:	eb0003b6 	bl	9384 <fat32_volume_id_print>
    84a8:	e59d0048 	ldr	r0, [sp, #72]	; 0x48
    84ac:	e2800001 	add	r0, r0, #1
    84b0:	e3a01001 	mov	r1, #1
    84b4:	ebfffed5 	bl	8010 <sec_read>
    84b8:	e1a05000 	mov	r5, r0
    84bc:	eb000472 	bl	968c <fat32_fsinfo_check>
    84c0:	e59f03d0 	ldr	r0, [pc, #976]	; 8898 <notmain+0x55c>
    84c4:	e1a01005 	mov	r1, r5
    84c8:	eb000453 	bl	961c <fat32_fsinfo_print>
    84cc:	e5d4300e 	ldrb	r3, [r4, #14]
    84d0:	e5d4500f 	ldrb	r5, [r4, #15]
    84d4:	e1835405 	orr	r5, r3, r5, lsl #8
    84d8:	e59d3048 	ldr	r3, [sp, #72]	; 0x48
    84dc:	e0855003 	add	r5, r5, r3
    84e0:	e59f03b4 	ldr	r0, [pc, #948]	; 889c <notmain+0x560>
    84e4:	e1a01005 	mov	r1, r5
    84e8:	eb000c6b 	bl	b69c <printk>
    84ec:	e5d43010 	ldrb	r3, [r4, #16]
    84f0:	e5d42024 	ldrb	r2, [r4, #36]	; 0x24
    84f4:	e5d41025 	ldrb	r1, [r4, #37]	; 0x25
    84f8:	e1822401 	orr	r2, r2, r1, lsl #8
    84fc:	e5d41026 	ldrb	r1, [r4, #38]	; 0x26
    8500:	e1822801 	orr	r2, r2, r1, lsl #16
    8504:	e5d41027 	ldrb	r1, [r4, #39]	; 0x27
    8508:	e1821c01 	orr	r1, r2, r1, lsl #24
    850c:	e0010391 	mul	r1, r1, r3
    8510:	e0818005 	add	r8, r1, r5
    8514:	e5d4700d 	ldrb	r7, [r4, #13]
    8518:	e5d4302c 	ldrb	r3, [r4, #44]	; 0x2c
    851c:	e5d4202d 	ldrb	r2, [r4, #45]	; 0x2d
    8520:	e1833402 	orr	r3, r3, r2, lsl #8
    8524:	e5d4602e 	ldrb	r6, [r4, #46]	; 0x2e
    8528:	e1833806 	orr	r3, r3, r6, lsl #16
    852c:	e5d4602f 	ldrb	r6, [r4, #47]	; 0x2f
    8530:	e1836c06 	orr	r6, r3, r6, lsl #24
    8534:	e1a00005 	mov	r0, r5
    8538:	ebfffeb4 	bl	8010 <sec_read>
    853c:	e5d43010 	ldrb	r3, [r4, #16]
    8540:	e58d5028 	str	r5, [sp, #40]	; 0x28
    8544:	e58d802c 	str	r8, [sp, #44]	; 0x2c
    8548:	e58d7030 	str	r7, [sp, #48]	; 0x30
    854c:	e58d6034 	str	r6, [sp, #52]	; 0x34
    8550:	e58d0038 	str	r0, [sp, #56]	; 0x38
    8554:	e58d303c 	str	r3, [sp, #60]	; 0x3c
    8558:	e59f0340 	ldr	r0, [pc, #832]	; 88a0 <notmain+0x564>
    855c:	eb000c4e 	bl	b69c <printk>
    8560:	e59d5038 	ldr	r5, [sp, #56]	; 0x38
    8564:	e5d43024 	ldrb	r3, [r4, #36]	; 0x24
    8568:	e5d42025 	ldrb	r2, [r4, #37]	; 0x25
    856c:	e1833402 	orr	r3, r3, r2, lsl #8
    8570:	e5d42026 	ldrb	r2, [r4, #38]	; 0x26
    8574:	e1832802 	orr	r2, r3, r2, lsl #16
    8578:	e1a02482 	lsl	r2, r2, #9
    857c:	e1a00005 	mov	r0, r5
    8580:	e0851002 	add	r1, r5, r2
    8584:	eb000e01 	bl	bd90 <memcmp>
    8588:	e3500000 	cmp	r0, #0
    858c:	0a000005 	beq	85a8 <notmain+0x26c>
    8590:	e59f030c 	ldr	r0, [pc, #780]	; 88a4 <notmain+0x568>
    8594:	e59f12dc 	ldr	r1, [pc, #732]	; 8878 <notmain+0x53c>
    8598:	e59f22dc 	ldr	r2, [pc, #732]	; 887c <notmain+0x540>
    859c:	e3a030fb 	mov	r3, #251	; 0xfb
    85a0:	eb000c3d 	bl	b69c <printk>
    85a4:	eb000db1 	bl	bc70 <rpi_reboot>
    85a8:	e59f02f8 	ldr	r0, [pc, #760]	; 88a8 <notmain+0x56c>
    85ac:	eb000c3a 	bl	b69c <printk>
    85b0:	e5950008 	ldr	r0, [r5, #8]
    85b4:	eb000483 	bl	97c8 <fat32_fat_entry_type>
    85b8:	e1a06000 	mov	r6, r0
    85bc:	e5955008 	ldr	r5, [r5, #8]
    85c0:	eb000458 	bl	9728 <fat32_fat_entry_type_str>
    85c4:	e1a02000 	mov	r2, r0
    85c8:	e59f02dc 	ldr	r0, [pc, #732]	; 88ac <notmain+0x570>
    85cc:	e1a01005 	mov	r1, r5
    85d0:	eb000c31 	bl	b69c <printk>
    85d4:	e59f02d4 	ldr	r0, [pc, #724]	; 88b0 <notmain+0x574>
    85d8:	e59d1048 	ldr	r1, [sp, #72]	; 0x48
    85dc:	eb000c2e 	bl	b69c <printk>
    85e0:	e59f02cc 	ldr	r0, [pc, #716]	; 88b4 <notmain+0x578>
    85e4:	e59d102c 	ldr	r1, [sp, #44]	; 0x2c
    85e8:	eb000c2b 	bl	b69c <printk>
    85ec:	e5d4302c 	ldrb	r3, [r4, #44]	; 0x2c
    85f0:	e5d4202d 	ldrb	r2, [r4, #45]	; 0x2d
    85f4:	e1833402 	orr	r3, r3, r2, lsl #8
    85f8:	e5d4202e 	ldrb	r2, [r4, #46]	; 0x2e
    85fc:	e1833802 	orr	r3, r3, r2, lsl #16
    8600:	e5d4202f 	ldrb	r2, [r4, #47]	; 0x2f
    8604:	e1832c02 	orr	r2, r3, r2, lsl #24
    8608:	e2422002 	sub	r2, r2, #2
    860c:	e59f02a4 	ldr	r0, [pc, #676]	; 88b8 <notmain+0x57c>
    8610:	e59d302c 	ldr	r3, [sp, #44]	; 0x2c
    8614:	e59d1030 	ldr	r1, [sp, #48]	; 0x30
    8618:	e0213291 	mla	r1, r1, r2, r3
    861c:	eb000c1e 	bl	b69c <printk>
    8620:	e376028f 	cmn	r6, #-268435448	; 0xf0000008
    8624:	0a000005 	beq	8640 <notmain+0x304>
    8628:	e59f028c 	ldr	r0, [pc, #652]	; 88bc <notmain+0x580>
    862c:	e59f1244 	ldr	r1, [pc, #580]	; 8878 <notmain+0x53c>
    8630:	e59f2244 	ldr	r2, [pc, #580]	; 887c <notmain+0x540>
    8634:	e59f3284 	ldr	r3, [pc, #644]	; 88c0 <notmain+0x584>
    8638:	eb000c17 	bl	b69c <printk>
    863c:	eb000d8b 	bl	bc70 <rpi_reboot>
    8640:	e5d4100d 	ldrb	r1, [r4, #13]
    8644:	e1a06201 	lsl	r6, r1, #4
    8648:	e59d002c 	ldr	r0, [sp, #44]	; 0x2c
    864c:	ebfffe6f 	bl	8010 <sec_read>
    8650:	e1a08000 	mov	r8, r0
    8654:	e3a04000 	mov	r4, #0
    8658:	e59fa264 	ldr	sl, [pc, #612]	; 88c4 <notmain+0x588>
    865c:	e59f9264 	ldr	r9, [pc, #612]	; 88c8 <notmain+0x58c>
    8660:	ea00000d 	b	869c <notmain+0x360>
    8664:	e0885284 	add	r5, r8, r4, lsl #5
    8668:	e1a00005 	mov	r0, r5
    866c:	eb0005cd 	bl	9da8 <fat32_dirent_free>
    8670:	e3500000 	cmp	r0, #0
    8674:	12844001 	addne	r4, r4, #1
    8678:	1a000007 	bne	869c <notmain+0x360>
    867c:	e1a0000a 	mov	r0, sl
    8680:	e1a01004 	mov	r1, r4
    8684:	eb000c04 	bl	b69c <printk>
    8688:	e1a00009 	mov	r0, r9
    868c:	e1a01005 	mov	r1, r5
    8690:	e0672006 	rsb	r2, r7, r6
    8694:	eb00064f 	bl	9fd8 <fat32_dir_print>
    8698:	e0844000 	add	r4, r4, r0
    869c:	e1a07004 	mov	r7, r4
    86a0:	e1560004 	cmp	r6, r4
    86a4:	8affffee 	bhi	8664 <notmain+0x328>
    86a8:	e28d0020 	add	r0, sp, #32
    86ac:	e28d1028 	add	r1, sp, #40	; 0x28
    86b0:	e1a02008 	mov	r2, r8
    86b4:	e1a03006 	mov	r3, r6
    86b8:	ebfffe7f 	bl	80bc <fat32_to_dirent>
    86bc:	e3a04000 	mov	r4, #0
    86c0:	e59f7204 	ldr	r7, [pc, #516]	; 88cc <notmain+0x590>
    86c4:	e59f6204 	ldr	r6, [pc, #516]	; 88d0 <notmain+0x594>
    86c8:	e59f5204 	ldr	r5, [pc, #516]	; 88d4 <notmain+0x598>
    86cc:	ea00000d 	b	8708 <notmain+0x3cc>
    86d0:	e59d3020 	ldr	r3, [sp, #32]
    86d4:	e3a01f45 	mov	r1, #276	; 0x114
    86d8:	e0213491 	mla	r1, r1, r4, r3
    86dc:	e5912100 	ldr	r2, [r1, #256]	; 0x100
    86e0:	e5d13104 	ldrb	r3, [r1, #260]	; 0x104
    86e4:	e2033001 	and	r3, r3, #1
    86e8:	e5910108 	ldr	r0, [r1, #264]	; 0x108
    86ec:	e58d0000 	str	r0, [sp]
    86f0:	e1a00005 	mov	r0, r5
    86f4:	e3530000 	cmp	r3, #0
    86f8:	01a03007 	moveq	r3, r7
    86fc:	11a03006 	movne	r3, r6
    8700:	eb000be5 	bl	b69c <printk>
    8704:	e2844001 	add	r4, r4, #1
    8708:	e59d3024 	ldr	r3, [sp, #36]	; 0x24
    870c:	e1540003 	cmp	r4, r3
    8710:	3affffee 	bcc	86d0 <notmain+0x394>
    8714:	e59f01bc 	ldr	r0, [pc, #444]	; 88d8 <notmain+0x59c>
    8718:	eb000bdf 	bl	b69c <printk>
    871c:	e28d0020 	add	r0, sp, #32
    8720:	e59f11b4 	ldr	r1, [pc, #436]	; 88dc <notmain+0x5a0>
    8724:	ebfffee8 	bl	82cc <dir_lookup>
    8728:	e2504000 	subs	r4, r0, #0
    872c:	1a000005 	bne	8748 <notmain+0x40c>
    8730:	e59f01a8 	ldr	r0, [pc, #424]	; 88e0 <notmain+0x5a4>
    8734:	e59f113c 	ldr	r1, [pc, #316]	; 8878 <notmain+0x53c>
    8738:	e59f213c 	ldr	r2, [pc, #316]	; 887c <notmain+0x540>
    873c:	e3a03f4b 	mov	r3, #300	; 0x12c
    8740:	eb000bd5 	bl	b69c <printk>
    8744:	eb000d49 	bl	bc70 <rpi_reboot>
    8748:	e5942100 	ldr	r2, [r4, #256]	; 0x100
    874c:	e5d4c104 	ldrb	ip, [r4, #260]	; 0x104
    8750:	e20cc001 	and	ip, ip, #1
    8754:	e5943108 	ldr	r3, [r4, #264]	; 0x108
    8758:	e58d3000 	str	r3, [sp]
    875c:	e59f0180 	ldr	r0, [pc, #384]	; 88e4 <notmain+0x5a8>
    8760:	e1a01004 	mov	r1, r4
    8764:	e59f3164 	ldr	r3, [pc, #356]	; 88d0 <notmain+0x594>
    8768:	e59fe15c 	ldr	lr, [pc, #348]	; 88cc <notmain+0x590>
    876c:	e35c0000 	cmp	ip, #0
    8770:	01a0300e 	moveq	r3, lr
    8774:	eb000bc8 	bl	b69c <printk>
    8778:	e59f0168 	ldr	r0, [pc, #360]	; 88e8 <notmain+0x5ac>
    877c:	eb000bc6 	bl	b69c <printk>
    8780:	e59f0164 	ldr	r0, [pc, #356]	; 88ec <notmain+0x5b0>
    8784:	eb000bc4 	bl	b69c <printk>
    8788:	e28d0014 	add	r0, sp, #20
    878c:	e28d1028 	add	r1, sp, #40	; 0x28
    8790:	e1a02004 	mov	r2, r4
    8794:	ebfffe87 	bl	81b8 <fat32_read_file>
    8798:	e3a04000 	mov	r4, #0
    879c:	e59f514c 	ldr	r5, [pc, #332]	; 88f0 <notmain+0x5b4>
    87a0:	ea000004 	b	87b8 <notmain+0x47c>
    87a4:	e1a00005 	mov	r0, r5
    87a8:	e59d3014 	ldr	r3, [sp, #20]
    87ac:	e7d31004 	ldrb	r1, [r3, r4]
    87b0:	eb000bb9 	bl	b69c <printk>
    87b4:	e2844001 	add	r4, r4, #1
    87b8:	e59d301c 	ldr	r3, [sp, #28]
    87bc:	e1540003 	cmp	r4, r3
    87c0:	3afffff7 	bcc	87a4 <notmain+0x468>
    87c4:	e59f0120 	ldr	r0, [pc, #288]	; 88ec <notmain+0x5b0>
    87c8:	eb000bb3 	bl	b69c <printk>
    87cc:	e59f0120 	ldr	r0, [pc, #288]	; 88f4 <notmain+0x5b8>
    87d0:	eb000bb1 	bl	b69c <printk>
    87d4:	e28d0020 	add	r0, sp, #32
    87d8:	e59f1118 	ldr	r1, [pc, #280]	; 88f8 <notmain+0x5bc>
    87dc:	ebfffeba 	bl	82cc <dir_lookup>
    87e0:	e2504000 	subs	r4, r0, #0
    87e4:	1a000005 	bne	8800 <notmain+0x4c4>
    87e8:	e59f010c 	ldr	r0, [pc, #268]	; 88fc <notmain+0x5c0>
    87ec:	e59f1084 	ldr	r1, [pc, #132]	; 8878 <notmain+0x53c>
    87f0:	e59f2084 	ldr	r2, [pc, #132]	; 887c <notmain+0x540>
    87f4:	e59f3104 	ldr	r3, [pc, #260]	; 8900 <notmain+0x5c4>
    87f8:	eb000ba7 	bl	b69c <printk>
    87fc:	eb000d1b 	bl	bc70 <rpi_reboot>
    8800:	e5942100 	ldr	r2, [r4, #256]	; 0x100
    8804:	e5d4c104 	ldrb	ip, [r4, #260]	; 0x104
    8808:	e20cc001 	and	ip, ip, #1
    880c:	e5943108 	ldr	r3, [r4, #264]	; 0x108
    8810:	e58d3000 	str	r3, [sp]
    8814:	e59f00c8 	ldr	r0, [pc, #200]	; 88e4 <notmain+0x5a8>
    8818:	e1a01004 	mov	r1, r4
    881c:	e59f30ac 	ldr	r3, [pc, #172]	; 88d0 <notmain+0x594>
    8820:	e59fe0a4 	ldr	lr, [pc, #164]	; 88cc <notmain+0x590>
    8824:	e35c0000 	cmp	ip, #0
    8828:	01a0300e 	moveq	r3, lr
    882c:	eb000b9a 	bl	b69c <printk>
    8830:	e59f00cc 	ldr	r0, [pc, #204]	; 8904 <notmain+0x5c8>
    8834:	eb000b98 	bl	b69c <printk>
    8838:	e28d0008 	add	r0, sp, #8
    883c:	e28d1028 	add	r1, sp, #40	; 0x28
    8840:	e1a02004 	mov	r2, r4
    8844:	ebfffe5b 	bl	81b8 <fat32_read_file>
    8848:	e59f40b8 	ldr	r4, [pc, #184]	; 8908 <notmain+0x5cc>
    884c:	e1a00004 	mov	r0, r4
    8850:	e59d1008 	ldr	r1, [sp, #8]
    8854:	e59d2010 	ldr	r2, [sp, #16]
    8858:	eb000d64 	bl	bdf0 <memcpy>
    885c:	e1a00004 	mov	r0, r4
    8860:	eb000e5c 	bl	c1d8 <BRANCHTO>
    8864:	eb000d1f 	bl	bce8 <clean_reboot>
    8868:	0000c5c4 	andeq	ip, r0, r4, asr #11
    886c:	0000c608 	andeq	ip, r0, r8, lsl #12
    8870:	0000c61c 	andeq	ip, r0, ip, lsl r6
    8874:	0000c628 	andeq	ip, r0, r8, lsr #12
    8878:	0000c51c 	andeq	ip, r0, ip, lsl r5
    887c:	0000c4d8 	ldrdeq	ip, [r0], -r8
    8880:	0000c650 	andeq	ip, r0, r0, asr r6
    8884:	0000c694 	muleq	r0, r4, r6
    8888:	0000c6d4 	ldrdeq	ip, [r0], -r4
    888c:	0000c714 	andeq	ip, r0, r4, lsl r7
    8890:	0000c754 	andeq	ip, r0, r4, asr r7
    8894:	0000c768 	andeq	ip, r0, r8, ror #14
    8898:	0000c774 	andeq	ip, r0, r4, ror r7
    889c:	0000c780 	andeq	ip, r0, r0, lsl #15
    88a0:	0000c790 	muleq	r0, r0, r7
    88a4:	0000c7d4 	ldrdeq	ip, [r0], -r4
    88a8:	0000c804 	andeq	ip, r0, r4, lsl #16
    88ac:	0000c818 	andeq	ip, r0, r8, lsl r8
    88b0:	0000c830 	andeq	ip, r0, r0, lsr r8
    88b4:	0000c840 	andeq	ip, r0, r0, asr #16
    88b8:	0000c858 	andeq	ip, r0, r8, asr r8
    88bc:	0000c878 	andeq	ip, r0, r8, ror r8
    88c0:	00000109 	andeq	r0, r0, r9, lsl #2
    88c4:	0000c8a0 	andeq	ip, r0, r0, lsr #17
    88c8:	0000c7d0 	ldrdeq	ip, [r0], -r0
    88cc:	0000c5bc 			; <UNDEFINED> instruction: 0x0000c5bc
    88d0:	0000c5b8 			; <UNDEFINED> instruction: 0x0000c5b8
    88d4:	0000c8b8 			; <UNDEFINED> instruction: 0x0000c8b8
    88d8:	0000c8e4 	andeq	ip, r0, r4, ror #17
    88dc:	0000c8f8 	strdeq	ip, [r0], -r8
    88e0:	0000c904 	andeq	ip, r0, r4, lsl #18
    88e4:	0000c918 	andeq	ip, r0, r8, lsl r9
    88e8:	0000c94c 	andeq	ip, r0, ip, asr #18
    88ec:	0000c95c 	andeq	ip, r0, ip, asr r9
    88f0:	0000c998 	muleq	r0, r8, r9
    88f4:	0000c99c 	muleq	r0, ip, r9
    88f8:	0000c9b0 			; <UNDEFINED> instruction: 0x0000c9b0
    88fc:	0000c9cc 	andeq	ip, r0, ip, asr #19
    8900:	0000013b 	andeq	r0, r0, fp, lsr r1
    8904:	0000c9e0 	andeq	ip, r0, r0, ror #19
    8908:	100000f0 	strdne	r0, [r0], -r0	; <UNPREDICTABLE>

0000890c <utf8_append>:
    890c:	e92d41f0 	push	{r4, r5, r6, r7, r8, lr}
    8910:	e1a05000 	mov	r5, r0
    8914:	e1a06001 	mov	r6, r1
    8918:	e1a08002 	mov	r8, r2
    891c:	e3120001 	tst	r2, #1
    8920:	1a000004 	bne	8938 <utf8_append+0x2c>
    8924:	e3520000 	cmp	r2, #0
    8928:	13a03000 	movne	r3, #0
    892c:	11a04003 	movne	r4, r3
    8930:	1a000006 	bne	8950 <utf8_append+0x44>
    8934:	ea000021 	b	89c0 <utf8_append+0xb4>
    8938:	e59f0088 	ldr	r0, [pc, #136]	; 89c8 <utf8_append+0xbc>
    893c:	e59f1088 	ldr	r1, [pc, #136]	; 89cc <utf8_append+0xc0>
    8940:	e59f2088 	ldr	r2, [pc, #136]	; 89d0 <utf8_append+0xc4>
    8944:	e59f3088 	ldr	r3, [pc, #136]	; 89d4 <utf8_append+0xc8>
    8948:	eb000b53 	bl	b69c <printk>
    894c:	eb000cc7 	bl	bc70 <rpi_reboot>
    8950:	e0862003 	add	r2, r6, r3
    8954:	e7d6c003 	ldrb	ip, [r6, r3]
    8958:	e35c0000 	cmp	ip, #0
    895c:	1a000003 	bne	8970 <utf8_append+0x64>
    8960:	e5d22001 	ldrb	r2, [r2, #1]
    8964:	e3520000 	cmp	r2, #0
    8968:	1a000005 	bne	8984 <utf8_append+0x78>
    896c:	ea000013 	b	89c0 <utf8_append+0xb4>
    8970:	e35c00ff 	cmp	ip, #255	; 0xff
    8974:	1a000002 	bne	8984 <utf8_append+0x78>
    8978:	e5d22001 	ldrb	r2, [r2, #1]
    897c:	e35200ff 	cmp	r2, #255	; 0xff
    8980:	0a00000e 	beq	89c0 <utf8_append+0xb4>
    8984:	e0863003 	add	r3, r6, r3
    8988:	e5d30001 	ldrb	r0, [r3, #1]
    898c:	e18c0400 	orr	r0, ip, r0, lsl #8
    8990:	eb0006cf 	bl	a4d4 <to_utf8>
    8994:	e1a07000 	mov	r7, r0
    8998:	e1a00005 	mov	r0, r5
    899c:	e1a01007 	mov	r1, r7
    89a0:	eb000d4d 	bl	bedc <strcat>
    89a4:	e1a00007 	mov	r0, r7
    89a8:	eb000d57 	bl	bf0c <strlen>
    89ac:	e0855000 	add	r5, r5, r0
    89b0:	e2844002 	add	r4, r4, #2
    89b4:	e1a03004 	mov	r3, r4
    89b8:	e1580004 	cmp	r8, r4
    89bc:	8affffe3 	bhi	8950 <utf8_append+0x44>
    89c0:	e1a00005 	mov	r0, r5
    89c4:	e8bd81f0 	pop	{r4, r5, r6, r7, r8, pc}
    89c8:	0000caf8 	strdeq	ip, [r0], -r8
    89cc:	0000cb18 	andeq	ip, r0, r8, lsl fp
    89d0:	0000c9f4 	strdeq	ip, [r0], -r4
    89d4:	00000113 	andeq	r0, r0, r3, lsl r1

000089d8 <fat32_mbr_check>:
    89d8:	e92d4008 	push	{r3, lr}
    89dc:	e59f3024 	ldr	r3, [pc, #36]	; 8a08 <fat32_mbr_check+0x30>
    89e0:	e19020b3 	ldrh	r2, [r0, r3]
    89e4:	e59f3020 	ldr	r3, [pc, #32]	; 8a0c <fat32_mbr_check+0x34>
    89e8:	e1520003 	cmp	r2, r3
    89ec:	08bd8008 	popeq	{r3, pc}
    89f0:	e59f0018 	ldr	r0, [pc, #24]	; 8a10 <fat32_mbr_check+0x38>
    89f4:	e59f1018 	ldr	r1, [pc, #24]	; 8a14 <fat32_mbr_check+0x3c>
    89f8:	e59f2018 	ldr	r2, [pc, #24]	; 8a18 <fat32_mbr_check+0x40>
    89fc:	e3a03009 	mov	r3, #9
    8a00:	eb000b25 	bl	b69c <printk>
    8a04:	eb000c99 	bl	bc70 <rpi_reboot>
    8a08:	000001fe 	strdeq	r0, [r0], -lr
    8a0c:	0000aa55 	andeq	sl, r0, r5, asr sl
    8a10:	0000cb28 	andeq	ip, r0, r8, lsr #22
    8a14:	0000cb18 	andeq	ip, r0, r8, lsl fp
    8a18:	0000ca00 	andeq	ip, r0, r0, lsl #20

00008a1c <fat32_part_str>:
    8a1c:	e52de004 	push	{lr}		; (str lr, [sp, #-4]!)
    8a20:	e24dd00c 	sub	sp, sp, #12
    8a24:	e35000fc 	cmp	r0, #252	; 0xfc
    8a28:	979ff100 	ldrls	pc, [pc, r0, lsl #2]
    8a2c:	ea000140 	b	8f34 <fat32_part_str+0x518>
    8a30:	00008f50 	andeq	r8, r0, r0, asr pc
    8a34:	00008f58 	andeq	r8, r0, r8, asr pc
    8a38:	00008f34 	andeq	r8, r0, r4, lsr pc
    8a3c:	00008f34 	andeq	r8, r0, r4, lsr pc
    8a40:	00008e24 	andeq	r8, r0, r4, lsr #28
    8a44:	00008e2c 	andeq	r8, r0, ip, lsr #28
    8a48:	00008e34 	andeq	r8, r0, r4, lsr lr
    8a4c:	00008e3c 	andeq	r8, r0, ip, lsr lr
    8a50:	00008f34 	andeq	r8, r0, r4, lsr pc
    8a54:	00008f34 	andeq	r8, r0, r4, lsr pc
    8a58:	00008f34 	andeq	r8, r0, r4, lsr pc
    8a5c:	00008e44 	andeq	r8, r0, r4, asr #28
    8a60:	00008e4c 	andeq	r8, r0, ip, asr #28
    8a64:	00008f34 	andeq	r8, r0, r4, lsr pc
    8a68:	00008e54 	andeq	r8, r0, r4, asr lr
    8a6c:	00008e5c 	andeq	r8, r0, ip, asr lr
    8a70:	00008f34 	andeq	r8, r0, r4, lsr pc
    8a74:	00008e64 	andeq	r8, r0, r4, ror #28
    8a78:	00008f34 	andeq	r8, r0, r4, lsr pc
    8a7c:	00008f34 	andeq	r8, r0, r4, lsr pc
    8a80:	00008e6c 	andeq	r8, r0, ip, ror #28
    8a84:	00008f34 	andeq	r8, r0, r4, lsr pc
    8a88:	00008e74 	andeq	r8, r0, r4, ror lr
    8a8c:	00008f34 	andeq	r8, r0, r4, lsr pc
    8a90:	00008f34 	andeq	r8, r0, r4, lsr pc
    8a94:	00008f34 	andeq	r8, r0, r4, lsr pc
    8a98:	00008f34 	andeq	r8, r0, r4, lsr pc
    8a9c:	00008e7c 	andeq	r8, r0, ip, ror lr
    8aa0:	00008e84 	andeq	r8, r0, r4, lsl #29
    8aa4:	00008f34 	andeq	r8, r0, r4, lsr pc
    8aa8:	00008e8c 	andeq	r8, r0, ip, lsl #29
    8aac:	00008f34 	andeq	r8, r0, r4, lsr pc
    8ab0:	00008f34 	andeq	r8, r0, r4, lsr pc
    8ab4:	00008f34 	andeq	r8, r0, r4, lsr pc
    8ab8:	00008f34 	andeq	r8, r0, r4, lsr pc
    8abc:	00008f34 	andeq	r8, r0, r4, lsr pc
    8ac0:	00008f34 	andeq	r8, r0, r4, lsr pc
    8ac4:	00008f34 	andeq	r8, r0, r4, lsr pc
    8ac8:	00008f34 	andeq	r8, r0, r4, lsr pc
    8acc:	00008f34 	andeq	r8, r0, r4, lsr pc
    8ad0:	00008f34 	andeq	r8, r0, r4, lsr pc
    8ad4:	00008f34 	andeq	r8, r0, r4, lsr pc
    8ad8:	00008f34 	andeq	r8, r0, r4, lsr pc
    8adc:	00008f34 	andeq	r8, r0, r4, lsr pc
    8ae0:	00008f34 	andeq	r8, r0, r4, lsr pc
    8ae4:	00008f34 	andeq	r8, r0, r4, lsr pc
    8ae8:	00008f34 	andeq	r8, r0, r4, lsr pc
    8aec:	00008f34 	andeq	r8, r0, r4, lsr pc
    8af0:	00008f34 	andeq	r8, r0, r4, lsr pc
    8af4:	00008f34 	andeq	r8, r0, r4, lsr pc
    8af8:	00008f34 	andeq	r8, r0, r4, lsr pc
    8afc:	00008f34 	andeq	r8, r0, r4, lsr pc
    8b00:	00008f34 	andeq	r8, r0, r4, lsr pc
    8b04:	00008f34 	andeq	r8, r0, r4, lsr pc
    8b08:	00008f34 	andeq	r8, r0, r4, lsr pc
    8b0c:	00008f34 	andeq	r8, r0, r4, lsr pc
    8b10:	00008f34 	andeq	r8, r0, r4, lsr pc
    8b14:	00008f34 	andeq	r8, r0, r4, lsr pc
    8b18:	00008f34 	andeq	r8, r0, r4, lsr pc
    8b1c:	00008f34 	andeq	r8, r0, r4, lsr pc
    8b20:	00008f34 	andeq	r8, r0, r4, lsr pc
    8b24:	00008f34 	andeq	r8, r0, r4, lsr pc
    8b28:	00008f34 	andeq	r8, r0, r4, lsr pc
    8b2c:	00008f34 	andeq	r8, r0, r4, lsr pc
    8b30:	00008f34 	andeq	r8, r0, r4, lsr pc
    8b34:	00008f34 	andeq	r8, r0, r4, lsr pc
    8b38:	00008e94 	muleq	r0, r4, lr
    8b3c:	00008f34 	andeq	r8, r0, r4, lsr pc
    8b40:	00008f34 	andeq	r8, r0, r4, lsr pc
    8b44:	00008f34 	andeq	r8, r0, r4, lsr pc
    8b48:	00008f34 	andeq	r8, r0, r4, lsr pc
    8b4c:	00008f34 	andeq	r8, r0, r4, lsr pc
    8b50:	00008f34 	andeq	r8, r0, r4, lsr pc
    8b54:	00008f34 	andeq	r8, r0, r4, lsr pc
    8b58:	00008f34 	andeq	r8, r0, r4, lsr pc
    8b5c:	00008f34 	andeq	r8, r0, r4, lsr pc
    8b60:	00008f34 	andeq	r8, r0, r4, lsr pc
    8b64:	00008f34 	andeq	r8, r0, r4, lsr pc
    8b68:	00008f34 	andeq	r8, r0, r4, lsr pc
    8b6c:	00008f34 	andeq	r8, r0, r4, lsr pc
    8b70:	00008f34 	andeq	r8, r0, r4, lsr pc
    8b74:	00008f34 	andeq	r8, r0, r4, lsr pc
    8b78:	00008f34 	andeq	r8, r0, r4, lsr pc
    8b7c:	00008f34 	andeq	r8, r0, r4, lsr pc
    8b80:	00008f34 	andeq	r8, r0, r4, lsr pc
    8b84:	00008f34 	andeq	r8, r0, r4, lsr pc
    8b88:	00008f34 	andeq	r8, r0, r4, lsr pc
    8b8c:	00008f34 	andeq	r8, r0, r4, lsr pc
    8b90:	00008f34 	andeq	r8, r0, r4, lsr pc
    8b94:	00008f34 	andeq	r8, r0, r4, lsr pc
    8b98:	00008f34 	andeq	r8, r0, r4, lsr pc
    8b9c:	00008f34 	andeq	r8, r0, r4, lsr pc
    8ba0:	00008f34 	andeq	r8, r0, r4, lsr pc
    8ba4:	00008f34 	andeq	r8, r0, r4, lsr pc
    8ba8:	00008f34 	andeq	r8, r0, r4, lsr pc
    8bac:	00008f34 	andeq	r8, r0, r4, lsr pc
    8bb0:	00008f34 	andeq	r8, r0, r4, lsr pc
    8bb4:	00008f34 	andeq	r8, r0, r4, lsr pc
    8bb8:	00008f34 	andeq	r8, r0, r4, lsr pc
    8bbc:	00008f34 	andeq	r8, r0, r4, lsr pc
    8bc0:	00008f34 	andeq	r8, r0, r4, lsr pc
    8bc4:	00008f34 	andeq	r8, r0, r4, lsr pc
    8bc8:	00008f34 	andeq	r8, r0, r4, lsr pc
    8bcc:	00008f34 	andeq	r8, r0, r4, lsr pc
    8bd0:	00008f34 	andeq	r8, r0, r4, lsr pc
    8bd4:	00008f34 	andeq	r8, r0, r4, lsr pc
    8bd8:	00008f34 	andeq	r8, r0, r4, lsr pc
    8bdc:	00008f34 	andeq	r8, r0, r4, lsr pc
    8be0:	00008f34 	andeq	r8, r0, r4, lsr pc
    8be4:	00008f34 	andeq	r8, r0, r4, lsr pc
    8be8:	00008f34 	andeq	r8, r0, r4, lsr pc
    8bec:	00008f34 	andeq	r8, r0, r4, lsr pc
    8bf0:	00008f34 	andeq	r8, r0, r4, lsr pc
    8bf4:	00008f34 	andeq	r8, r0, r4, lsr pc
    8bf8:	00008f34 	andeq	r8, r0, r4, lsr pc
    8bfc:	00008f34 	andeq	r8, r0, r4, lsr pc
    8c00:	00008f34 	andeq	r8, r0, r4, lsr pc
    8c04:	00008f34 	andeq	r8, r0, r4, lsr pc
    8c08:	00008f34 	andeq	r8, r0, r4, lsr pc
    8c0c:	00008f34 	andeq	r8, r0, r4, lsr pc
    8c10:	00008f34 	andeq	r8, r0, r4, lsr pc
    8c14:	00008f34 	andeq	r8, r0, r4, lsr pc
    8c18:	00008f34 	andeq	r8, r0, r4, lsr pc
    8c1c:	00008f34 	andeq	r8, r0, r4, lsr pc
    8c20:	00008f34 	andeq	r8, r0, r4, lsr pc
    8c24:	00008f34 	andeq	r8, r0, r4, lsr pc
    8c28:	00008f34 	andeq	r8, r0, r4, lsr pc
    8c2c:	00008f34 	andeq	r8, r0, r4, lsr pc
    8c30:	00008f34 	andeq	r8, r0, r4, lsr pc
    8c34:	00008f34 	andeq	r8, r0, r4, lsr pc
    8c38:	00008e9c 	muleq	r0, ip, lr
    8c3c:	00008ea4 	andeq	r8, r0, r4, lsr #29
    8c40:	00008eac 	andeq	r8, r0, ip, lsr #29
    8c44:	00008eb4 			; <UNDEFINED> instruction: 0x00008eb4
    8c48:	00008ebc 			; <UNDEFINED> instruction: 0x00008ebc
    8c4c:	00008ec4 	andeq	r8, r0, r4, asr #29
    8c50:	00008f34 	andeq	r8, r0, r4, lsr pc
    8c54:	00008f34 	andeq	r8, r0, r4, lsr pc
    8c58:	00008f34 	andeq	r8, r0, r4, lsr pc
    8c5c:	00008f34 	andeq	r8, r0, r4, lsr pc
    8c60:	00008f34 	andeq	r8, r0, r4, lsr pc
    8c64:	00008f34 	andeq	r8, r0, r4, lsr pc
    8c68:	00008f34 	andeq	r8, r0, r4, lsr pc
    8c6c:	00008f34 	andeq	r8, r0, r4, lsr pc
    8c70:	00008f34 	andeq	r8, r0, r4, lsr pc
    8c74:	00008f34 	andeq	r8, r0, r4, lsr pc
    8c78:	00008f34 	andeq	r8, r0, r4, lsr pc
    8c7c:	00008f34 	andeq	r8, r0, r4, lsr pc
    8c80:	00008f34 	andeq	r8, r0, r4, lsr pc
    8c84:	00008f34 	andeq	r8, r0, r4, lsr pc
    8c88:	00008f34 	andeq	r8, r0, r4, lsr pc
    8c8c:	00008f34 	andeq	r8, r0, r4, lsr pc
    8c90:	00008f34 	andeq	r8, r0, r4, lsr pc
    8c94:	00008f34 	andeq	r8, r0, r4, lsr pc
    8c98:	00008f34 	andeq	r8, r0, r4, lsr pc
    8c9c:	00008f34 	andeq	r8, r0, r4, lsr pc
    8ca0:	00008f34 	andeq	r8, r0, r4, lsr pc
    8ca4:	00008f34 	andeq	r8, r0, r4, lsr pc
    8ca8:	00008f34 	andeq	r8, r0, r4, lsr pc
    8cac:	00008f34 	andeq	r8, r0, r4, lsr pc
    8cb0:	00008ecc 	andeq	r8, r0, ip, asr #29
    8cb4:	00008ed4 	ldrdeq	r8, [r0], -r4
    8cb8:	00008f34 	andeq	r8, r0, r4, lsr pc
    8cbc:	00008f34 	andeq	r8, r0, r4, lsr pc
    8cc0:	00008f34 	andeq	r8, r0, r4, lsr pc
    8cc4:	00008edc 	ldrdeq	r8, [r0], -ip
    8cc8:	00008ee4 	andeq	r8, r0, r4, ror #29
    8ccc:	00008f34 	andeq	r8, r0, r4, lsr pc
    8cd0:	00008eec 	andeq	r8, r0, ip, ror #29
    8cd4:	00008ef4 	strdeq	r8, [r0], -r4
    8cd8:	00008f34 	andeq	r8, r0, r4, lsr pc
    8cdc:	00008efc 	strdeq	r8, [r0], -ip
    8ce0:	00008f34 	andeq	r8, r0, r4, lsr pc
    8ce4:	00008f34 	andeq	r8, r0, r4, lsr pc
    8ce8:	00008f34 	andeq	r8, r0, r4, lsr pc
    8cec:	00008f34 	andeq	r8, r0, r4, lsr pc
    8cf0:	00008f34 	andeq	r8, r0, r4, lsr pc
    8cf4:	00008f34 	andeq	r8, r0, r4, lsr pc
    8cf8:	00008f34 	andeq	r8, r0, r4, lsr pc
    8cfc:	00008f34 	andeq	r8, r0, r4, lsr pc
    8d00:	00008f34 	andeq	r8, r0, r4, lsr pc
    8d04:	00008f34 	andeq	r8, r0, r4, lsr pc
    8d08:	00008f34 	andeq	r8, r0, r4, lsr pc
    8d0c:	00008f04 	andeq	r8, r0, r4, lsl #30
    8d10:	00008f0c 	andeq	r8, r0, ip, lsl #30
    8d14:	00008f34 	andeq	r8, r0, r4, lsr pc
    8d18:	00008f34 	andeq	r8, r0, r4, lsr pc
    8d1c:	00008f34 	andeq	r8, r0, r4, lsr pc
    8d20:	00008f34 	andeq	r8, r0, r4, lsr pc
    8d24:	00008f34 	andeq	r8, r0, r4, lsr pc
    8d28:	00008f34 	andeq	r8, r0, r4, lsr pc
    8d2c:	00008f34 	andeq	r8, r0, r4, lsr pc
    8d30:	00008f34 	andeq	r8, r0, r4, lsr pc
    8d34:	00008f34 	andeq	r8, r0, r4, lsr pc
    8d38:	00008f34 	andeq	r8, r0, r4, lsr pc
    8d3c:	00008f34 	andeq	r8, r0, r4, lsr pc
    8d40:	00008f34 	andeq	r8, r0, r4, lsr pc
    8d44:	00008f34 	andeq	r8, r0, r4, lsr pc
    8d48:	00008f34 	andeq	r8, r0, r4, lsr pc
    8d4c:	00008f34 	andeq	r8, r0, r4, lsr pc
    8d50:	00008f34 	andeq	r8, r0, r4, lsr pc
    8d54:	00008f34 	andeq	r8, r0, r4, lsr pc
    8d58:	00008f34 	andeq	r8, r0, r4, lsr pc
    8d5c:	00008f34 	andeq	r8, r0, r4, lsr pc
    8d60:	00008f34 	andeq	r8, r0, r4, lsr pc
    8d64:	00008f34 	andeq	r8, r0, r4, lsr pc
    8d68:	00008f34 	andeq	r8, r0, r4, lsr pc
    8d6c:	00008f34 	andeq	r8, r0, r4, lsr pc
    8d70:	00008f34 	andeq	r8, r0, r4, lsr pc
    8d74:	00008f34 	andeq	r8, r0, r4, lsr pc
    8d78:	00008f34 	andeq	r8, r0, r4, lsr pc
    8d7c:	00008f34 	andeq	r8, r0, r4, lsr pc
    8d80:	00008f34 	andeq	r8, r0, r4, lsr pc
    8d84:	00008f34 	andeq	r8, r0, r4, lsr pc
    8d88:	00008f34 	andeq	r8, r0, r4, lsr pc
    8d8c:	00008f34 	andeq	r8, r0, r4, lsr pc
    8d90:	00008f34 	andeq	r8, r0, r4, lsr pc
    8d94:	00008f34 	andeq	r8, r0, r4, lsr pc
    8d98:	00008f34 	andeq	r8, r0, r4, lsr pc
    8d9c:	00008f34 	andeq	r8, r0, r4, lsr pc
    8da0:	00008f34 	andeq	r8, r0, r4, lsr pc
    8da4:	00008f34 	andeq	r8, r0, r4, lsr pc
    8da8:	00008f34 	andeq	r8, r0, r4, lsr pc
    8dac:	00008f34 	andeq	r8, r0, r4, lsr pc
    8db0:	00008f34 	andeq	r8, r0, r4, lsr pc
    8db4:	00008f34 	andeq	r8, r0, r4, lsr pc
    8db8:	00008f34 	andeq	r8, r0, r4, lsr pc
    8dbc:	00008f34 	andeq	r8, r0, r4, lsr pc
    8dc0:	00008f34 	andeq	r8, r0, r4, lsr pc
    8dc4:	00008f34 	andeq	r8, r0, r4, lsr pc
    8dc8:	00008f34 	andeq	r8, r0, r4, lsr pc
    8dcc:	00008f34 	andeq	r8, r0, r4, lsr pc
    8dd0:	00008f34 	andeq	r8, r0, r4, lsr pc
    8dd4:	00008f34 	andeq	r8, r0, r4, lsr pc
    8dd8:	00008f34 	andeq	r8, r0, r4, lsr pc
    8ddc:	00008f34 	andeq	r8, r0, r4, lsr pc
    8de0:	00008f34 	andeq	r8, r0, r4, lsr pc
    8de4:	00008f34 	andeq	r8, r0, r4, lsr pc
    8de8:	00008f14 	andeq	r8, r0, r4, lsl pc
    8dec:	00008f1c 	andeq	r8, r0, ip, lsl pc
    8df0:	00008f34 	andeq	r8, r0, r4, lsr pc
    8df4:	00008f34 	andeq	r8, r0, r4, lsr pc
    8df8:	00008f34 	andeq	r8, r0, r4, lsr pc
    8dfc:	00008f34 	andeq	r8, r0, r4, lsr pc
    8e00:	00008f34 	andeq	r8, r0, r4, lsr pc
    8e04:	00008f34 	andeq	r8, r0, r4, lsr pc
    8e08:	00008f34 	andeq	r8, r0, r4, lsr pc
    8e0c:	00008f34 	andeq	r8, r0, r4, lsr pc
    8e10:	00008f34 	andeq	r8, r0, r4, lsr pc
    8e14:	00008f34 	andeq	r8, r0, r4, lsr pc
    8e18:	00008f34 	andeq	r8, r0, r4, lsr pc
    8e1c:	00008f24 	andeq	r8, r0, r4, lsr #30
    8e20:	00008f2c 	andeq	r8, r0, ip, lsr #30
    8e24:	e59f0138 	ldr	r0, [pc, #312]	; 8f64 <fat32_part_str+0x548>
    8e28:	ea00004b 	b	8f5c <fat32_part_str+0x540>
    8e2c:	e59f0134 	ldr	r0, [pc, #308]	; 8f68 <fat32_part_str+0x54c>
    8e30:	ea000049 	b	8f5c <fat32_part_str+0x540>
    8e34:	e59f0130 	ldr	r0, [pc, #304]	; 8f6c <fat32_part_str+0x550>
    8e38:	ea000047 	b	8f5c <fat32_part_str+0x540>
    8e3c:	e59f012c 	ldr	r0, [pc, #300]	; 8f70 <fat32_part_str+0x554>
    8e40:	ea000045 	b	8f5c <fat32_part_str+0x540>
    8e44:	e59f0128 	ldr	r0, [pc, #296]	; 8f74 <fat32_part_str+0x558>
    8e48:	ea000043 	b	8f5c <fat32_part_str+0x540>
    8e4c:	e59f0124 	ldr	r0, [pc, #292]	; 8f78 <fat32_part_str+0x55c>
    8e50:	ea000041 	b	8f5c <fat32_part_str+0x540>
    8e54:	e59f0120 	ldr	r0, [pc, #288]	; 8f7c <fat32_part_str+0x560>
    8e58:	ea00003f 	b	8f5c <fat32_part_str+0x540>
    8e5c:	e59f011c 	ldr	r0, [pc, #284]	; 8f80 <fat32_part_str+0x564>
    8e60:	ea00003d 	b	8f5c <fat32_part_str+0x540>
    8e64:	e59f0118 	ldr	r0, [pc, #280]	; 8f84 <fat32_part_str+0x568>
    8e68:	ea00003b 	b	8f5c <fat32_part_str+0x540>
    8e6c:	e59f0114 	ldr	r0, [pc, #276]	; 8f88 <fat32_part_str+0x56c>
    8e70:	ea000039 	b	8f5c <fat32_part_str+0x540>
    8e74:	e59f0110 	ldr	r0, [pc, #272]	; 8f8c <fat32_part_str+0x570>
    8e78:	ea000037 	b	8f5c <fat32_part_str+0x540>
    8e7c:	e59f010c 	ldr	r0, [pc, #268]	; 8f90 <fat32_part_str+0x574>
    8e80:	ea000035 	b	8f5c <fat32_part_str+0x540>
    8e84:	e59f0108 	ldr	r0, [pc, #264]	; 8f94 <fat32_part_str+0x578>
    8e88:	ea000033 	b	8f5c <fat32_part_str+0x540>
    8e8c:	e59f0104 	ldr	r0, [pc, #260]	; 8f98 <fat32_part_str+0x57c>
    8e90:	ea000031 	b	8f5c <fat32_part_str+0x540>
    8e94:	e59f0100 	ldr	r0, [pc, #256]	; 8f9c <fat32_part_str+0x580>
    8e98:	ea00002f 	b	8f5c <fat32_part_str+0x540>
    8e9c:	e59f00fc 	ldr	r0, [pc, #252]	; 8fa0 <fat32_part_str+0x584>
    8ea0:	ea00002d 	b	8f5c <fat32_part_str+0x540>
    8ea4:	e59f00f8 	ldr	r0, [pc, #248]	; 8fa4 <fat32_part_str+0x588>
    8ea8:	ea00002b 	b	8f5c <fat32_part_str+0x540>
    8eac:	e59f00f4 	ldr	r0, [pc, #244]	; 8fa8 <fat32_part_str+0x58c>
    8eb0:	ea000029 	b	8f5c <fat32_part_str+0x540>
    8eb4:	e59f00f0 	ldr	r0, [pc, #240]	; 8fac <fat32_part_str+0x590>
    8eb8:	ea000027 	b	8f5c <fat32_part_str+0x540>
    8ebc:	e59f00ec 	ldr	r0, [pc, #236]	; 8fb0 <fat32_part_str+0x594>
    8ec0:	ea000025 	b	8f5c <fat32_part_str+0x540>
    8ec4:	e59f00e4 	ldr	r0, [pc, #228]	; 8fb0 <fat32_part_str+0x594>
    8ec8:	ea000023 	b	8f5c <fat32_part_str+0x540>
    8ecc:	e59f00d4 	ldr	r0, [pc, #212]	; 8fa8 <fat32_part_str+0x58c>
    8ed0:	ea000021 	b	8f5c <fat32_part_str+0x540>
    8ed4:	e59f00cc 	ldr	r0, [pc, #204]	; 8fa8 <fat32_part_str+0x58c>
    8ed8:	ea00001f 	b	8f5c <fat32_part_str+0x540>
    8edc:	e59f00d0 	ldr	r0, [pc, #208]	; 8fb4 <fat32_part_str+0x598>
    8ee0:	ea00001d 	b	8f5c <fat32_part_str+0x540>
    8ee4:	e59f00cc 	ldr	r0, [pc, #204]	; 8fb8 <fat32_part_str+0x59c>
    8ee8:	ea00001b 	b	8f5c <fat32_part_str+0x540>
    8eec:	e59f00c8 	ldr	r0, [pc, #200]	; 8fbc <fat32_part_str+0x5a0>
    8ef0:	ea000019 	b	8f5c <fat32_part_str+0x540>
    8ef4:	e59f00c4 	ldr	r0, [pc, #196]	; 8fc0 <fat32_part_str+0x5a4>
    8ef8:	ea000017 	b	8f5c <fat32_part_str+0x540>
    8efc:	e59f00c0 	ldr	r0, [pc, #192]	; 8fc4 <fat32_part_str+0x5a8>
    8f00:	ea000015 	b	8f5c <fat32_part_str+0x540>
    8f04:	e59f00bc 	ldr	r0, [pc, #188]	; 8fc8 <fat32_part_str+0x5ac>
    8f08:	ea000013 	b	8f5c <fat32_part_str+0x540>
    8f0c:	e59f00b8 	ldr	r0, [pc, #184]	; 8fcc <fat32_part_str+0x5b0>
    8f10:	ea000011 	b	8f5c <fat32_part_str+0x540>
    8f14:	e59f00b4 	ldr	r0, [pc, #180]	; 8fd0 <fat32_part_str+0x5b4>
    8f18:	ea00000f 	b	8f5c <fat32_part_str+0x540>
    8f1c:	e59f00b0 	ldr	r0, [pc, #176]	; 8fd4 <fat32_part_str+0x5b8>
    8f20:	ea00000d 	b	8f5c <fat32_part_str+0x540>
    8f24:	e59f00ac 	ldr	r0, [pc, #172]	; 8fd8 <fat32_part_str+0x5bc>
    8f28:	ea00000b 	b	8f5c <fat32_part_str+0x540>
    8f2c:	e59f00a8 	ldr	r0, [pc, #168]	; 8fdc <fat32_part_str+0x5c0>
    8f30:	ea000009 	b	8f5c <fat32_part_str+0x540>
    8f34:	e58d0000 	str	r0, [sp]
    8f38:	e59f00a0 	ldr	r0, [pc, #160]	; 8fe0 <fat32_part_str+0x5c4>
    8f3c:	e59f10a0 	ldr	r1, [pc, #160]	; 8fe4 <fat32_part_str+0x5c8>
    8f40:	e59f20a0 	ldr	r2, [pc, #160]	; 8fe8 <fat32_part_str+0x5cc>
    8f44:	e3a0303f 	mov	r3, #63	; 0x3f
    8f48:	eb0009d3 	bl	b69c <printk>
    8f4c:	eb000b47 	bl	bc70 <rpi_reboot>
    8f50:	e59f0094 	ldr	r0, [pc, #148]	; 8fec <fat32_part_str+0x5d0>
    8f54:	ea000000 	b	8f5c <fat32_part_str+0x540>
    8f58:	e59f0090 	ldr	r0, [pc, #144]	; 8ff0 <fat32_part_str+0x5d4>
    8f5c:	e28dd00c 	add	sp, sp, #12
    8f60:	e49df004 	pop	{pc}		; (ldr pc, [sp], #4)
    8f64:	0000cb64 	andeq	ip, r0, r4, ror #22
    8f68:	0000cb7c 	andeq	ip, r0, ip, ror fp
    8f6c:	0000cb98 	muleq	r0, r8, fp
    8f70:	0000cbb4 			; <UNDEFINED> instruction: 0x0000cbb4
    8f74:	0000cbbc 			; <UNDEFINED> instruction: 0x0000cbbc
    8f78:	0000cbc8 	andeq	ip, r0, r8, asr #23
    8f7c:	0000cbd4 	ldrdeq	ip, [r0], -r4
    8f80:	0000cbf0 	strdeq	ip, [r0], -r0
    8f84:	0000cc0c 	andeq	ip, r0, ip, lsl #24
    8f88:	0000cc20 	andeq	ip, r0, r0, lsr #24
    8f8c:	0000cc40 	andeq	ip, r0, r0, asr #24
    8f90:	0000cc60 	andeq	ip, r0, r0, ror #24
    8f94:	0000cc74 	andeq	ip, r0, r4, ror ip
    8f98:	0000cc88 	andeq	ip, r0, r8, lsl #25
    8f9c:	0000cca8 	andeq	ip, r0, r8, lsr #25
    8fa0:	0000ccc8 	andeq	ip, r0, r8, asr #25
    8fa4:	0000cce4 	andeq	ip, r0, r4, ror #25
    8fa8:	0000ccec 	andeq	ip, r0, ip, ror #25
    8fac:	0000ccf8 	strdeq	ip, [r0], -r8
    8fb0:	0000cd08 	andeq	ip, r0, r8, lsl #26
    8fb4:	0000cd18 	andeq	ip, r0, r8, lsl sp
    8fb8:	0000cd20 	andeq	ip, r0, r0, lsr #26
    8fbc:	0000cd28 	andeq	ip, r0, r8, lsr #26
    8fc0:	0000cd30 	andeq	ip, r0, r0, lsr sp
    8fc4:	0000cd38 	andeq	ip, r0, r8, lsr sp
    8fc8:	0000cd48 	andeq	ip, r0, r8, asr #26
    8fcc:	0000cd50 	andeq	ip, r0, r0, asr sp
    8fd0:	0000cd5c 	andeq	ip, r0, ip, asr sp
    8fd4:	0000cd6c 	andeq	ip, r0, ip, ror #26
    8fd8:	0000cd84 	andeq	ip, r0, r4, lsl #27
    8fdc:	0000cd98 	muleq	r0, r8, sp
    8fe0:	0000cda4 	andeq	ip, r0, r4, lsr #27
    8fe4:	0000cb18 	andeq	ip, r0, r8, lsl fp
    8fe8:	0000ca10 	andeq	ip, r0, r0, lsl sl
    8fec:	0000cb50 	andeq	ip, r0, r0, asr fp
    8ff0:	0000cb58 	andeq	ip, r0, r8, asr fp

00008ff4 <fat32_partition_print>:
    8ff4:	e92d4038 	push	{r3, r4, r5, lr}
    8ff8:	e1a03000 	mov	r3, r0
    8ffc:	e1a04001 	mov	r4, r1
    9000:	e59f00f4 	ldr	r0, [pc, #244]	; 90fc <fat32_partition_print+0x108>
    9004:	e1a01003 	mov	r1, r3
    9008:	eb0009a3 	bl	b69c <printk>
    900c:	e5d41000 	ldrb	r1, [r4]
    9010:	e59f00e8 	ldr	r0, [pc, #232]	; 9100 <fat32_partition_print+0x10c>
    9014:	e59f30e8 	ldr	r3, [pc, #232]	; 9104 <fat32_partition_print+0x110>
    9018:	e59f20e8 	ldr	r2, [pc, #232]	; 9108 <fat32_partition_print+0x114>
    901c:	e3510000 	cmp	r1, #0
    9020:	01a01002 	moveq	r1, r2
    9024:	11a01003 	movne	r1, r3
    9028:	eb00099b 	bl	b69c <printk>
    902c:	e5d43001 	ldrb	r3, [r4, #1]
    9030:	e5d42002 	ldrb	r2, [r4, #2]
    9034:	e1833402 	orr	r3, r3, r2, lsl #8
    9038:	e5d41003 	ldrb	r1, [r4, #3]
    903c:	e59f00c8 	ldr	r0, [pc, #200]	; 910c <fat32_partition_print+0x118>
    9040:	e1831801 	orr	r1, r3, r1, lsl #16
    9044:	eb000994 	bl	b69c <printk>
    9048:	e5d45004 	ldrb	r5, [r4, #4]
    904c:	e1a00005 	mov	r0, r5
    9050:	ebfffe71 	bl	8a1c <fat32_part_str>
    9054:	e1a02000 	mov	r2, r0
    9058:	e59f00b0 	ldr	r0, [pc, #176]	; 9110 <fat32_partition_print+0x11c>
    905c:	e1a01005 	mov	r1, r5
    9060:	eb00098d 	bl	b69c <printk>
    9064:	e5d43005 	ldrb	r3, [r4, #5]
    9068:	e5d42006 	ldrb	r2, [r4, #6]
    906c:	e1833402 	orr	r3, r3, r2, lsl #8
    9070:	e5d41007 	ldrb	r1, [r4, #7]
    9074:	e59f0098 	ldr	r0, [pc, #152]	; 9114 <fat32_partition_print+0x120>
    9078:	e1831801 	orr	r1, r3, r1, lsl #16
    907c:	eb000986 	bl	b69c <printk>
    9080:	e5d43008 	ldrb	r3, [r4, #8]
    9084:	e5d42009 	ldrb	r2, [r4, #9]
    9088:	e1833402 	orr	r3, r3, r2, lsl #8
    908c:	e5d4200a 	ldrb	r2, [r4, #10]
    9090:	e1833802 	orr	r3, r3, r2, lsl #16
    9094:	e5d4100b 	ldrb	r1, [r4, #11]
    9098:	e59f0078 	ldr	r0, [pc, #120]	; 9118 <fat32_partition_print+0x124>
    909c:	e1831c01 	orr	r1, r3, r1, lsl #24
    90a0:	eb00097d 	bl	b69c <printk>
    90a4:	e5d4300c 	ldrb	r3, [r4, #12]
    90a8:	e5d4200d 	ldrb	r2, [r4, #13]
    90ac:	e1832402 	orr	r2, r3, r2, lsl #8
    90b0:	e5d4300e 	ldrb	r3, [r4, #14]
    90b4:	e1822803 	orr	r2, r2, r3, lsl #16
    90b8:	e5d4300f 	ldrb	r3, [r4, #15]
    90bc:	e1822c03 	orr	r2, r2, r3, lsl #24
    90c0:	e59f0054 	ldr	r0, [pc, #84]	; 911c <fat32_partition_print+0x128>
    90c4:	e1a01002 	mov	r1, r2
    90c8:	e1a02aa2 	lsr	r2, r2, #21
    90cc:	eb000972 	bl	b69c <printk>
    90d0:	e5d43004 	ldrb	r3, [r4, #4]
    90d4:	e243300b 	sub	r3, r3, #11
    90d8:	e6ef3073 	uxtb	r3, r3
    90dc:	e3530001 	cmp	r3, #1
    90e0:	98bd8038 	popls	{r3, r4, r5, pc}
    90e4:	e59f0034 	ldr	r0, [pc, #52]	; 9120 <fat32_partition_print+0x12c>
    90e8:	e59f1034 	ldr	r1, [pc, #52]	; 9124 <fat32_partition_print+0x130>
    90ec:	e59f2034 	ldr	r2, [pc, #52]	; 9128 <fat32_partition_print+0x134>
    90f0:	e3a03014 	mov	r3, #20
    90f4:	eb000968 	bl	b69c <printk>
    90f8:	eb000adc 	bl	bc70 <rpi_reboot>
    90fc:	0000cdd8 	ldrdeq	ip, [r0], -r8
    9100:	0000cde0 	andeq	ip, r0, r0, ror #27
    9104:	0000cdc8 	andeq	ip, r0, r8, asr #27
    9108:	0000cdd0 	ldrdeq	ip, [r0], -r0
    910c:	0000cdf4 	strdeq	ip, [r0], -r4
    9110:	0000ce08 	andeq	ip, r0, r8, lsl #28
    9114:	0000ce20 	andeq	ip, r0, r0, lsr #28
    9118:	0000ce34 	andeq	ip, r0, r4, lsr lr
    911c:	0000ce48 	andeq	ip, r0, r8, asr #28
    9120:	0000ce60 	andeq	ip, r0, r0, ror #28
    9124:	0000cb18 	andeq	ip, r0, r8, lsl fp
    9128:	0000ca20 	andeq	ip, r0, r0, lsr #20

0000912c <fat32_partition_empty>:
    912c:	e5d03000 	ldrb	r3, [r0]
    9130:	e3530000 	cmp	r3, #0
    9134:	1a000007 	bne	9158 <fat32_partition_empty+0x2c>
    9138:	e3a03001 	mov	r3, #1
    913c:	e5f02001 	ldrb	r2, [r0, #1]!
    9140:	e3520000 	cmp	r2, #0
    9144:	1a000005 	bne	9160 <fat32_partition_empty+0x34>
    9148:	e2833001 	add	r3, r3, #1
    914c:	e3530010 	cmp	r3, #16
    9150:	1afffff9 	bne	913c <fat32_partition_empty+0x10>
    9154:	ea000003 	b	9168 <fat32_partition_empty+0x3c>
    9158:	e3a00000 	mov	r0, #0
    915c:	e12fff1e 	bx	lr
    9160:	e3a00000 	mov	r0, #0
    9164:	e12fff1e 	bx	lr
    9168:	e3a00001 	mov	r0, #1
    916c:	e12fff1e 	bx	lr

00009170 <fat32_volume_id_check>:
    9170:	e92d4008 	push	{r3, lr}
    9174:	e5d0300b 	ldrb	r3, [r0, #11]
    9178:	e5d0200c 	ldrb	r2, [r0, #12]
    917c:	e1833402 	orr	r3, r3, r2, lsl #8
    9180:	e3530c02 	cmp	r3, #512	; 0x200
    9184:	0a000005 	beq	91a0 <fat32_volume_id_check+0x30>
    9188:	e59f01bc 	ldr	r0, [pc, #444]	; 934c <fat32_volume_id_check+0x1dc>
    918c:	e59f11bc 	ldr	r1, [pc, #444]	; 9350 <fat32_volume_id_check+0x1e0>
    9190:	e59f21bc 	ldr	r2, [pc, #444]	; 9354 <fat32_volume_id_check+0x1e4>
    9194:	e3a03056 	mov	r3, #86	; 0x56
    9198:	eb00093f 	bl	b69c <printk>
    919c:	eb000ab3 	bl	bc70 <rpi_reboot>
    91a0:	e5d03010 	ldrb	r3, [r0, #16]
    91a4:	e3530002 	cmp	r3, #2
    91a8:	0a000005 	beq	91c4 <fat32_volume_id_check+0x54>
    91ac:	e59f01a4 	ldr	r0, [pc, #420]	; 9358 <fat32_volume_id_check+0x1e8>
    91b0:	e59f1198 	ldr	r1, [pc, #408]	; 9350 <fat32_volume_id_check+0x1e0>
    91b4:	e59f2198 	ldr	r2, [pc, #408]	; 9354 <fat32_volume_id_check+0x1e4>
    91b8:	e3a03057 	mov	r3, #87	; 0x57
    91bc:	eb000936 	bl	b69c <printk>
    91c0:	eb000aaa 	bl	bc70 <rpi_reboot>
    91c4:	e5d031fe 	ldrb	r3, [r0, #510]	; 0x1fe
    91c8:	e5d021ff 	ldrb	r2, [r0, #511]	; 0x1ff
    91cc:	e1832402 	orr	r2, r3, r2, lsl #8
    91d0:	e59f3184 	ldr	r3, [pc, #388]	; 935c <fat32_volume_id_check+0x1ec>
    91d4:	e1520003 	cmp	r2, r3
    91d8:	0a000005 	beq	91f4 <fat32_volume_id_check+0x84>
    91dc:	e59f017c 	ldr	r0, [pc, #380]	; 9360 <fat32_volume_id_check+0x1f0>
    91e0:	e59f1168 	ldr	r1, [pc, #360]	; 9350 <fat32_volume_id_check+0x1e0>
    91e4:	e59f2168 	ldr	r2, [pc, #360]	; 9354 <fat32_volume_id_check+0x1e4>
    91e8:	e3a03058 	mov	r3, #88	; 0x58
    91ec:	eb00092a 	bl	b69c <printk>
    91f0:	eb000a9e 	bl	bc70 <rpi_reboot>
    91f4:	e5d0300d 	ldrb	r3, [r0, #13]
    91f8:	e2632000 	rsb	r2, r3, #0
    91fc:	e0022003 	and	r2, r2, r3
    9200:	e1530002 	cmp	r3, r2
    9204:	0a000005 	beq	9220 <fat32_volume_id_check+0xb0>
    9208:	e59f0154 	ldr	r0, [pc, #340]	; 9364 <fat32_volume_id_check+0x1f4>
    920c:	e59f113c 	ldr	r1, [pc, #316]	; 9350 <fat32_volume_id_check+0x1e0>
    9210:	e59f213c 	ldr	r2, [pc, #316]	; 9354 <fat32_volume_id_check+0x1e4>
    9214:	e3a0305a 	mov	r3, #90	; 0x5a
    9218:	eb00091f 	bl	b69c <printk>
    921c:	eb000a93 	bl	bc70 <rpi_reboot>
    9220:	e5d03011 	ldrb	r3, [r0, #17]
    9224:	e5d02012 	ldrb	r2, [r0, #18]
    9228:	e1932402 	orrs	r2, r3, r2, lsl #8
    922c:	0a000005 	beq	9248 <fat32_volume_id_check+0xd8>
    9230:	e59f0130 	ldr	r0, [pc, #304]	; 9368 <fat32_volume_id_check+0x1f8>
    9234:	e59f1114 	ldr	r1, [pc, #276]	; 9350 <fat32_volume_id_check+0x1e0>
    9238:	e59f2114 	ldr	r2, [pc, #276]	; 9354 <fat32_volume_id_check+0x1e4>
    923c:	e3a0305d 	mov	r3, #93	; 0x5d
    9240:	eb000915 	bl	b69c <printk>
    9244:	eb000a89 	bl	bc70 <rpi_reboot>
    9248:	e5d03013 	ldrb	r3, [r0, #19]
    924c:	e5d02014 	ldrb	r2, [r0, #20]
    9250:	e1932402 	orrs	r2, r3, r2, lsl #8
    9254:	0a000005 	beq	9270 <fat32_volume_id_check+0x100>
    9258:	e59f010c 	ldr	r0, [pc, #268]	; 936c <fat32_volume_id_check+0x1fc>
    925c:	e59f10ec 	ldr	r1, [pc, #236]	; 9350 <fat32_volume_id_check+0x1e0>
    9260:	e59f20ec 	ldr	r2, [pc, #236]	; 9354 <fat32_volume_id_check+0x1e4>
    9264:	e3a0305f 	mov	r3, #95	; 0x5f
    9268:	eb00090b 	bl	b69c <printk>
    926c:	eb000a7f 	bl	bc70 <rpi_reboot>
    9270:	e5d03016 	ldrb	r3, [r0, #22]
    9274:	e5d02017 	ldrb	r2, [r0, #23]
    9278:	e1932402 	orrs	r2, r3, r2, lsl #8
    927c:	0a000005 	beq	9298 <fat32_volume_id_check+0x128>
    9280:	e59f00e8 	ldr	r0, [pc, #232]	; 9370 <fat32_volume_id_check+0x200>
    9284:	e59f10c4 	ldr	r1, [pc, #196]	; 9350 <fat32_volume_id_check+0x1e0>
    9288:	e59f20c4 	ldr	r2, [pc, #196]	; 9354 <fat32_volume_id_check+0x1e4>
    928c:	e3a03062 	mov	r3, #98	; 0x62
    9290:	eb000901 	bl	b69c <printk>
    9294:	eb000a75 	bl	bc70 <rpi_reboot>
    9298:	e5d03020 	ldrb	r3, [r0, #32]
    929c:	e5d02021 	ldrb	r2, [r0, #33]	; 0x21
    92a0:	e1833402 	orr	r3, r3, r2, lsl #8
    92a4:	e5d02022 	ldrb	r2, [r0, #34]	; 0x22
    92a8:	e1833802 	orr	r3, r3, r2, lsl #16
    92ac:	e5d02023 	ldrb	r2, [r0, #35]	; 0x23
    92b0:	e1932c02 	orrs	r2, r3, r2, lsl #24
    92b4:	1a000005 	bne	92d0 <fat32_volume_id_check+0x160>
    92b8:	e59f00b4 	ldr	r0, [pc, #180]	; 9374 <fat32_volume_id_check+0x204>
    92bc:	e59f108c 	ldr	r1, [pc, #140]	; 9350 <fat32_volume_id_check+0x1e0>
    92c0:	e59f208c 	ldr	r2, [pc, #140]	; 9354 <fat32_volume_id_check+0x1e4>
    92c4:	e3a03063 	mov	r3, #99	; 0x63
    92c8:	eb0008f3 	bl	b69c <printk>
    92cc:	eb000a67 	bl	bc70 <rpi_reboot>
    92d0:	e5d03030 	ldrb	r3, [r0, #48]	; 0x30
    92d4:	e5d02031 	ldrb	r2, [r0, #49]	; 0x31
    92d8:	e1833402 	orr	r3, r3, r2, lsl #8
    92dc:	e3530001 	cmp	r3, #1
    92e0:	0a000005 	beq	92fc <fat32_volume_id_check+0x18c>
    92e4:	e59f008c 	ldr	r0, [pc, #140]	; 9378 <fat32_volume_id_check+0x208>
    92e8:	e59f1060 	ldr	r1, [pc, #96]	; 9350 <fat32_volume_id_check+0x1e0>
    92ec:	e59f2060 	ldr	r2, [pc, #96]	; 9354 <fat32_volume_id_check+0x1e4>
    92f0:	e3a03066 	mov	r3, #102	; 0x66
    92f4:	eb0008e8 	bl	b69c <printk>
    92f8:	eb000a5c 	bl	bc70 <rpi_reboot>
    92fc:	e5d03032 	ldrb	r3, [r0, #50]	; 0x32
    9300:	e5d02033 	ldrb	r2, [r0, #51]	; 0x33
    9304:	e1833402 	orr	r3, r3, r2, lsl #8
    9308:	e3530006 	cmp	r3, #6
    930c:	0a000005 	beq	9328 <fat32_volume_id_check+0x1b8>
    9310:	e59f0064 	ldr	r0, [pc, #100]	; 937c <fat32_volume_id_check+0x20c>
    9314:	e59f1034 	ldr	r1, [pc, #52]	; 9350 <fat32_volume_id_check+0x1e0>
    9318:	e59f2034 	ldr	r2, [pc, #52]	; 9354 <fat32_volume_id_check+0x1e4>
    931c:	e3a03067 	mov	r3, #103	; 0x67
    9320:	eb0008dd 	bl	b69c <printk>
    9324:	eb000a51 	bl	bc70 <rpi_reboot>
    9328:	e5d03042 	ldrb	r3, [r0, #66]	; 0x42
    932c:	e3530029 	cmp	r3, #41	; 0x29
    9330:	08bd8008 	popeq	{r3, pc}
    9334:	e59f0044 	ldr	r0, [pc, #68]	; 9380 <fat32_volume_id_check+0x210>
    9338:	e59f1010 	ldr	r1, [pc, #16]	; 9350 <fat32_volume_id_check+0x1e0>
    933c:	e59f2010 	ldr	r2, [pc, #16]	; 9354 <fat32_volume_id_check+0x1e4>
    9340:	e3a03068 	mov	r3, #104	; 0x68
    9344:	eb0008d4 	bl	b69c <printk>
    9348:	eb000a48 	bl	bc70 <rpi_reboot>
    934c:	0000ce9c 	muleq	r0, ip, lr
    9350:	0000cb18 	andeq	ip, r0, r8, lsl fp
    9354:	0000ca38 	andeq	ip, r0, r8, lsr sl
    9358:	0000cec4 	andeq	ip, r0, r4, asr #29
    935c:	0000aa55 	andeq	sl, r0, r5, asr sl
    9360:	0000cee4 	andeq	ip, r0, r4, ror #29
    9364:	0000cf08 	andeq	ip, r0, r8, lsl #30
    9368:	0000cf34 	andeq	ip, r0, r4, lsr pc
    936c:	0000cf54 	andeq	ip, r0, r4, asr pc
    9370:	0000cf74 	andeq	ip, r0, r4, ror pc
    9374:	0000cf94 	muleq	r0, r4, pc	; <UNPREDICTABLE>
    9378:	0000cfb8 			; <UNDEFINED> instruction: 0x0000cfb8
    937c:	0000cfe0 	andeq	ip, r0, r0, ror #31
    9380:	0000d008 	andeq	sp, r0, r8

00009384 <fat32_volume_id_print>:
    9384:	e92d4010 	push	{r4, lr}
    9388:	e24dd010 	sub	sp, sp, #16
    938c:	e1a03000 	mov	r3, r0
    9390:	e1a04001 	mov	r4, r1
    9394:	e59f021c 	ldr	r0, [pc, #540]	; 95b8 <fat32_volume_id_print+0x234>
    9398:	e1a01003 	mov	r1, r3
    939c:	eb0008be 	bl	b69c <printk>
    93a0:	e28d0004 	add	r0, sp, #4
    93a4:	e2841003 	add	r1, r4, #3
    93a8:	e3a02008 	mov	r2, #8
    93ac:	eb000a8f 	bl	bdf0 <memcpy>
    93b0:	e3a03000 	mov	r3, #0
    93b4:	e5cd300c 	strb	r3, [sp, #12]
    93b8:	e59f01fc 	ldr	r0, [pc, #508]	; 95bc <fat32_volume_id_print+0x238>
    93bc:	e28d1004 	add	r1, sp, #4
    93c0:	eb0008b5 	bl	b69c <printk>
    93c4:	e5d4300b 	ldrb	r3, [r4, #11]
    93c8:	e5d4100c 	ldrb	r1, [r4, #12]
    93cc:	e59f01ec 	ldr	r0, [pc, #492]	; 95c0 <fat32_volume_id_print+0x23c>
    93d0:	e1831401 	orr	r1, r3, r1, lsl #8
    93d4:	eb0008b0 	bl	b69c <printk>
    93d8:	e59f01e4 	ldr	r0, [pc, #484]	; 95c4 <fat32_volume_id_print+0x240>
    93dc:	e5d4100d 	ldrb	r1, [r4, #13]
    93e0:	eb0008ad 	bl	b69c <printk>
    93e4:	e5d4300e 	ldrb	r3, [r4, #14]
    93e8:	e5d4100f 	ldrb	r1, [r4, #15]
    93ec:	e59f01d4 	ldr	r0, [pc, #468]	; 95c8 <fat32_volume_id_print+0x244>
    93f0:	e1831401 	orr	r1, r3, r1, lsl #8
    93f4:	eb0008a8 	bl	b69c <printk>
    93f8:	e59f01cc 	ldr	r0, [pc, #460]	; 95cc <fat32_volume_id_print+0x248>
    93fc:	e5d41010 	ldrb	r1, [r4, #16]
    9400:	eb0008a5 	bl	b69c <printk>
    9404:	e5d43011 	ldrb	r3, [r4, #17]
    9408:	e5d41012 	ldrb	r1, [r4, #18]
    940c:	e59f01bc 	ldr	r0, [pc, #444]	; 95d0 <fat32_volume_id_print+0x24c>
    9410:	e1831401 	orr	r1, r3, r1, lsl #8
    9414:	eb0008a0 	bl	b69c <printk>
    9418:	e5d43013 	ldrb	r3, [r4, #19]
    941c:	e5d41014 	ldrb	r1, [r4, #20]
    9420:	e59f01ac 	ldr	r0, [pc, #428]	; 95d4 <fat32_volume_id_print+0x250>
    9424:	e1831401 	orr	r1, r3, r1, lsl #8
    9428:	eb00089b 	bl	b69c <printk>
    942c:	e59f01a4 	ldr	r0, [pc, #420]	; 95d8 <fat32_volume_id_print+0x254>
    9430:	e5d41015 	ldrb	r1, [r4, #21]
    9434:	eb000898 	bl	b69c <printk>
    9438:	e5d43018 	ldrb	r3, [r4, #24]
    943c:	e5d41019 	ldrb	r1, [r4, #25]
    9440:	e59f0194 	ldr	r0, [pc, #404]	; 95dc <fat32_volume_id_print+0x258>
    9444:	e1831401 	orr	r1, r3, r1, lsl #8
    9448:	eb000893 	bl	b69c <printk>
    944c:	e5d4301a 	ldrb	r3, [r4, #26]
    9450:	e5d4101b 	ldrb	r1, [r4, #27]
    9454:	e59f0184 	ldr	r0, [pc, #388]	; 95e0 <fat32_volume_id_print+0x25c>
    9458:	e1831401 	orr	r1, r3, r1, lsl #8
    945c:	eb00088e 	bl	b69c <printk>
    9460:	e5d4301c 	ldrb	r3, [r4, #28]
    9464:	e5d4201d 	ldrb	r2, [r4, #29]
    9468:	e1833402 	orr	r3, r3, r2, lsl #8
    946c:	e5d4201e 	ldrb	r2, [r4, #30]
    9470:	e1833802 	orr	r3, r3, r2, lsl #16
    9474:	e5d4101f 	ldrb	r1, [r4, #31]
    9478:	e59f0164 	ldr	r0, [pc, #356]	; 95e4 <fat32_volume_id_print+0x260>
    947c:	e1831c01 	orr	r1, r3, r1, lsl #24
    9480:	eb000885 	bl	b69c <printk>
    9484:	e5d43020 	ldrb	r3, [r4, #32]
    9488:	e5d42021 	ldrb	r2, [r4, #33]	; 0x21
    948c:	e1833402 	orr	r3, r3, r2, lsl #8
    9490:	e5d42022 	ldrb	r2, [r4, #34]	; 0x22
    9494:	e1833802 	orr	r3, r3, r2, lsl #16
    9498:	e5d41023 	ldrb	r1, [r4, #35]	; 0x23
    949c:	e59f0144 	ldr	r0, [pc, #324]	; 95e8 <fat32_volume_id_print+0x264>
    94a0:	e1831c01 	orr	r1, r3, r1, lsl #24
    94a4:	eb00087c 	bl	b69c <printk>
    94a8:	e5d43024 	ldrb	r3, [r4, #36]	; 0x24
    94ac:	e5d42025 	ldrb	r2, [r4, #37]	; 0x25
    94b0:	e1833402 	orr	r3, r3, r2, lsl #8
    94b4:	e5d42026 	ldrb	r2, [r4, #38]	; 0x26
    94b8:	e1833802 	orr	r3, r3, r2, lsl #16
    94bc:	e5d41027 	ldrb	r1, [r4, #39]	; 0x27
    94c0:	e59f0124 	ldr	r0, [pc, #292]	; 95ec <fat32_volume_id_print+0x268>
    94c4:	e1831c01 	orr	r1, r3, r1, lsl #24
    94c8:	eb000873 	bl	b69c <printk>
    94cc:	e5d43028 	ldrb	r3, [r4, #40]	; 0x28
    94d0:	e5d41029 	ldrb	r1, [r4, #41]	; 0x29
    94d4:	e59f0114 	ldr	r0, [pc, #276]	; 95f0 <fat32_volume_id_print+0x26c>
    94d8:	e1831401 	orr	r1, r3, r1, lsl #8
    94dc:	eb00086e 	bl	b69c <printk>
    94e0:	e5d4302a 	ldrb	r3, [r4, #42]	; 0x2a
    94e4:	e5d4102b 	ldrb	r1, [r4, #43]	; 0x2b
    94e8:	e59f0104 	ldr	r0, [pc, #260]	; 95f4 <fat32_volume_id_print+0x270>
    94ec:	e1831401 	orr	r1, r3, r1, lsl #8
    94f0:	eb000869 	bl	b69c <printk>
    94f4:	e5d4302c 	ldrb	r3, [r4, #44]	; 0x2c
    94f8:	e5d4202d 	ldrb	r2, [r4, #45]	; 0x2d
    94fc:	e1833402 	orr	r3, r3, r2, lsl #8
    9500:	e5d4202e 	ldrb	r2, [r4, #46]	; 0x2e
    9504:	e1833802 	orr	r3, r3, r2, lsl #16
    9508:	e5d4102f 	ldrb	r1, [r4, #47]	; 0x2f
    950c:	e59f00e4 	ldr	r0, [pc, #228]	; 95f8 <fat32_volume_id_print+0x274>
    9510:	e1831c01 	orr	r1, r3, r1, lsl #24
    9514:	eb000860 	bl	b69c <printk>
    9518:	e5d43030 	ldrb	r3, [r4, #48]	; 0x30
    951c:	e5d41031 	ldrb	r1, [r4, #49]	; 0x31
    9520:	e59f00d4 	ldr	r0, [pc, #212]	; 95fc <fat32_volume_id_print+0x278>
    9524:	e1831401 	orr	r1, r3, r1, lsl #8
    9528:	eb00085b 	bl	b69c <printk>
    952c:	e5d43032 	ldrb	r3, [r4, #50]	; 0x32
    9530:	e5d41033 	ldrb	r1, [r4, #51]	; 0x33
    9534:	e59f00c4 	ldr	r0, [pc, #196]	; 9600 <fat32_volume_id_print+0x27c>
    9538:	e1831401 	orr	r1, r3, r1, lsl #8
    953c:	eb000856 	bl	b69c <printk>
    9540:	e59f00bc 	ldr	r0, [pc, #188]	; 9604 <fat32_volume_id_print+0x280>
    9544:	e5d41040 	ldrb	r1, [r4, #64]	; 0x40
    9548:	eb000853 	bl	b69c <printk>
    954c:	e59f00b4 	ldr	r0, [pc, #180]	; 9608 <fat32_volume_id_print+0x284>
    9550:	e5d41042 	ldrb	r1, [r4, #66]	; 0x42
    9554:	eb000850 	bl	b69c <printk>
    9558:	e5d43043 	ldrb	r3, [r4, #67]	; 0x43
    955c:	e5d42044 	ldrb	r2, [r4, #68]	; 0x44
    9560:	e1833402 	orr	r3, r3, r2, lsl #8
    9564:	e5d42045 	ldrb	r2, [r4, #69]	; 0x45
    9568:	e1833802 	orr	r3, r3, r2, lsl #16
    956c:	e5d41046 	ldrb	r1, [r4, #70]	; 0x46
    9570:	e59f0094 	ldr	r0, [pc, #148]	; 960c <fat32_volume_id_print+0x288>
    9574:	e1831c01 	orr	r1, r3, r1, lsl #24
    9578:	eb000847 	bl	b69c <printk>
    957c:	e59f008c 	ldr	r0, [pc, #140]	; 9610 <fat32_volume_id_print+0x28c>
    9580:	e2841047 	add	r1, r4, #71	; 0x47
    9584:	eb000844 	bl	b69c <printk>
    9588:	e59f0084 	ldr	r0, [pc, #132]	; 9614 <fat32_volume_id_print+0x290>
    958c:	e2841052 	add	r1, r4, #82	; 0x52
    9590:	eb000841 	bl	b69c <printk>
    9594:	e5d431fe 	ldrb	r3, [r4, #510]	; 0x1fe
    9598:	e5d411ff 	ldrb	r1, [r4, #511]	; 0x1ff
    959c:	e59f0074 	ldr	r0, [pc, #116]	; 9618 <fat32_volume_id_print+0x294>
    95a0:	e1831401 	orr	r1, r3, r1, lsl #8
    95a4:	eb00083c 	bl	b69c <printk>
    95a8:	e1a00004 	mov	r0, r4
    95ac:	ebfffeef 	bl	9170 <fat32_volume_id_check>
    95b0:	e28dd010 	add	sp, sp, #16
    95b4:	e8bd8010 	pop	{r4, pc}
    95b8:	0000cdd8 	ldrdeq	ip, [r0], -r8
    95bc:	0000d030 	andeq	sp, r0, r0, lsr r0
    95c0:	0000d04c 	andeq	sp, r0, ip, asr #32
    95c4:	0000d068 	andeq	sp, r0, r8, rrx
    95c8:	0000d084 	andeq	sp, r0, r4, lsl #1
    95cc:	0000d0a0 	andeq	sp, r0, r0, lsr #1
    95d0:	0000d0bc 	strheq	sp, [r0], -ip
    95d4:	0000d0d8 	ldrdeq	sp, [r0], -r8
    95d8:	0000d0f4 	strdeq	sp, [r0], -r4
    95dc:	0000d110 	andeq	sp, r0, r0, lsl r1
    95e0:	0000d12c 	andeq	sp, r0, ip, lsr #2
    95e4:	0000d148 	andeq	sp, r0, r8, asr #2
    95e8:	0000d164 	andeq	sp, r0, r4, ror #2
    95ec:	0000d180 	andeq	sp, r0, r0, lsl #3
    95f0:	0000d19c 	muleq	r0, ip, r1
    95f4:	0000d1b8 			; <UNDEFINED> instruction: 0x0000d1b8
    95f8:	0000d1d4 	ldrdeq	sp, [r0], -r4
    95fc:	0000d1f0 	strdeq	sp, [r0], -r0
    9600:	0000d20c 	andeq	sp, r0, ip, lsl #4
    9604:	0000d228 	andeq	sp, r0, r8, lsr #4
    9608:	0000d244 	andeq	sp, r0, r4, asr #4
    960c:	0000d260 	andeq	sp, r0, r0, ror #4
    9610:	0000d27c 	andeq	sp, r0, ip, ror r2
    9614:	0000d298 	muleq	r0, r8, r2
    9618:	0000d2b4 			; <UNDEFINED> instruction: 0x0000d2b4

0000961c <fat32_fsinfo_print>:
    961c:	e92d4010 	push	{r4, lr}
    9620:	e1a03000 	mov	r3, r0
    9624:	e1a04001 	mov	r4, r1
    9628:	e59f0044 	ldr	r0, [pc, #68]	; 9674 <fat32_fsinfo_print+0x58>
    962c:	e1a01003 	mov	r1, r3
    9630:	eb000819 	bl	b69c <printk>
    9634:	e59f003c 	ldr	r0, [pc, #60]	; 9678 <fat32_fsinfo_print+0x5c>
    9638:	e5941000 	ldr	r1, [r4]
    963c:	eb000816 	bl	b69c <printk>
    9640:	e59f0034 	ldr	r0, [pc, #52]	; 967c <fat32_fsinfo_print+0x60>
    9644:	e59411e4 	ldr	r1, [r4, #484]	; 0x1e4
    9648:	eb000813 	bl	b69c <printk>
    964c:	e59f002c 	ldr	r0, [pc, #44]	; 9680 <fat32_fsinfo_print+0x64>
    9650:	e59411fc 	ldr	r1, [r4, #508]	; 0x1fc
    9654:	eb000810 	bl	b69c <printk>
    9658:	e59f0024 	ldr	r0, [pc, #36]	; 9684 <fat32_fsinfo_print+0x68>
    965c:	e59411e8 	ldr	r1, [r4, #488]	; 0x1e8
    9660:	eb00080d 	bl	b69c <printk>
    9664:	e59f001c 	ldr	r0, [pc, #28]	; 9688 <fat32_fsinfo_print+0x6c>
    9668:	e59411ec 	ldr	r1, [r4, #492]	; 0x1ec
    966c:	eb00080a 	bl	b69c <printk>
    9670:	e8bd8010 	pop	{r4, pc}
    9674:	0000cdd8 	ldrdeq	ip, [r0], -r8
    9678:	0000d2d0 	ldrdeq	sp, [r0], -r0
    967c:	0000d2ec 	andeq	sp, r0, ip, ror #5
    9680:	0000d308 	andeq	sp, r0, r8, lsl #6
    9684:	0000d324 	andeq	sp, r0, r4, lsr #6
    9688:	0000d340 	andeq	sp, r0, r0, asr #6

0000968c <fat32_fsinfo_check>:
    968c:	e92d4008 	push	{r3, lr}
    9690:	e5902000 	ldr	r2, [r0]
    9694:	e59f306c 	ldr	r3, [pc, #108]	; 9708 <fat32_fsinfo_check+0x7c>
    9698:	e1520003 	cmp	r2, r3
    969c:	0a000005 	beq	96b8 <fat32_fsinfo_check+0x2c>
    96a0:	e59f0064 	ldr	r0, [pc, #100]	; 970c <fat32_fsinfo_check+0x80>
    96a4:	e59f1064 	ldr	r1, [pc, #100]	; 9710 <fat32_fsinfo_check+0x84>
    96a8:	e59f2064 	ldr	r2, [pc, #100]	; 9714 <fat32_fsinfo_check+0x88>
    96ac:	e3a030b2 	mov	r3, #178	; 0xb2
    96b0:	eb0007f9 	bl	b69c <printk>
    96b4:	eb00096d 	bl	bc70 <rpi_reboot>
    96b8:	e59021e4 	ldr	r2, [r0, #484]	; 0x1e4
    96bc:	e59f3054 	ldr	r3, [pc, #84]	; 9718 <fat32_fsinfo_check+0x8c>
    96c0:	e1520003 	cmp	r2, r3
    96c4:	0a000005 	beq	96e0 <fat32_fsinfo_check+0x54>
    96c8:	e59f004c 	ldr	r0, [pc, #76]	; 971c <fat32_fsinfo_check+0x90>
    96cc:	e59f103c 	ldr	r1, [pc, #60]	; 9710 <fat32_fsinfo_check+0x84>
    96d0:	e59f203c 	ldr	r2, [pc, #60]	; 9714 <fat32_fsinfo_check+0x88>
    96d4:	e3a030b3 	mov	r3, #179	; 0xb3
    96d8:	eb0007ef 	bl	b69c <printk>
    96dc:	eb000963 	bl	bc70 <rpi_reboot>
    96e0:	e59021fc 	ldr	r2, [r0, #508]	; 0x1fc
    96e4:	e59f3034 	ldr	r3, [pc, #52]	; 9720 <fat32_fsinfo_check+0x94>
    96e8:	e1520003 	cmp	r2, r3
    96ec:	08bd8008 	popeq	{r3, pc}
    96f0:	e59f002c 	ldr	r0, [pc, #44]	; 9724 <fat32_fsinfo_check+0x98>
    96f4:	e59f1014 	ldr	r1, [pc, #20]	; 9710 <fat32_fsinfo_check+0x84>
    96f8:	e59f2014 	ldr	r2, [pc, #20]	; 9714 <fat32_fsinfo_check+0x88>
    96fc:	e3a030b4 	mov	r3, #180	; 0xb4
    9700:	eb0007e5 	bl	b69c <printk>
    9704:	eb000959 	bl	bc70 <rpi_reboot>
    9708:	41615252 	cmnmi	r1, r2, asr r2
    970c:	0000d35c 	andeq	sp, r0, ip, asr r3
    9710:	0000cb18 	andeq	ip, r0, r8, lsl fp
    9714:	0000ca50 	andeq	ip, r0, r0, asr sl
    9718:	61417272 	hvcvs	5922	; 0x1722
    971c:	0000d388 	andeq	sp, r0, r8, lsl #7
    9720:	aa550000 	bge	1549728 <__bss_end__+0x153b0f8>
    9724:	0000d3b4 			; <UNDEFINED> instruction: 0x0000d3b4

00009728 <fat32_fat_entry_type_str>:
    9728:	e52de004 	push	{lr}		; (str lr, [sp, #-4]!)
    972c:	e24dd00c 	sub	sp, sp, #12
    9730:	e370029f 	cmn	r0, #-268435447	; 0xf0000009
    9734:	0a00000c 	beq	976c <fat32_fat_entry_type_str+0x44>
    9738:	8a000005 	bhi	9754 <fat32_fat_entry_type_str+0x2c>
    973c:	e3500000 	cmp	r0, #0
    9740:	0a000014 	beq	9798 <fat32_fat_entry_type_str+0x70>
    9744:	e3500001 	cmp	r0, #1
    9748:	059f0058 	ldreq	r0, [pc, #88]	; 97a8 <fat32_fat_entry_type_str+0x80>
    974c:	0a000013 	beq	97a0 <fat32_fat_entry_type_str+0x78>
    9750:	ea000009 	b	977c <fat32_fat_entry_type_str+0x54>
    9754:	e370028f 	cmn	r0, #-268435448	; 0xf0000008
    9758:	0a000005 	beq	9774 <fat32_fat_entry_type_str+0x4c>
    975c:	e370027f 	cmn	r0, #-268435449	; 0xf0000007
    9760:	059f0044 	ldreq	r0, [pc, #68]	; 97ac <fat32_fat_entry_type_str+0x84>
    9764:	0a00000d 	beq	97a0 <fat32_fat_entry_type_str+0x78>
    9768:	ea000003 	b	977c <fat32_fat_entry_type_str+0x54>
    976c:	e59f003c 	ldr	r0, [pc, #60]	; 97b0 <fat32_fat_entry_type_str+0x88>
    9770:	ea00000a 	b	97a0 <fat32_fat_entry_type_str+0x78>
    9774:	e59f0038 	ldr	r0, [pc, #56]	; 97b4 <fat32_fat_entry_type_str+0x8c>
    9778:	ea000008 	b	97a0 <fat32_fat_entry_type_str+0x78>
    977c:	e58d0000 	str	r0, [sp]
    9780:	e59f0030 	ldr	r0, [pc, #48]	; 97b8 <fat32_fat_entry_type_str+0x90>
    9784:	e59f1030 	ldr	r1, [pc, #48]	; 97bc <fat32_fat_entry_type_str+0x94>
    9788:	e59f2030 	ldr	r2, [pc, #48]	; 97c0 <fat32_fat_entry_type_str+0x98>
    978c:	e3a030c2 	mov	r3, #194	; 0xc2
    9790:	eb0007c1 	bl	b69c <printk>
    9794:	eb000935 	bl	bc70 <rpi_reboot>
    9798:	e59f0024 	ldr	r0, [pc, #36]	; 97c4 <fat32_fat_entry_type_str+0x9c>
    979c:	eaffffff 	b	97a0 <fat32_fat_entry_type_str+0x78>
    97a0:	e28dd00c 	add	sp, sp, #12
    97a4:	e49df004 	pop	{pc}		; (ldr pc, [sp], #4)
    97a8:	0000d3f0 	strdeq	sp, [r0], -r0
    97ac:	0000d420 	andeq	sp, r0, r0, lsr #8
    97b0:	0000d404 	andeq	sp, r0, r4, lsl #8
    97b4:	0000d410 	andeq	sp, r0, r0, lsl r4
    97b8:	0000d430 	andeq	sp, r0, r0, lsr r4
    97bc:	0000cb18 	andeq	ip, r0, r8, lsl fp
    97c0:	0000ca64 	andeq	ip, r0, r4, ror #20
    97c4:	0000d3e0 	andeq	sp, r0, r0, ror #7

000097c8 <fat32_fat_entry_type>:
    97c8:	e52de004 	push	{lr}		; (str lr, [sp, #-4]!)
    97cc:	e24dd00c 	sub	sp, sp, #12
    97d0:	e3c0020f 	bic	r0, r0, #-268435456	; 0xf0000000
    97d4:	e3500001 	cmp	r0, #1
    97d8:	9a00001c 	bls	9850 <fat32_fat_entry_type+0x88>
    97dc:	e370029f 	cmn	r0, #-268435447	; 0xf0000009
    97e0:	0a00001a 	beq	9850 <fat32_fat_entry_type+0x88>
    97e4:	e2402002 	sub	r2, r0, #2
    97e8:	e59f3068 	ldr	r3, [pc, #104]	; 9858 <fat32_fat_entry_type+0x90>
    97ec:	e1520003 	cmp	r2, r3
    97f0:	93e0026f 	mvnls	r0, #-268435450	; 0xf0000006
    97f4:	9a000015 	bls	9850 <fat32_fat_entry_type+0x88>
    97f8:	e280320f 	add	r3, r0, #-268435456	; 0xf0000000
    97fc:	e2833010 	add	r3, r3, #16
    9800:	e3530006 	cmp	r3, #6
    9804:	8a000006 	bhi	9824 <fat32_fat_entry_type+0x5c>
    9808:	e58d0000 	str	r0, [sp]
    980c:	e59f0048 	ldr	r0, [pc, #72]	; 985c <fat32_fat_entry_type+0x94>
    9810:	e59f1048 	ldr	r1, [pc, #72]	; 9860 <fat32_fat_entry_type+0x98>
    9814:	e59f2048 	ldr	r2, [pc, #72]	; 9864 <fat32_fat_entry_type+0x9c>
    9818:	e3a030d2 	mov	r3, #210	; 0xd2
    981c:	eb00079e 	bl	b69c <printk>
    9820:	eb000912 	bl	bc70 <rpi_reboot>
    9824:	e280328f 	add	r3, r0, #-268435448	; 0xf0000008
    9828:	e3530007 	cmp	r3, #7
    982c:	93e0027f 	mvnls	r0, #-268435449	; 0xf0000007
    9830:	9a000006 	bls	9850 <fat32_fat_entry_type+0x88>
    9834:	e58d0000 	str	r0, [sp]
    9838:	e59f0028 	ldr	r0, [pc, #40]	; 9868 <fat32_fat_entry_type+0xa0>
    983c:	e59f101c 	ldr	r1, [pc, #28]	; 9860 <fat32_fat_entry_type+0x98>
    9840:	e59f201c 	ldr	r2, [pc, #28]	; 9864 <fat32_fat_entry_type+0x9c>
    9844:	e3a030d5 	mov	r3, #213	; 0xd5
    9848:	eb000793 	bl	b69c <printk>
    984c:	eb000907 	bl	bc70 <rpi_reboot>
    9850:	e28dd00c 	add	sp, sp, #12
    9854:	e49df004 	pop	{pc}		; (ldr pc, [sp], #4)
    9858:	0fffffed 	svceq	0x00ffffed
    985c:	0000d450 	andeq	sp, r0, r0, asr r4
    9860:	0000cb18 	andeq	ip, r0, r8, lsl fp
    9864:	0000ca80 	andeq	ip, r0, r0, lsl #21
    9868:	0000d474 	andeq	sp, r0, r4, ror r4

0000986c <is_attr>:
    986c:	e0000001 	and	r0, r0, r1
    9870:	e1500001 	cmp	r0, r1
    9874:	13a00000 	movne	r0, #0
    9878:	03a00001 	moveq	r0, #1
    987c:	e12fff1e 	bx	lr

00009880 <lfn_checksum>:
    9880:	e280100b 	add	r1, r0, #11
    9884:	e3a03000 	mov	r3, #0
    9888:	e4d02001 	ldrb	r2, [r0], #1
    988c:	e08220a3 	add	r2, r2, r3, lsr #1
    9890:	e0823383 	add	r3, r2, r3, lsl #7
    9894:	e20330ff 	and	r3, r3, #255	; 0xff
    9898:	e1500001 	cmp	r0, r1
    989c:	1afffff9 	bne	9888 <lfn_checksum+0x8>
    98a0:	e1a00003 	mov	r0, r3
    98a4:	e12fff1e 	bx	lr

000098a8 <lfn_is_last>:
    98a8:	e1a00320 	lsr	r0, r0, #6
    98ac:	e2000001 	and	r0, r0, #1
    98b0:	e12fff1e 	bx	lr

000098b4 <lfn_is_first>:
    98b4:	e20000bf 	and	r0, r0, #191	; 0xbf
    98b8:	e3500001 	cmp	r0, #1
    98bc:	13a00000 	movne	r0, #0
    98c0:	03a00001 	moveq	r0, #1
    98c4:	e12fff1e 	bx	lr

000098c8 <lfn_is_deleted>:
    98c8:	e20000e5 	and	r0, r0, #229	; 0xe5
    98cc:	e35000e5 	cmp	r0, #229	; 0xe5
    98d0:	13a00000 	movne	r0, #0
    98d4:	03a00001 	moveq	r0, #1
    98d8:	e12fff1e 	bx	lr

000098dc <lfn_print_ent>:
    98dc:	e92d41f0 	push	{r4, r5, r6, r7, r8, lr}
    98e0:	e24dd028 	sub	sp, sp, #40	; 0x28
    98e4:	e1a07000 	mov	r7, r0
    98e8:	e1a08001 	mov	r8, r1
    98ec:	e1a04000 	mov	r4, r0
    98f0:	e4d41001 	ldrb	r1, [r4], #1
    98f4:	e20120bf 	and	r2, r1, #191	; 0xbf
    98f8:	e1a03321 	lsr	r3, r1, #6
    98fc:	e20100e5 	and	r0, r1, #229	; 0xe5
    9900:	e35000e5 	cmp	r0, #229	; 0xe5
    9904:	13a00000 	movne	r0, #0
    9908:	03a00001 	moveq	r0, #1
    990c:	e58d0000 	str	r0, [sp]
    9910:	e59f00a4 	ldr	r0, [pc, #164]	; 99bc <lfn_print_ent+0xe0>
    9914:	e3520001 	cmp	r2, #1
    9918:	13a02000 	movne	r2, #0
    991c:	03a02001 	moveq	r2, #1
    9920:	e2033001 	and	r3, r3, #1
    9924:	eb00075c 	bl	b69c <printk>
    9928:	e28d000c 	add	r0, sp, #12
    992c:	e1a01004 	mov	r1, r4
    9930:	e3a0200a 	mov	r2, #10
    9934:	eb00092d 	bl	bdf0 <memcpy>
    9938:	e28d0016 	add	r0, sp, #22
    993c:	e287100e 	add	r1, r7, #14
    9940:	e3a0200c 	mov	r2, #12
    9944:	eb000929 	bl	bdf0 <memcpy>
    9948:	e28d0022 	add	r0, sp, #34	; 0x22
    994c:	e287101c 	add	r1, r7, #28
    9950:	e3a02004 	mov	r2, #4
    9954:	eb000925 	bl	bdf0 <memcpy>
    9958:	e3a04000 	mov	r4, #0
    995c:	e5cd4026 	strb	r4, [sp, #38]	; 0x26
    9960:	e28d500c 	add	r5, sp, #12
    9964:	e59f6054 	ldr	r6, [pc, #84]	; 99c0 <lfn_print_ent+0xe4>
    9968:	e28d300c 	add	r3, sp, #12
    996c:	e7d43003 	ldrb	r3, [r4, r3]
    9970:	e3530000 	cmp	r3, #0
    9974:	1a000002 	bne	9984 <lfn_print_ent+0xa8>
    9978:	e5d5c001 	ldrb	ip, [r5, #1]
    997c:	e35c0000 	cmp	ip, #0
    9980:	0a000007 	beq	99a4 <lfn_print_ent+0xc8>
    9984:	e1a00006 	mov	r0, r6
    9988:	e1a01004 	mov	r1, r4
    998c:	e1a02003 	mov	r2, r3
    9990:	eb000741 	bl	b69c <printk>
    9994:	e2844002 	add	r4, r4, #2
    9998:	e2855002 	add	r5, r5, #2
    999c:	e354001a 	cmp	r4, #26
    99a0:	1afffff0 	bne	9968 <lfn_print_ent+0x8c>
    99a4:	e59f0018 	ldr	r0, [pc, #24]	; 99c4 <lfn_print_ent+0xe8>
    99a8:	e5d7100d 	ldrb	r1, [r7, #13]
    99ac:	e1a02008 	mov	r2, r8
    99b0:	eb000739 	bl	b69c <printk>
    99b4:	e28dd028 	add	sp, sp, #40	; 0x28
    99b8:	e8bd81f0 	pop	{r4, r5, r6, r7, r8, pc}
    99bc:	0000d4a0 	andeq	sp, r0, r0, lsr #9
    99c0:	0000d4cc 	andeq	sp, r0, ip, asr #9
    99c4:	0000d4e4 	andeq	sp, r0, r4, ror #9

000099c8 <lfn_get_name>:
    99c8:	e92d43f8 	push	{r3, r4, r5, r6, r7, r8, r9, lr}
    99cc:	e3a02000 	mov	r2, #0
    99d0:	e59f30ac 	ldr	r3, [pc, #172]	; 9a84 <lfn_get_name+0xbc>
    99d4:	e5c32000 	strb	r2, [r3]
    99d8:	e2516001 	subs	r6, r1, #1
    99dc:	4a000023 	bmi	9a70 <lfn_get_name+0xa8>
    99e0:	e1a05286 	lsl	r5, r6, #5
    99e4:	e0804005 	add	r4, r0, r5
    99e8:	e5d4300b 	ldrb	r3, [r4, #11]
    99ec:	e353000f 	cmp	r3, #15
    99f0:	0a00000b 	beq	9a24 <lfn_get_name+0x5c>
    99f4:	ea000004 	b	9a0c <lfn_get_name+0x44>
    99f8:	e1a04005 	mov	r4, r5
    99fc:	e2455020 	sub	r5, r5, #32
    9a00:	e5d5302b 	ldrb	r3, [r5, #43]	; 0x2b
    9a04:	e353000f 	cmp	r3, #15
    9a08:	0a00000b 	beq	9a3c <lfn_get_name+0x74>
    9a0c:	e59f0074 	ldr	r0, [pc, #116]	; 9a88 <lfn_get_name+0xc0>
    9a10:	e59f1074 	ldr	r1, [pc, #116]	; 9a8c <lfn_get_name+0xc4>
    9a14:	e59f2074 	ldr	r2, [pc, #116]	; 9a90 <lfn_get_name+0xc8>
    9a18:	e3a03f49 	mov	r3, #292	; 0x124
    9a1c:	eb00071e 	bl	b69c <printk>
    9a20:	eb000892 	bl	bc70 <rpi_reboot>
    9a24:	e2455020 	sub	r5, r5, #32
    9a28:	e0805005 	add	r5, r0, r5
    9a2c:	e59f0050 	ldr	r0, [pc, #80]	; 9a84 <lfn_get_name+0xbc>
    9a30:	e3a0900a 	mov	r9, #10
    9a34:	e3a0800c 	mov	r8, #12
    9a38:	e3a07004 	mov	r7, #4
    9a3c:	e2841001 	add	r1, r4, #1
    9a40:	e1a02009 	mov	r2, r9
    9a44:	ebfffbb0 	bl	890c <utf8_append>
    9a48:	e284100e 	add	r1, r4, #14
    9a4c:	e1a02008 	mov	r2, r8
    9a50:	ebfffbad 	bl	890c <utf8_append>
    9a54:	e284101c 	add	r1, r4, #28
    9a58:	e1a02007 	mov	r2, r7
    9a5c:	ebfffbaa 	bl	890c <utf8_append>
    9a60:	e2466001 	sub	r6, r6, #1
    9a64:	e3760001 	cmn	r6, #1
    9a68:	1affffe2 	bne	99f8 <lfn_get_name+0x30>
    9a6c:	ea000000 	b	9a74 <lfn_get_name+0xac>
    9a70:	e59f000c 	ldr	r0, [pc, #12]	; 9a84 <lfn_get_name+0xbc>
    9a74:	e3a03000 	mov	r3, #0
    9a78:	e5c03000 	strb	r3, [r0]
    9a7c:	e59f0000 	ldr	r0, [pc]	; 9a84 <lfn_get_name+0xbc>
    9a80:	e8bd83f8 	pop	{r3, r4, r5, r6, r7, r8, r9, pc}
    9a84:	0000df7c 	andeq	sp, r0, ip, ror pc
    9a88:	0000d500 	andeq	sp, r0, r0, lsl #10
    9a8c:	0000cb18 	andeq	ip, r0, r8, lsl fp
    9a90:	0000ca98 	muleq	r0, r8, sl

00009a94 <lfn_print>:
    9a94:	e92d4ff8 	push	{r3, r4, r5, r6, r7, r8, r9, sl, fp, lr}
    9a98:	e1a0b000 	mov	fp, r0
    9a9c:	e1a07002 	mov	r7, r2
    9aa0:	e1a09003 	mov	r9, r3
    9aa4:	e2518000 	subs	r8, r1, #0
    9aa8:	ca000005 	bgt	9ac4 <lfn_print+0x30>
    9aac:	e59f0128 	ldr	r0, [pc, #296]	; 9bdc <lfn_print+0x148>
    9ab0:	e59f1128 	ldr	r1, [pc, #296]	; 9be0 <lfn_print+0x14c>
    9ab4:	e59f2128 	ldr	r2, [pc, #296]	; 9be4 <lfn_print+0x150>
    9ab8:	e59f3128 	ldr	r3, [pc, #296]	; 9be8 <lfn_print+0x154>
    9abc:	eb0006f6 	bl	b69c <printk>
    9ac0:	eb00086a 	bl	bc70 <rpi_reboot>
    9ac4:	e2483001 	sub	r3, r8, #1
    9ac8:	e3530001 	cmp	r3, #1
    9acc:	8a000004 	bhi	9ae4 <lfn_print+0x50>
    9ad0:	e5d03000 	ldrb	r3, [r0]
    9ad4:	e20330e5 	and	r3, r3, #229	; 0xe5
    9ad8:	e35300e5 	cmp	r3, #229	; 0xe5
    9adc:	1a000012 	bne	9b2c <lfn_print+0x98>
    9ae0:	ea00000b 	b	9b14 <lfn_print+0x80>
    9ae4:	e59f0100 	ldr	r0, [pc, #256]	; 9bec <lfn_print+0x158>
    9ae8:	e59f10f0 	ldr	r1, [pc, #240]	; 9be0 <lfn_print+0x14c>
    9aec:	e59f20f0 	ldr	r2, [pc, #240]	; 9be4 <lfn_print+0x150>
    9af0:	e59f30f8 	ldr	r3, [pc, #248]	; 9bf0 <lfn_print+0x15c>
    9af4:	eb0006e8 	bl	b69c <printk>
    9af8:	eb00085c 	bl	bc70 <rpi_reboot>
    9afc:	e1a05006 	mov	r5, r6
    9b00:	e2866020 	add	r6, r6, #32
    9b04:	e5d53000 	ldrb	r3, [r5]
    9b08:	e20330e5 	and	r3, r3, #229	; 0xe5
    9b0c:	e35300e5 	cmp	r3, #229	; 0xe5
    9b10:	1a000009 	bne	9b3c <lfn_print+0xa8>
    9b14:	e59f00d8 	ldr	r0, [pc, #216]	; 9bf4 <lfn_print+0x160>
    9b18:	e59f10c0 	ldr	r1, [pc, #192]	; 9be0 <lfn_print+0x14c>
    9b1c:	e59f20c0 	ldr	r2, [pc, #192]	; 9be4 <lfn_print+0x150>
    9b20:	e59f30d0 	ldr	r3, [pc, #208]	; 9bf8 <lfn_print+0x164>
    9b24:	eb0006dc 	bl	b69c <printk>
    9b28:	eb000850 	bl	bc70 <rpi_reboot>
    9b2c:	e2806020 	add	r6, r0, #32
    9b30:	e1a05000 	mov	r5, r0
    9b34:	e3a04000 	mov	r4, #0
    9b38:	e59fa0bc 	ldr	sl, [pc, #188]	; 9bfc <lfn_print+0x168>
    9b3c:	e3590000 	cmp	r9, #0
    9b40:	0a000005 	beq	9b5c <lfn_print+0xc8>
    9b44:	e1a0000a 	mov	r0, sl
    9b48:	e1a01004 	mov	r1, r4
    9b4c:	eb0006d2 	bl	b69c <printk>
    9b50:	e1a00005 	mov	r0, r5
    9b54:	e1a01007 	mov	r1, r7
    9b58:	ebffff5f 	bl	98dc <lfn_print_ent>
    9b5c:	e5d5300d 	ldrb	r3, [r5, #13]
    9b60:	e1530007 	cmp	r3, r7
    9b64:	0a000005 	beq	9b80 <lfn_print+0xec>
    9b68:	e59f0090 	ldr	r0, [pc, #144]	; 9c00 <lfn_print+0x16c>
    9b6c:	e59f106c 	ldr	r1, [pc, #108]	; 9be0 <lfn_print+0x14c>
    9b70:	e59f206c 	ldr	r2, [pc, #108]	; 9be4 <lfn_print+0x150>
    9b74:	e3a03f4e 	mov	r3, #312	; 0x138
    9b78:	eb0006c7 	bl	b69c <printk>
    9b7c:	eb00083b 	bl	bc70 <rpi_reboot>
    9b80:	e2844001 	add	r4, r4, #1
    9b84:	e1540008 	cmp	r4, r8
    9b88:	1affffdb 	bne	9afc <lfn_print+0x68>
    9b8c:	e5db3000 	ldrb	r3, [fp]
    9b90:	e3130040 	tst	r3, #64	; 0x40
    9b94:	1a000005 	bne	9bb0 <lfn_print+0x11c>
    9b98:	e59f0064 	ldr	r0, [pc, #100]	; 9c04 <lfn_print+0x170>
    9b9c:	e59f103c 	ldr	r1, [pc, #60]	; 9be0 <lfn_print+0x14c>
    9ba0:	e59f203c 	ldr	r2, [pc, #60]	; 9be4 <lfn_print+0x150>
    9ba4:	e59f305c 	ldr	r3, [pc, #92]	; 9c08 <lfn_print+0x174>
    9ba8:	eb0006bb 	bl	b69c <printk>
    9bac:	eb00082f 	bl	bc70 <rpi_reboot>
    9bb0:	e248837e 	sub	r8, r8, #-134217727	; 0xf8000001
    9bb4:	e7db3288 	ldrb	r3, [fp, r8, lsl #5]
    9bb8:	e20330bf 	and	r3, r3, #191	; 0xbf
    9bbc:	e3530001 	cmp	r3, #1
    9bc0:	08bd8ff8 	popeq	{r3, r4, r5, r6, r7, r8, r9, sl, fp, pc}
    9bc4:	e59f0040 	ldr	r0, [pc, #64]	; 9c0c <lfn_print+0x178>
    9bc8:	e59f1010 	ldr	r1, [pc, #16]	; 9be0 <lfn_print+0x14c>
    9bcc:	e59f2010 	ldr	r2, [pc, #16]	; 9be4 <lfn_print+0x150>
    9bd0:	e59f3038 	ldr	r3, [pc, #56]	; 9c10 <lfn_print+0x17c>
    9bd4:	eb0006b0 	bl	b69c <printk>
    9bd8:	eb000824 	bl	bc70 <rpi_reboot>
    9bdc:	0000d530 	andeq	sp, r0, r0, lsr r5
    9be0:	0000cb18 	andeq	ip, r0, r8, lsl fp
    9be4:	0000caa8 	andeq	ip, r0, r8, lsr #21
    9be8:	0000012e 	andeq	r0, r0, lr, lsr #2
    9bec:	0000d54c 	andeq	sp, r0, ip, asr #10
    9bf0:	00000131 	andeq	r0, r0, r1, lsr r1
    9bf4:	0000d598 	muleq	r0, r8, r5
    9bf8:	00000133 	andeq	r0, r0, r3, lsr r1
    9bfc:	0000d5c8 	andeq	sp, r0, r8, asr #11
    9c00:	0000d5d4 	ldrdeq	sp, [r0], -r4
    9c04:	0000d5f8 	strdeq	sp, [r0], -r8
    9c08:	0000013a 	andeq	r0, r0, sl, lsr r1
    9c0c:	0000d620 	andeq	sp, r0, r0, lsr #12
    9c10:	0000013b 	andeq	r0, r0, fp, lsr r1

00009c14 <fat32_dir_attr_str>:
    9c14:	e92d4010 	push	{r4, lr}
    9c18:	e24dd008 	sub	sp, sp, #8
    9c1c:	e1a04000 	mov	r4, r0
    9c20:	e350000f 	cmp	r0, #15
    9c24:	0a00004e 	beq	9d64 <fat32_dir_attr_str+0x150>
    9c28:	e3a02000 	mov	r2, #0
    9c2c:	e59f313c 	ldr	r3, [pc, #316]	; 9d70 <fat32_dir_attr_str+0x15c>
    9c30:	e5c32200 	strb	r2, [r3, #512]	; 0x200
    9c34:	e3100001 	tst	r0, #1
    9c38:	0a000003 	beq	9c4c <fat32_dir_attr_str+0x38>
    9c3c:	e2830c02 	add	r0, r3, #512	; 0x200
    9c40:	e59f112c 	ldr	r1, [pc, #300]	; 9d74 <fat32_dir_attr_str+0x160>
    9c44:	eb0008a4 	bl	bedc <strcat>
    9c48:	e3c44001 	bic	r4, r4, #1
    9c4c:	e3140002 	tst	r4, #2
    9c50:	0a000003 	beq	9c64 <fat32_dir_attr_str+0x50>
    9c54:	e59f011c 	ldr	r0, [pc, #284]	; 9d78 <fat32_dir_attr_str+0x164>
    9c58:	e59f111c 	ldr	r1, [pc, #284]	; 9d7c <fat32_dir_attr_str+0x168>
    9c5c:	eb00089e 	bl	bedc <strcat>
    9c60:	e3c44002 	bic	r4, r4, #2
    9c64:	e2443004 	sub	r3, r4, #4
    9c68:	e353001c 	cmp	r3, #28
    9c6c:	979ff103 	ldrls	pc, [pc, r3, lsl #2]
    9c70:	ea000034 	b	9d48 <fat32_dir_attr_str+0x134>
    9c74:	00009ce8 	andeq	r9, r0, r8, ror #25
    9c78:	00009d48 	andeq	r9, r0, r8, asr #26
    9c7c:	00009d48 	andeq	r9, r0, r8, asr #26
    9c80:	00009d48 	andeq	r9, r0, r8, asr #26
    9c84:	00009d00 	andeq	r9, r0, r0, lsl #26
    9c88:	00009d48 	andeq	r9, r0, r8, asr #26
    9c8c:	00009d48 	andeq	r9, r0, r8, asr #26
    9c90:	00009d48 	andeq	r9, r0, r8, asr #26
    9c94:	00009d48 	andeq	r9, r0, r8, asr #26
    9c98:	00009d48 	andeq	r9, r0, r8, asr #26
    9c9c:	00009d48 	andeq	r9, r0, r8, asr #26
    9ca0:	00009d48 	andeq	r9, r0, r8, asr #26
    9ca4:	00009d18 	andeq	r9, r0, r8, lsl sp
    9ca8:	00009d48 	andeq	r9, r0, r8, asr #26
    9cac:	00009d48 	andeq	r9, r0, r8, asr #26
    9cb0:	00009d48 	andeq	r9, r0, r8, asr #26
    9cb4:	00009d48 	andeq	r9, r0, r8, asr #26
    9cb8:	00009d48 	andeq	r9, r0, r8, asr #26
    9cbc:	00009d48 	andeq	r9, r0, r8, asr #26
    9cc0:	00009d48 	andeq	r9, r0, r8, asr #26
    9cc4:	00009d48 	andeq	r9, r0, r8, asr #26
    9cc8:	00009d48 	andeq	r9, r0, r8, asr #26
    9ccc:	00009d48 	andeq	r9, r0, r8, asr #26
    9cd0:	00009d48 	andeq	r9, r0, r8, asr #26
    9cd4:	00009d48 	andeq	r9, r0, r8, asr #26
    9cd8:	00009d48 	andeq	r9, r0, r8, asr #26
    9cdc:	00009d48 	andeq	r9, r0, r8, asr #26
    9ce0:	00009d48 	andeq	r9, r0, r8, asr #26
    9ce4:	00009d30 	andeq	r9, r0, r0, lsr sp
    9ce8:	e59f4088 	ldr	r4, [pc, #136]	; 9d78 <fat32_dir_attr_str+0x164>
    9cec:	e1a00004 	mov	r0, r4
    9cf0:	e59f1088 	ldr	r1, [pc, #136]	; 9d80 <fat32_dir_attr_str+0x16c>
    9cf4:	eb000878 	bl	bedc <strcat>
    9cf8:	e1a00004 	mov	r0, r4
    9cfc:	ea000019 	b	9d68 <fat32_dir_attr_str+0x154>
    9d00:	e59f4070 	ldr	r4, [pc, #112]	; 9d78 <fat32_dir_attr_str+0x164>
    9d04:	e1a00004 	mov	r0, r4
    9d08:	e59f1074 	ldr	r1, [pc, #116]	; 9d84 <fat32_dir_attr_str+0x170>
    9d0c:	eb000872 	bl	bedc <strcat>
    9d10:	e1a00004 	mov	r0, r4
    9d14:	ea000013 	b	9d68 <fat32_dir_attr_str+0x154>
    9d18:	e59f4058 	ldr	r4, [pc, #88]	; 9d78 <fat32_dir_attr_str+0x164>
    9d1c:	e1a00004 	mov	r0, r4
    9d20:	e59f1060 	ldr	r1, [pc, #96]	; 9d88 <fat32_dir_attr_str+0x174>
    9d24:	eb00086c 	bl	bedc <strcat>
    9d28:	e1a00004 	mov	r0, r4
    9d2c:	ea00000d 	b	9d68 <fat32_dir_attr_str+0x154>
    9d30:	e59f4040 	ldr	r4, [pc, #64]	; 9d78 <fat32_dir_attr_str+0x164>
    9d34:	e1a00004 	mov	r0, r4
    9d38:	e59f104c 	ldr	r1, [pc, #76]	; 9d8c <fat32_dir_attr_str+0x178>
    9d3c:	eb000866 	bl	bedc <strcat>
    9d40:	e1a00004 	mov	r0, r4
    9d44:	ea000007 	b	9d68 <fat32_dir_attr_str+0x154>
    9d48:	e58d4000 	str	r4, [sp]
    9d4c:	e59f003c 	ldr	r0, [pc, #60]	; 9d90 <fat32_dir_attr_str+0x17c>
    9d50:	e59f103c 	ldr	r1, [pc, #60]	; 9d94 <fat32_dir_attr_str+0x180>
    9d54:	e59f203c 	ldr	r2, [pc, #60]	; 9d98 <fat32_dir_attr_str+0x184>
    9d58:	e59f303c 	ldr	r3, [pc, #60]	; 9d9c <fat32_dir_attr_str+0x188>
    9d5c:	eb00064e 	bl	b69c <printk>
    9d60:	eb0007c2 	bl	bc70 <rpi_reboot>
    9d64:	e59f0034 	ldr	r0, [pc, #52]	; 9da0 <fat32_dir_attr_str+0x18c>
    9d68:	e28dd008 	add	sp, sp, #8
    9d6c:	e8bd8010 	pop	{r4, pc}
    9d70:	0000df7c 	andeq	sp, r0, ip, ror pc
    9d74:	0000d660 	andeq	sp, r0, r0, ror #12
    9d78:	0000e17c 	andeq	lr, r0, ip, ror r1
    9d7c:	0000d664 	andeq	sp, r0, r4, ror #12
    9d80:	0000d66c 	andeq	sp, r0, ip, ror #12
    9d84:	0000d67c 	andeq	sp, r0, ip, ror r6
    9d88:	0000d68c 	andeq	sp, r0, ip, lsl #13
    9d8c:	0000d694 	muleq	r0, r4, r6
    9d90:	0000d6a0 	andeq	sp, r0, r0, lsr #13
    9d94:	0000cb18 	andeq	ip, r0, r8, lsl fp
    9d98:	0000cab4 			; <UNDEFINED> instruction: 0x0000cab4
    9d9c:	00000186 	andeq	r0, r0, r6, lsl #3
    9da0:	0000d650 	andeq	sp, r0, r0, asr r6

00009da4 <fat32_dir_check>:
    9da4:	e12fff1e 	bx	lr

00009da8 <fat32_dirent_free>:
    9da8:	e5d03000 	ldrb	r3, [r0]
    9dac:	e5d0200b 	ldrb	r2, [r0, #11]
    9db0:	e352000f 	cmp	r2, #15
    9db4:	1a000004 	bne	9dcc <fat32_dirent_free+0x24>
    9db8:	e20330e5 	and	r3, r3, #229	; 0xe5
    9dbc:	e35300e5 	cmp	r3, #229	; 0xe5
    9dc0:	13a00000 	movne	r0, #0
    9dc4:	03a00001 	moveq	r0, #1
    9dc8:	e12fff1e 	bx	lr
    9dcc:	e3530000 	cmp	r3, #0
    9dd0:	135300e5 	cmpne	r3, #229	; 0xe5
    9dd4:	13a00000 	movne	r0, #0
    9dd8:	03a00001 	moveq	r0, #1
    9ddc:	e12fff1e 	bx	lr

00009de0 <fat32_dir_filename>:
    9de0:	e92d4070 	push	{r4, r5, r6, lr}
    9de4:	e1a05000 	mov	r5, r0
    9de8:	e1a04001 	mov	r4, r1
    9dec:	e1a06002 	mov	r6, r2
    9df0:	e1a00001 	mov	r0, r1
    9df4:	ebffffeb 	bl	9da8 <fat32_dirent_free>
    9df8:	e3500000 	cmp	r0, #0
    9dfc:	0a000005 	beq	9e18 <fat32_dir_filename+0x38>
    9e00:	e59f01b0 	ldr	r0, [pc, #432]	; 9fb8 <fat32_dir_filename+0x1d8>
    9e04:	e59f11b0 	ldr	r1, [pc, #432]	; 9fbc <fat32_dir_filename+0x1dc>
    9e08:	e59f21b0 	ldr	r2, [pc, #432]	; 9fc0 <fat32_dir_filename+0x1e0>
    9e0c:	e3a03d05 	mov	r3, #320	; 0x140
    9e10:	eb000621 	bl	b69c <printk>
    9e14:	eb000795 	bl	bc70 <rpi_reboot>
    9e18:	e5d4300b 	ldrb	r3, [r4, #11]
    9e1c:	e353000f 	cmp	r3, #15
    9e20:	1a00001f 	bne	9ea4 <fat32_dir_filename+0xc4>
    9e24:	e0640006 	rsb	r0, r4, r6
    9e28:	e1a002c0 	asr	r0, r0, #5
    9e2c:	e3500001 	cmp	r0, #1
    9e30:	da000052 	ble	9f80 <fat32_dir_filename+0x1a0>
    9e34:	e5d4302b 	ldrb	r3, [r4, #43]	; 0x2b
    9e38:	e353000f 	cmp	r3, #15
    9e3c:	1a000055 	bne	9f98 <fat32_dir_filename+0x1b8>
    9e40:	e1a03004 	mov	r3, r4
    9e44:	e3a01001 	mov	r1, #1
    9e48:	ea000003 	b	9e5c <fat32_dir_filename+0x7c>
    9e4c:	e2833020 	add	r3, r3, #32
    9e50:	e5d3202b 	ldrb	r2, [r3, #43]	; 0x2b
    9e54:	e352000f 	cmp	r2, #15
    9e58:	1a00004f 	bne	9f9c <fat32_dir_filename+0x1bc>
    9e5c:	e2811001 	add	r1, r1, #1
    9e60:	e1510000 	cmp	r1, r0
    9e64:	1afffff8 	bne	9e4c <fat32_dir_filename+0x6c>
    9e68:	ea000044 	b	9f80 <fat32_dir_filename+0x1a0>
    9e6c:	e3130020 	tst	r3, #32
    9e70:	1a000005 	bne	9e8c <fat32_dir_filename+0xac>
    9e74:	e59f0148 	ldr	r0, [pc, #328]	; 9fc4 <fat32_dir_filename+0x1e4>
    9e78:	e59f113c 	ldr	r1, [pc, #316]	; 9fbc <fat32_dir_filename+0x1dc>
    9e7c:	e59f213c 	ldr	r2, [pc, #316]	; 9fc0 <fat32_dir_filename+0x1e0>
    9e80:	e59f3140 	ldr	r3, [pc, #320]	; 9fc8 <fat32_dir_filename+0x1e8>
    9e84:	eb000604 	bl	b69c <printk>
    9e88:	eb000778 	bl	bc70 <rpi_reboot>
    9e8c:	e1a00004 	mov	r0, r4
    9e90:	ebfffecc 	bl	99c8 <lfn_get_name>
    9e94:	e1a01000 	mov	r1, r0
    9e98:	e1a00005 	mov	r0, r5
    9e9c:	eb000826 	bl	bf3c <strcpy>
    9ea0:	ea000042 	b	9fb0 <fat32_dir_filename+0x1d0>
    9ea4:	e3130010 	tst	r3, #16
    9ea8:	1a000009 	bne	9ed4 <fat32_dir_filename+0xf4>
    9eac:	e3130020 	tst	r3, #32
    9eb0:	1a000007 	bne	9ed4 <fat32_dir_filename+0xf4>
    9eb4:	e3130008 	tst	r3, #8
    9eb8:	1a000005 	bne	9ed4 <fat32_dir_filename+0xf4>
    9ebc:	e59f0108 	ldr	r0, [pc, #264]	; 9fcc <fat32_dir_filename+0x1ec>
    9ec0:	e59f10f4 	ldr	r1, [pc, #244]	; 9fbc <fat32_dir_filename+0x1dc>
    9ec4:	e59f20f4 	ldr	r2, [pc, #244]	; 9fc0 <fat32_dir_filename+0x1e0>
    9ec8:	e3a03e15 	mov	r3, #336	; 0x150
    9ecc:	eb0005f2 	bl	b69c <printk>
    9ed0:	eb000766 	bl	bc70 <rpi_reboot>
    9ed4:	e5d4000c 	ldrb	r0, [r4, #12]
    9ed8:	e3500018 	cmp	r0, #24
    9edc:	13a00000 	movne	r0, #0
    9ee0:	03a00001 	moveq	r0, #1
    9ee4:	e3a0c000 	mov	ip, #0
    9ee8:	e1a0300c 	mov	r3, ip
    9eec:	e7d42003 	ldrb	r2, [r4, r3]
    9ef0:	e3520020 	cmp	r2, #32
    9ef4:	0a000009 	beq	9f20 <fat32_dir_filename+0x140>
    9ef8:	e2421041 	sub	r1, r2, #65	; 0x41
    9efc:	e6ef1071 	uxtb	r1, r1
    9f00:	e3510019 	cmp	r1, #25
    9f04:	83a01000 	movhi	r1, #0
    9f08:	92001001 	andls	r1, r0, #1
    9f0c:	e3510000 	cmp	r1, #0
    9f10:	12822020 	addne	r2, r2, #32
    9f14:	16ef2072 	uxtbne	r2, r2
    9f18:	e7c5200c 	strb	r2, [r5, ip]
    9f1c:	e28cc001 	add	ip, ip, #1
    9f20:	e2833001 	add	r3, r3, #1
    9f24:	e3530008 	cmp	r3, #8
    9f28:	1affffef 	bne	9eec <fat32_dir_filename+0x10c>
    9f2c:	e3a0202e 	mov	r2, #46	; 0x2e
    9f30:	e7c5200c 	strb	r2, [r5, ip]
    9f34:	e085100c 	add	r1, r5, ip
    9f38:	e7d42003 	ldrb	r2, [r4, r3]
    9f3c:	e2426041 	sub	r6, r2, #65	; 0x41
    9f40:	e6ef6076 	uxtb	r6, r6
    9f44:	e3560019 	cmp	r6, #25
    9f48:	83a06000 	movhi	r6, #0
    9f4c:	92006001 	andls	r6, r0, #1
    9f50:	e3560000 	cmp	r6, #0
    9f54:	12822020 	addne	r2, r2, #32
    9f58:	16ef2072 	uxtbne	r2, r2
    9f5c:	e5e12001 	strb	r2, [r1, #1]!
    9f60:	e2833001 	add	r3, r3, #1
    9f64:	e353000b 	cmp	r3, #11
    9f68:	1afffff2 	bne	9f38 <fat32_dir_filename+0x158>
    9f6c:	e085c00c 	add	ip, r5, ip
    9f70:	e3a03000 	mov	r3, #0
    9f74:	e5cc3004 	strb	r3, [ip, #4]
    9f78:	e1a06004 	mov	r6, r4
    9f7c:	ea00000b 	b	9fb0 <fat32_dir_filename+0x1d0>
    9f80:	e59f0048 	ldr	r0, [pc, #72]	; 9fd0 <fat32_dir_filename+0x1f0>
    9f84:	e59f1030 	ldr	r1, [pc, #48]	; 9fbc <fat32_dir_filename+0x1dc>
    9f88:	e59f2030 	ldr	r2, [pc, #48]	; 9fc0 <fat32_dir_filename+0x1e0>
    9f8c:	e59f3040 	ldr	r3, [pc, #64]	; 9fd4 <fat32_dir_filename+0x1f4>
    9f90:	eb0005c1 	bl	b69c <printk>
    9f94:	eb000735 	bl	bc70 <rpi_reboot>
    9f98:	e3a01001 	mov	r1, #1
    9f9c:	e0846281 	add	r6, r4, r1, lsl #5
    9fa0:	e5d6300b 	ldrb	r3, [r6, #11]
    9fa4:	e3130010 	tst	r3, #16
    9fa8:	1affffb7 	bne	9e8c <fat32_dir_filename+0xac>
    9fac:	eaffffae 	b	9e6c <fat32_dir_filename+0x8c>
    9fb0:	e1a00006 	mov	r0, r6
    9fb4:	e8bd8070 	pop	{r4, r5, r6, pc}
    9fb8:	0000d6c4 	andeq	sp, r0, r4, asr #13
    9fbc:	0000cb18 	andeq	ip, r0, r8, lsl fp
    9fc0:	0000cac8 	andeq	ip, r0, r8, asr #21
    9fc4:	0000d6ec 	andeq	sp, r0, ip, ror #13
    9fc8:	0000014a 	andeq	r0, r0, sl, asr #2
    9fcc:	0000d744 	andeq	sp, r0, r4, asr #14
    9fd0:	0000d7ac 	andeq	sp, r0, ip, lsr #15
    9fd4:	00000149 	andeq	r0, r0, r9, asr #2

00009fd8 <fat32_dir_print>:
    9fd8:	e92d4070 	push	{r4, r5, r6, lr}
    9fdc:	e1a03000 	mov	r3, r0
    9fe0:	e1a04001 	mov	r4, r1
    9fe4:	e1a06002 	mov	r6, r2
    9fe8:	e59f0274 	ldr	r0, [pc, #628]	; a264 <fat32_dir_print+0x28c>
    9fec:	e1a01003 	mov	r1, r3
    9ff0:	eb0005a9 	bl	b69c <printk>
    9ff4:	e1a00004 	mov	r0, r4
    9ff8:	ebffff6a 	bl	9da8 <fat32_dirent_free>
    9ffc:	e3500000 	cmp	r0, #0
    a000:	0a000003 	beq	a014 <fat32_dir_print+0x3c>
    a004:	e59f025c 	ldr	r0, [pc, #604]	; a268 <fat32_dir_print+0x290>
    a008:	eb0005a3 	bl	b69c <printk>
    a00c:	e3a00001 	mov	r0, #1
    a010:	e8bd8070 	pop	{r4, r5, r6, pc}
    a014:	e5d4500b 	ldrb	r5, [r4, #11]
    a018:	e355000f 	cmp	r5, #15
    a01c:	1a000029 	bne	a0c8 <fat32_dir_print+0xf0>
    a020:	e3560001 	cmp	r6, #1
    a024:	da000082 	ble	a234 <fat32_dir_print+0x25c>
    a028:	e5d4302b 	ldrb	r3, [r4, #43]	; 0x2b
    a02c:	e353000f 	cmp	r3, #15
    a030:	1a000085 	bne	a24c <fat32_dir_print+0x274>
    a034:	e1a03004 	mov	r3, r4
    a038:	e3a05001 	mov	r5, #1
    a03c:	ea000003 	b	a050 <fat32_dir_print+0x78>
    a040:	e2833020 	add	r3, r3, #32
    a044:	e5d3102b 	ldrb	r1, [r3, #43]	; 0x2b
    a048:	e351000f 	cmp	r1, #15
    a04c:	1a00007f 	bne	a250 <fat32_dir_print+0x278>
    a050:	e2855001 	add	r5, r5, #1
    a054:	e1550006 	cmp	r5, r6
    a058:	1afffff8 	bne	a040 <fat32_dir_print+0x68>
    a05c:	ea000074 	b	a234 <fat32_dir_print+0x25c>
    a060:	e3130020 	tst	r3, #32
    a064:	1a000005 	bne	a080 <fat32_dir_print+0xa8>
    a068:	e59f01fc 	ldr	r0, [pc, #508]	; a26c <fat32_dir_print+0x294>
    a06c:	e59f11fc 	ldr	r1, [pc, #508]	; a270 <fat32_dir_print+0x298>
    a070:	e59f21fc 	ldr	r2, [pc, #508]	; a274 <fat32_dir_print+0x29c>
    a074:	e59f31fc 	ldr	r3, [pc, #508]	; a278 <fat32_dir_print+0x2a0>
    a078:	eb000587 	bl	b69c <printk>
    a07c:	eb0006fb 	bl	bc70 <rpi_reboot>
    a080:	e59f01f4 	ldr	r0, [pc, #500]	; a27c <fat32_dir_print+0x2a4>
    a084:	eb000584 	bl	b69c <printk>
    a088:	e1a00006 	mov	r0, r6
    a08c:	ebfffdfb 	bl	9880 <lfn_checksum>
    a090:	e1a02000 	mov	r2, r0
    a094:	e1a00004 	mov	r0, r4
    a098:	e1a01005 	mov	r1, r5
    a09c:	e3a03000 	mov	r3, #0
    a0a0:	ebfffe7b 	bl	9a94 <lfn_print>
    a0a4:	e1a00004 	mov	r0, r4
    a0a8:	e1a01005 	mov	r1, r5
    a0ac:	ebfffe45 	bl	99c8 <lfn_get_name>
    a0b0:	e1a01000 	mov	r1, r0
    a0b4:	e59f01c4 	ldr	r0, [pc, #452]	; a280 <fat32_dir_print+0x2a8>
    a0b8:	eb000577 	bl	b69c <printk>
    a0bc:	e2855001 	add	r5, r5, #1
    a0c0:	e1a04006 	mov	r4, r6
    a0c4:	ea00000c 	b	a0fc <fat32_dir_print+0x124>
    a0c8:	e3150010 	tst	r5, #16
    a0cc:	13a05001 	movne	r5, #1
    a0d0:	1a000009 	bne	a0fc <fat32_dir_print+0x124>
    a0d4:	e1a00005 	mov	r0, r5
    a0d8:	ebfffecd 	bl	9c14 <fat32_dir_attr_str>
    a0dc:	e1a02000 	mov	r2, r0
    a0e0:	e59f019c 	ldr	r0, [pc, #412]	; a284 <fat32_dir_print+0x2ac>
    a0e4:	e1a01005 	mov	r1, r5
    a0e8:	eb00056b 	bl	b69c <printk>
    a0ec:	e5d4300b 	ldrb	r3, [r4, #11]
    a0f0:	e3130020 	tst	r3, #32
    a0f4:	03a05001 	moveq	r5, #1
    a0f8:	1a00004b 	bne	a22c <fat32_dir_print+0x254>
    a0fc:	e59f0178 	ldr	r0, [pc, #376]	; a27c <fat32_dir_print+0x2a4>
    a100:	eb000565 	bl	b69c <printk>
    a104:	e59f017c 	ldr	r0, [pc, #380]	; a288 <fat32_dir_print+0x2b0>
    a108:	e1a01004 	mov	r1, r4
    a10c:	eb000562 	bl	b69c <printk>
    a110:	e59f0174 	ldr	r0, [pc, #372]	; a28c <fat32_dir_print+0x2b4>
    a114:	e5d4100b 	ldrb	r1, [r4, #11]
    a118:	eb00055f 	bl	b69c <printk>
    a11c:	e5d4300b 	ldrb	r3, [r4, #11]
    a120:	e353000f 	cmp	r3, #15
    a124:	0a00000f 	beq	a168 <fat32_dir_print+0x190>
    a128:	e3130001 	tst	r3, #1
    a12c:	0a000001 	beq	a138 <fat32_dir_print+0x160>
    a130:	e59f0158 	ldr	r0, [pc, #344]	; a290 <fat32_dir_print+0x2b8>
    a134:	eb000558 	bl	b69c <printk>
    a138:	e5d4300b 	ldrb	r3, [r4, #11]
    a13c:	e3130002 	tst	r3, #2
    a140:	0a000001 	beq	a14c <fat32_dir_print+0x174>
    a144:	e59f0148 	ldr	r0, [pc, #328]	; a294 <fat32_dir_print+0x2bc>
    a148:	eb000553 	bl	b69c <printk>
    a14c:	e5d4300b 	ldrb	r3, [r4, #11]
    a150:	e3130004 	tst	r3, #4
    a154:	0a000001 	beq	a160 <fat32_dir_print+0x188>
    a158:	e59f0138 	ldr	r0, [pc, #312]	; a298 <fat32_dir_print+0x2c0>
    a15c:	eb00054e 	bl	b69c <printk>
    a160:	e59f0114 	ldr	r0, [pc, #276]	; a27c <fat32_dir_print+0x2a4>
    a164:	eb00054c 	bl	b69c <printk>
    a168:	e59f012c 	ldr	r0, [pc, #300]	; a29c <fat32_dir_print+0x2c4>
    a16c:	e5d4100d 	ldrb	r1, [r4, #13]
    a170:	eb000549 	bl	b69c <printk>
    a174:	e5d4300e 	ldrb	r3, [r4, #14]
    a178:	e5d4100f 	ldrb	r1, [r4, #15]
    a17c:	e59f011c 	ldr	r0, [pc, #284]	; a2a0 <fat32_dir_print+0x2c8>
    a180:	e1831401 	orr	r1, r3, r1, lsl #8
    a184:	eb000544 	bl	b69c <printk>
    a188:	e5d43010 	ldrb	r3, [r4, #16]
    a18c:	e5d41011 	ldrb	r1, [r4, #17]
    a190:	e59f010c 	ldr	r0, [pc, #268]	; a2a4 <fat32_dir_print+0x2cc>
    a194:	e1831401 	orr	r1, r3, r1, lsl #8
    a198:	eb00053f 	bl	b69c <printk>
    a19c:	e5d43012 	ldrb	r3, [r4, #18]
    a1a0:	e5d41013 	ldrb	r1, [r4, #19]
    a1a4:	e59f00fc 	ldr	r0, [pc, #252]	; a2a8 <fat32_dir_print+0x2d0>
    a1a8:	e1831401 	orr	r1, r3, r1, lsl #8
    a1ac:	eb00053a 	bl	b69c <printk>
    a1b0:	e5d43014 	ldrb	r3, [r4, #20]
    a1b4:	e5d41015 	ldrb	r1, [r4, #21]
    a1b8:	e59f00ec 	ldr	r0, [pc, #236]	; a2ac <fat32_dir_print+0x2d4>
    a1bc:	e1831401 	orr	r1, r3, r1, lsl #8
    a1c0:	eb000535 	bl	b69c <printk>
    a1c4:	e5d43016 	ldrb	r3, [r4, #22]
    a1c8:	e5d41017 	ldrb	r1, [r4, #23]
    a1cc:	e59f00dc 	ldr	r0, [pc, #220]	; a2b0 <fat32_dir_print+0x2d8>
    a1d0:	e1831401 	orr	r1, r3, r1, lsl #8
    a1d4:	eb000530 	bl	b69c <printk>
    a1d8:	e5d43018 	ldrb	r3, [r4, #24]
    a1dc:	e5d41019 	ldrb	r1, [r4, #25]
    a1e0:	e59f00cc 	ldr	r0, [pc, #204]	; a2b4 <fat32_dir_print+0x2dc>
    a1e4:	e1831401 	orr	r1, r3, r1, lsl #8
    a1e8:	eb00052b 	bl	b69c <printk>
    a1ec:	e5d4301a 	ldrb	r3, [r4, #26]
    a1f0:	e5d4101b 	ldrb	r1, [r4, #27]
    a1f4:	e59f00bc 	ldr	r0, [pc, #188]	; a2b8 <fat32_dir_print+0x2e0>
    a1f8:	e1831401 	orr	r1, r3, r1, lsl #8
    a1fc:	eb000526 	bl	b69c <printk>
    a200:	e5d4301c 	ldrb	r3, [r4, #28]
    a204:	e5d4201d 	ldrb	r2, [r4, #29]
    a208:	e1833402 	orr	r3, r3, r2, lsl #8
    a20c:	e5d4201e 	ldrb	r2, [r4, #30]
    a210:	e1833802 	orr	r3, r3, r2, lsl #16
    a214:	e5d4101f 	ldrb	r1, [r4, #31]
    a218:	e59f009c 	ldr	r0, [pc, #156]	; a2bc <fat32_dir_print+0x2e4>
    a21c:	e1831c01 	orr	r1, r3, r1, lsl #24
    a220:	eb00051d 	bl	b69c <printk>
    a224:	e1a00005 	mov	r0, r5
    a228:	e8bd8070 	pop	{r4, r5, r6, pc}
    a22c:	e3a00001 	mov	r0, #1
    a230:	e8bd8070 	pop	{r4, r5, r6, pc}
    a234:	e59f0084 	ldr	r0, [pc, #132]	; a2c0 <fat32_dir_print+0x2e8>
    a238:	e59f1030 	ldr	r1, [pc, #48]	; a270 <fat32_dir_print+0x298>
    a23c:	e59f2030 	ldr	r2, [pc, #48]	; a274 <fat32_dir_print+0x29c>
    a240:	e59f307c 	ldr	r3, [pc, #124]	; a2c4 <fat32_dir_print+0x2ec>
    a244:	eb000514 	bl	b69c <printk>
    a248:	eb000688 	bl	bc70 <rpi_reboot>
    a24c:	e3a05001 	mov	r5, #1
    a250:	e0846285 	add	r6, r4, r5, lsl #5
    a254:	e5d6300b 	ldrb	r3, [r6, #11]
    a258:	e3130010 	tst	r3, #16
    a25c:	1affff87 	bne	a080 <fat32_dir_print+0xa8>
    a260:	eaffff7e 	b	a060 <fat32_dir_print+0x88>
    a264:	0000d7c4 	andeq	sp, r0, r4, asr #15
    a268:	0000d7cc 	andeq	sp, r0, ip, asr #15
    a26c:	0000d6ec 	andeq	sp, r0, ip, ror #13
    a270:	0000cb18 	andeq	ip, r0, r8, lsl fp
    a274:	0000cadc 	ldrdeq	ip, [r0], -ip	; <UNPREDICTABLE>
    a278:	000001b2 			; <UNDEFINED> instruction: 0x000001b2
    a27c:	0000d9bc 			; <UNDEFINED> instruction: 0x0000d9bc
    a280:	0000d7e8 	andeq	sp, r0, r8, ror #15
    a284:	0000d808 	andeq	sp, r0, r8, lsl #16
    a288:	0000d828 	andeq	sp, r0, r8, lsr #16
    a28c:	0000d840 	andeq	sp, r0, r0, asr #16
    a290:	0000d854 	andeq	sp, r0, r4, asr r8
    a294:	0000d864 	andeq	sp, r0, r4, ror #16
    a298:	0000d870 	andeq	sp, r0, r0, ror r8
    a29c:	0000d88c 	andeq	sp, r0, ip, lsl #17
    a2a0:	0000d8a0 	andeq	sp, r0, r0, lsr #17
    a2a4:	0000d8b8 			; <UNDEFINED> instruction: 0x0000d8b8
    a2a8:	0000d8d0 	ldrdeq	sp, [r0], -r0
    a2ac:	0000d8e8 	andeq	sp, r0, r8, ror #17
    a2b0:	0000d900 	andeq	sp, r0, r0, lsl #18
    a2b4:	0000d918 	andeq	sp, r0, r8, lsl r9
    a2b8:	0000d930 	andeq	sp, r0, r0, lsr r9
    a2bc:	0000d948 	andeq	sp, r0, r8, asr #18
    a2c0:	0000d960 	andeq	sp, r0, r0, ror #18
    a2c4:	000001b1 			; <UNDEFINED> instruction: 0x000001b1

0000a2c8 <print_bytes>:
    a2c8:	e92d43f8 	push	{r3, r4, r5, r6, r7, r8, r9, lr}
    a2cc:	e1a03000 	mov	r3, r0
    a2d0:	e1a07001 	mov	r7, r1
    a2d4:	e1a06002 	mov	r6, r2
    a2d8:	e59f0050 	ldr	r0, [pc, #80]	; a330 <print_bytes+0x68>
    a2dc:	e1a01003 	mov	r1, r3
    a2e0:	eb0004ed 	bl	b69c <printk>
    a2e4:	e3560000 	cmp	r6, #0
    a2e8:	da00000d 	ble	a324 <print_bytes+0x5c>
    a2ec:	e3a04000 	mov	r4, #0
    a2f0:	e59f903c 	ldr	r9, [pc, #60]	; a334 <print_bytes+0x6c>
    a2f4:	e59f803c 	ldr	r8, [pc, #60]	; a338 <print_bytes+0x70>
    a2f8:	e1a05004 	mov	r5, r4
    a2fc:	e314000f 	tst	r4, #15
    a300:	1a000001 	bne	a30c <print_bytes+0x44>
    a304:	e1a00009 	mov	r0, r9
    a308:	eb0004e3 	bl	b69c <printk>
    a30c:	e1a00008 	mov	r0, r8
    a310:	e7d71005 	ldrb	r1, [r7, r5]
    a314:	eb0004e0 	bl	b69c <printk>
    a318:	e2844001 	add	r4, r4, #1
    a31c:	e1540006 	cmp	r4, r6
    a320:	1afffff4 	bne	a2f8 <print_bytes+0x30>
    a324:	e59f0010 	ldr	r0, [pc, #16]	; a33c <print_bytes+0x74>
    a328:	eb0004db 	bl	b69c <printk>
    a32c:	e8bd83f8 	pop	{r3, r4, r5, r6, r7, r8, r9, pc}
    a330:	0000d97c 	andeq	sp, r0, ip, ror r9
    a334:	0000d980 	andeq	sp, r0, r0, lsl #19
    a338:	0000d984 	andeq	sp, r0, r4, lsl #19
    a33c:	0000d9bc 			; <UNDEFINED> instruction: 0x0000d9bc

0000a340 <print_words>:
    a340:	e92d41f0 	push	{r4, r5, r6, r7, r8, lr}
    a344:	e1a03000 	mov	r3, r0
    a348:	e1a05001 	mov	r5, r1
    a34c:	e1a06002 	mov	r6, r2
    a350:	e59f0050 	ldr	r0, [pc, #80]	; a3a8 <print_words+0x68>
    a354:	e1a01003 	mov	r1, r3
    a358:	eb0004cf 	bl	b69c <printk>
    a35c:	e3560000 	cmp	r6, #0
    a360:	da00000d 	ble	a39c <print_words+0x5c>
    a364:	e2455004 	sub	r5, r5, #4
    a368:	e3a04000 	mov	r4, #0
    a36c:	e59f8038 	ldr	r8, [pc, #56]	; a3ac <print_words+0x6c>
    a370:	e59f7038 	ldr	r7, [pc, #56]	; a3b0 <print_words+0x70>
    a374:	e314000f 	tst	r4, #15
    a378:	1a000001 	bne	a384 <print_words+0x44>
    a37c:	e1a00008 	mov	r0, r8
    a380:	eb0004c5 	bl	b69c <printk>
    a384:	e1a00007 	mov	r0, r7
    a388:	e5b51004 	ldr	r1, [r5, #4]!
    a38c:	eb0004c2 	bl	b69c <printk>
    a390:	e2844001 	add	r4, r4, #1
    a394:	e1540006 	cmp	r4, r6
    a398:	1afffff5 	bne	a374 <print_words+0x34>
    a39c:	e59f0010 	ldr	r0, [pc, #16]	; a3b4 <print_words+0x74>
    a3a0:	eb0004bd 	bl	b69c <printk>
    a3a4:	e8bd81f0 	pop	{r4, r5, r6, r7, r8, pc}
    a3a8:	0000d97c 	andeq	sp, r0, ip, ror r9
    a3ac:	0000d980 	andeq	sp, r0, r0, lsl #19
    a3b0:	0000d98c 	andeq	sp, r0, ip, lsl #19
    a3b4:	0000d9bc 			; <UNDEFINED> instruction: 0x0000d9bc

0000a3b8 <dump_sector>:
    a3b8:	e92d4008 	push	{r3, lr}
    a3bc:	e59f0010 	ldr	r0, [pc, #16]	; a3d4 <dump_sector+0x1c>
    a3c0:	e59f1010 	ldr	r1, [pc, #16]	; a3d8 <dump_sector+0x20>
    a3c4:	e59f2010 	ldr	r2, [pc, #16]	; a3dc <dump_sector+0x24>
    a3c8:	e59f3010 	ldr	r3, [pc, #16]	; a3e0 <dump_sector+0x28>
    a3cc:	eb0004b2 	bl	b69c <printk>
    a3d0:	eb000626 	bl	bc70 <rpi_reboot>
    a3d4:	0000d994 	muleq	r0, r4, r9
    a3d8:	0000cb18 	andeq	ip, r0, r8, lsl fp
    a3dc:	0000caec 	andeq	ip, r0, ip, ror #21
    a3e0:	000001f2 	strdeq	r0, [r0], -r2

0000a3e4 <codepoint_len>:
    a3e4:	e59f3058 	ldr	r3, [pc, #88]	; a444 <codepoint_len+0x60>
    a3e8:	e5933000 	ldr	r3, [r3]
    a3ec:	e3530000 	cmp	r3, #0
    a3f0:	0a00000e 	beq	a430 <codepoint_len+0x4c>
    a3f4:	e59f1048 	ldr	r1, [pc, #72]	; a444 <codepoint_len+0x60>
    a3f8:	e3a02000 	mov	r2, #0
    a3fc:	e593c004 	ldr	ip, [r3, #4]
    a400:	e15c0000 	cmp	ip, r0
    a404:	8a000002 	bhi	a414 <codepoint_len+0x30>
    a408:	e5933008 	ldr	r3, [r3, #8]
    a40c:	e1500003 	cmp	r0, r3
    a410:	9a000003 	bls	a424 <codepoint_len+0x40>
    a414:	e2822001 	add	r2, r2, #1
    a418:	e5b13004 	ldr	r3, [r1, #4]!
    a41c:	e3530000 	cmp	r3, #0
    a420:	1afffff5 	bne	a3fc <codepoint_len+0x18>
    a424:	e3520004 	cmp	r2, #4
    a428:	da000001 	ble	a434 <codepoint_len+0x50>
    a42c:	ea000002 	b	a43c <codepoint_len+0x58>
    a430:	e3a02000 	mov	r2, #0
    a434:	e1a00002 	mov	r0, r2
    a438:	e12fff1e 	bx	lr
    a43c:	e3e00000 	mvn	r0, #0
    a440:	e12fff1e 	bx	lr
    a444:	0000c44c 	andeq	ip, r0, ip, asr #8

0000a448 <utf8_len>:
    a448:	e59f3080 	ldr	r3, [pc, #128]	; a4d0 <utf8_len+0x88>
    a44c:	e5933000 	ldr	r3, [r3]
    a450:	e3530000 	cmp	r3, #0
    a454:	0a000017 	beq	a4b8 <utf8_len+0x70>
    a458:	e1a0c000 	mov	ip, r0
    a45c:	e5d32000 	ldrb	r2, [r3]
    a460:	e1c00002 	bic	r0, r0, r2
    a464:	e5d33001 	ldrb	r3, [r3, #1]
    a468:	e1500003 	cmp	r0, r3
    a46c:	0a000013 	beq	a4c0 <utf8_len+0x78>
    a470:	e59f2058 	ldr	r2, [pc, #88]	; a4d0 <utf8_len+0x88>
    a474:	e3a00000 	mov	r0, #0
    a478:	ea000004 	b	a490 <utf8_len+0x48>
    a47c:	e5d31000 	ldrb	r1, [r3]
    a480:	e1cc1001 	bic	r1, ip, r1
    a484:	e5d33001 	ldrb	r3, [r3, #1]
    a488:	e1510003 	cmp	r1, r3
    a48c:	0a000005 	beq	a4a8 <utf8_len+0x60>
    a490:	e2800001 	add	r0, r0, #1
    a494:	e5b23004 	ldr	r3, [r2, #4]!
    a498:	e3530000 	cmp	r3, #0
    a49c:	1afffff6 	bne	a47c <utf8_len+0x34>
    a4a0:	e1a03000 	mov	r3, r0
    a4a4:	ea000000 	b	a4ac <utf8_len+0x64>
    a4a8:	e1a03000 	mov	r3, r0
    a4ac:	e3530004 	cmp	r3, #4
    a4b0:	d12fff1e 	bxle	lr
    a4b4:	ea000003 	b	a4c8 <utf8_len+0x80>
    a4b8:	e3a00000 	mov	r0, #0
    a4bc:	e12fff1e 	bx	lr
    a4c0:	e3a00000 	mov	r0, #0
    a4c4:	e12fff1e 	bx	lr
    a4c8:	e3e00000 	mvn	r0, #0
    a4cc:	e12fff1e 	bx	lr
    a4d0:	0000c44c 	andeq	ip, r0, ip, asr #8

0000a4d4 <to_utf8>:
    a4d4:	e92d40f8 	push	{r3, r4, r5, r6, r7, lr}
    a4d8:	e1a05000 	mov	r5, r0
    a4dc:	ebffffc0 	bl	a3e4 <codepoint_len>
    a4e0:	e2507000 	subs	r7, r0, #0
    a4e4:	ba00001c 	blt	a55c <to_utf8+0x88>
    a4e8:	e59f3074 	ldr	r3, [pc, #116]	; a564 <to_utf8+0x90>
    a4ec:	e5931000 	ldr	r1, [r3]
    a4f0:	e591600c 	ldr	r6, [r1, #12]
    a4f4:	e2472001 	sub	r2, r7, #1
    a4f8:	e0020692 	mul	r2, r2, r6
    a4fc:	e7933107 	ldr	r3, [r3, r7, lsl #2]
    a500:	e5d30000 	ldrb	r0, [r3]
    a504:	e0000235 	and	r0, r0, r5, lsr r2
    a508:	e5d33001 	ldrb	r3, [r3, #1]
    a50c:	e1800003 	orr	r0, r0, r3
    a510:	e59f3050 	ldr	r3, [pc, #80]	; a568 <to_utf8+0x94>
    a514:	e5c30000 	strb	r0, [r3]
    a518:	e0662002 	rsb	r2, r6, r2
    a51c:	e3570001 	cmp	r7, #1
    a520:	da000009 	ble	a54c <to_utf8+0x78>
    a524:	e2430001 	sub	r0, r3, #1
    a528:	e0800007 	add	r0, r0, r7
    a52c:	e5d1c000 	ldrb	ip, [r1]
    a530:	e00cc235 	and	ip, ip, r5, lsr r2
    a534:	e5d14001 	ldrb	r4, [r1, #1]
    a538:	e18cc004 	orr	ip, ip, r4
    a53c:	e5e3c001 	strb	ip, [r3, #1]!
    a540:	e0662002 	rsb	r2, r6, r2
    a544:	e1530000 	cmp	r3, r0
    a548:	1afffff7 	bne	a52c <to_utf8+0x58>
    a54c:	e59f0014 	ldr	r0, [pc, #20]	; a568 <to_utf8+0x94>
    a550:	e3a03000 	mov	r3, #0
    a554:	e7c03007 	strb	r3, [r0, r7]
    a558:	e8bd80f8 	pop	{r3, r4, r5, r6, r7, pc}
    a55c:	e3a00000 	mov	r0, #0
    a560:	e8bd80f8 	pop	{r3, r4, r5, r6, r7, pc}
    a564:	0000c44c 	andeq	ip, r0, ip, asr #8
    a568:	0000e1fc 	strdeq	lr, [r0], -ip

0000a56c <to_cp>:
    a56c:	e92d4070 	push	{r4, r5, r6, lr}
    a570:	e1a04000 	mov	r4, r0
    a574:	e5d05000 	ldrb	r5, [r0]
    a578:	e1a00005 	mov	r0, r5
    a57c:	ebffffb1 	bl	a448 <utf8_len>
    a580:	e2506000 	subs	r6, r0, #0
    a584:	ba000015 	blt	a5e0 <to_cp+0x74>
    a588:	e59f2068 	ldr	r2, [pc, #104]	; a5f8 <to_cp+0x8c>
    a58c:	e5920000 	ldr	r0, [r2]
    a590:	e590c00c 	ldr	ip, [r0, #12]
    a594:	e2463001 	sub	r3, r6, #1
    a598:	e0030c93 	mul	r3, r3, ip
    a59c:	e7922106 	ldr	r2, [r2, r6, lsl #2]
    a5a0:	e5d21000 	ldrb	r1, [r2]
    a5a4:	e0051001 	and	r1, r5, r1
    a5a8:	e1a01311 	lsl	r1, r1, r3
    a5ac:	e3560001 	cmp	r6, #1
    a5b0:	da00000c 	ble	a5e8 <to_cp+0x7c>
    a5b4:	e5d05000 	ldrb	r5, [r0]
    a5b8:	e1a02004 	mov	r2, r4
    a5bc:	e2444001 	sub	r4, r4, #1
    a5c0:	e0844006 	add	r4, r4, r6
    a5c4:	e06c3003 	rsb	r3, ip, r3
    a5c8:	e5f20001 	ldrb	r0, [r2, #1]!
    a5cc:	e0000005 	and	r0, r0, r5
    a5d0:	e1811310 	orr	r1, r1, r0, lsl r3
    a5d4:	e1520004 	cmp	r2, r4
    a5d8:	1afffff9 	bne	a5c4 <to_cp+0x58>
    a5dc:	ea000003 	b	a5f0 <to_cp+0x84>
    a5e0:	e3a00000 	mov	r0, #0
    a5e4:	e8bd8070 	pop	{r4, r5, r6, pc}
    a5e8:	e1a00001 	mov	r0, r1
    a5ec:	e8bd8070 	pop	{r4, r5, r6, pc}
    a5f0:	e1a00001 	mov	r0, r1
    a5f4:	e8bd8070 	pop	{r4, r5, r6, pc}
    a5f8:	0000c44c 	andeq	ip, r0, ip, asr #8

0000a5fc <test_main>:
    a5fc:	e92d47f0 	push	{r4, r5, r6, r7, r8, r9, sl, lr}
    a600:	e24dd020 	sub	sp, sp, #32
    a604:	e1a0c00d 	mov	ip, sp
    a608:	e59fe0c8 	ldr	lr, [pc, #200]	; a6d8 <test_main+0xdc>
    a60c:	e8be000f 	ldm	lr!, {r0, r1, r2, r3}
    a610:	e8ac000f 	stmia	ip!, {r0, r1, r2, r3}
    a614:	e89e000f 	ldm	lr, {r0, r1, r2, r3}
    a618:	e88c000f 	stm	ip, {r0, r1, r2, r3}
    a61c:	e59f00b8 	ldr	r0, [pc, #184]	; a6dc <test_main+0xe0>
    a620:	eb00041d 	bl	b69c <printk>
    a624:	e59f00b4 	ldr	r0, [pc, #180]	; a6e0 <test_main+0xe4>
    a628:	eb00041b 	bl	b69c <printk>
    a62c:	e59d0000 	ldr	r0, [sp]
    a630:	e3500000 	cmp	r0, #0
    a634:	0a000024 	beq	a6cc <test_main+0xd0>
    a638:	e1a0700d 	mov	r7, sp
    a63c:	e59f90a0 	ldr	r9, [pc, #160]	; a6e4 <test_main+0xe8>
    a640:	e3a0a000 	mov	sl, #0
    a644:	e59f609c 	ldr	r6, [pc, #156]	; a6e8 <test_main+0xec>
    a648:	e59f809c 	ldr	r8, [pc, #156]	; a6ec <test_main+0xf0>
    a64c:	ebffffa0 	bl	a4d4 <to_utf8>
    a650:	e2505000 	subs	r5, r0, #0
    a654:	1a000005 	bne	a670 <test_main+0x74>
    a658:	e59f0090 	ldr	r0, [pc, #144]	; a6f0 <test_main+0xf4>
    a65c:	e59f1090 	ldr	r1, [pc, #144]	; a6f4 <test_main+0xf8>
    a660:	e59f2090 	ldr	r2, [pc, #144]	; a6f8 <test_main+0xfc>
    a664:	e3a0306c 	mov	r3, #108	; 0x6c
    a668:	eb00040b 	bl	b69c <printk>
    a66c:	eb00057f 	bl	bc70 <rpi_reboot>
    a670:	e1a00005 	mov	r0, r5
    a674:	ebffffbc 	bl	a56c <to_cp>
    a678:	e1a02000 	mov	r2, r0
    a67c:	e1a00009 	mov	r0, r9
    a680:	e1a01005 	mov	r1, r5
    a684:	eb000404 	bl	b69c <printk>
    a688:	e5d51000 	ldrb	r1, [r5]
    a68c:	e3510000 	cmp	r1, #0
    a690:	0a000008 	beq	a6b8 <test_main+0xbc>
    a694:	e1a0400a 	mov	r4, sl
    a698:	e1a00006 	mov	r0, r6
    a69c:	eb0003fe 	bl	b69c <printk>
    a6a0:	e2844001 	add	r4, r4, #1
    a6a4:	e5f51001 	ldrb	r1, [r5, #1]!
    a6a8:	e3510000 	cmp	r1, #0
    a6ac:	0a000001 	beq	a6b8 <test_main+0xbc>
    a6b0:	e3540004 	cmp	r4, #4
    a6b4:	1afffff7 	bne	a698 <test_main+0x9c>
    a6b8:	e1a00008 	mov	r0, r8
    a6bc:	eb0003f6 	bl	b69c <printk>
    a6c0:	e5b70004 	ldr	r0, [r7, #4]!
    a6c4:	e3500000 	cmp	r0, #0
    a6c8:	1affffdf 	bne	a64c <test_main+0x50>
    a6cc:	e3a00000 	mov	r0, #0
    a6d0:	e28dd020 	add	sp, sp, #32
    a6d4:	e8bd87f0 	pop	{r4, r5, r6, r7, r8, r9, sl, pc}
    a6d8:	0000d9c0 	andeq	sp, r0, r0, asr #19
    a6dc:	0000d9ec 	andeq	sp, r0, ip, ror #19
    a6e0:	0000da18 	andeq	sp, r0, r8, lsl sl
    a6e4:	0000da7c 	andeq	sp, r0, ip, ror sl
    a6e8:	0000d850 	andeq	sp, r0, r0, asr r8
    a6ec:	0000d9bc 			; <UNDEFINED> instruction: 0x0000d9bc
    a6f0:	0000da44 	andeq	sp, r0, r4, asr #20
    a6f4:	0000da5c 	andeq	sp, r0, ip, asr sl
    a6f8:	0000d9e0 	andeq	sp, r0, r0, ror #19

0000a6fc <sd_status>:
    a6fc:	e92d41f0 	push	{r4, r5, r6, r7, r8, lr}
    a700:	e1a06000 	mov	r6, r0
    a704:	e59f3098 	ldr	r3, [pc, #152]	; a7a4 <sd_status+0xa8>
    a708:	e5933024 	ldr	r3, [r3, #36]	; 0x24
    a70c:	e1100003 	tst	r0, r3
    a710:	0a000017 	beq	a774 <sd_status+0x78>
    a714:	e59f3088 	ldr	r3, [pc, #136]	; a7a4 <sd_status+0xa8>
    a718:	e5932030 	ldr	r2, [r3, #48]	; 0x30
    a71c:	e59f3084 	ldr	r3, [pc, #132]	; a7a8 <sd_status+0xac>
    a720:	e0023003 	and	r3, r2, r3
    a724:	e3530000 	cmp	r3, #0
    a728:	1a000011 	bne	a774 <sd_status+0x78>
    a72c:	e59f4078 	ldr	r4, [pc, #120]	; a7ac <sd_status+0xb0>
    a730:	e3a07001 	mov	r7, #1
    a734:	e59f5068 	ldr	r5, [pc, #104]	; a7a4 <sd_status+0xa8>
    a738:	e59f8068 	ldr	r8, [pc, #104]	; a7a8 <sd_status+0xac>
    a73c:	e1a00007 	mov	r0, r7
    a740:	eb000585 	bl	bd5c <delay_ms>
    a744:	e5953024 	ldr	r3, [r5, #36]	; 0x24
    a748:	e1160003 	tst	r6, r3
    a74c:	0a000006 	beq	a76c <sd_status+0x70>
    a750:	e5953030 	ldr	r3, [r5, #48]	; 0x30
    a754:	e1130008 	tst	r3, r8
    a758:	1a000003 	bne	a76c <sd_status+0x70>
    a75c:	e2444001 	sub	r4, r4, #1
    a760:	e3740001 	cmn	r4, #1
    a764:	1afffff4 	bne	a73c <sd_status+0x40>
    a768:	ea000009 	b	a794 <sd_status+0x98>
    a76c:	e3540000 	cmp	r4, #0
    a770:	da000009 	ble	a79c <sd_status+0xa0>
    a774:	e59f3028 	ldr	r3, [pc, #40]	; a7a4 <sd_status+0xa8>
    a778:	e5932030 	ldr	r2, [r3, #48]	; 0x30
    a77c:	e59f3024 	ldr	r3, [pc, #36]	; a7a8 <sd_status+0xac>
    a780:	e0023003 	and	r3, r2, r3
    a784:	e3530000 	cmp	r3, #0
    a788:	03a00000 	moveq	r0, #0
    a78c:	13e00001 	mvnne	r0, #1
    a790:	e8bd81f0 	pop	{r4, r5, r6, r7, r8, pc}
    a794:	e3e00001 	mvn	r0, #1
    a798:	e8bd81f0 	pop	{r4, r5, r6, r7, r8, pc}
    a79c:	e3e00001 	mvn	r0, #1
    a7a0:	e8bd81f0 	pop	{r4, r5, r6, r7, r8, pc}
    a7a4:	20300000 	eorscs	r0, r0, r0
    a7a8:	017e8000 	cmneq	lr, r0
    a7ac:	0007a11f 	andeq	sl, r7, pc, lsl r1

0000a7b0 <sd_int>:
    a7b0:	e92d41f0 	push	{r4, r5, r6, r7, r8, lr}
    a7b4:	e1a08000 	mov	r8, r0
    a7b8:	e380575f 	orr	r5, r0, #24903680	; 0x17c0000
    a7bc:	e385590a 	orr	r5, r5, #163840	; 0x28000
    a7c0:	e59f309c 	ldr	r3, [pc, #156]	; a864 <sd_int+0xb4>
    a7c4:	e5933030 	ldr	r3, [r3, #48]	; 0x30
    a7c8:	e1150003 	tst	r5, r3
    a7cc:	1a00001e 	bne	a84c <sd_int+0x9c>
    a7d0:	e59f4090 	ldr	r4, [pc, #144]	; a868 <sd_int+0xb8>
    a7d4:	e3a07001 	mov	r7, #1
    a7d8:	e59f6084 	ldr	r6, [pc, #132]	; a864 <sd_int+0xb4>
    a7dc:	e1a00007 	mov	r0, r7
    a7e0:	eb00055d 	bl	bd5c <delay_ms>
    a7e4:	e5963030 	ldr	r3, [r6, #48]	; 0x30
    a7e8:	e1150003 	tst	r5, r3
    a7ec:	1a000003 	bne	a800 <sd_int+0x50>
    a7f0:	e2444001 	sub	r4, r4, #1
    a7f4:	e3740001 	cmn	r4, #1
    a7f8:	1afffff7 	bne	a7dc <sd_int+0x2c>
    a7fc:	ea000015 	b	a858 <sd_int+0xa8>
    a800:	e59f305c 	ldr	r3, [pc, #92]	; a864 <sd_int+0xb4>
    a804:	e5932030 	ldr	r2, [r3, #48]	; 0x30
    a808:	e3540000 	cmp	r4, #0
    a80c:	da000001 	ble	a818 <sd_int+0x68>
    a810:	e3120811 	tst	r2, #1114112	; 0x110000
    a814:	0a000003 	beq	a828 <sd_int+0x78>
    a818:	e59f3044 	ldr	r3, [pc, #68]	; a864 <sd_int+0xb4>
    a81c:	e5832030 	str	r2, [r3, #48]	; 0x30
    a820:	e3e00000 	mvn	r0, #0
    a824:	e8bd81f0 	pop	{r4, r5, r6, r7, r8, pc}
    a828:	e59f303c 	ldr	r3, [pc, #60]	; a86c <sd_int+0xbc>
    a82c:	e0023003 	and	r3, r2, r3
    a830:	e3530000 	cmp	r3, #0
    a834:	e59f3028 	ldr	r3, [pc, #40]	; a864 <sd_int+0xb4>
    a838:	15832030 	strne	r2, [r3, #48]	; 0x30
    a83c:	13e00001 	mvnne	r0, #1
    a840:	05838030 	streq	r8, [r3, #48]	; 0x30
    a844:	03a00000 	moveq	r0, #0
    a848:	e8bd81f0 	pop	{r4, r5, r6, r7, r8, pc}
    a84c:	e59f3010 	ldr	r3, [pc, #16]	; a864 <sd_int+0xb4>
    a850:	e5932030 	ldr	r2, [r3, #48]	; 0x30
    a854:	eaffffed 	b	a810 <sd_int+0x60>
    a858:	e59f3004 	ldr	r3, [pc, #4]	; a864 <sd_int+0xb4>
    a85c:	e5932030 	ldr	r2, [r3, #48]	; 0x30
    a860:	eaffffec 	b	a818 <sd_int+0x68>
    a864:	20300000 	eorscs	r0, r0, r0
    a868:	000f423f 	andeq	r4, pc, pc, lsr r2	; <UNPREDICTABLE>
    a86c:	017e8000 	cmneq	lr, r0

0000a870 <sd_cmd>:
    a870:	e92d40f8 	push	{r3, r4, r5, r6, r7, lr}
    a874:	e1a06001 	mov	r6, r1
    a878:	e3a02000 	mov	r2, #0
    a87c:	e59f31e4 	ldr	r3, [pc, #484]	; aa68 <sd_cmd+0x1f8>
    a880:	e5832000 	str	r2, [r3]
    a884:	e2504000 	subs	r4, r0, #0
    a888:	aa000013 	bge	a8dc <sd_cmd+0x6c>
    a88c:	e59f31d8 	ldr	r3, [pc, #472]	; aa6c <sd_cmd+0x1fc>
    a890:	e5931000 	ldr	r1, [r3]
    a894:	e59f01d4 	ldr	r0, [pc, #468]	; aa70 <sd_cmd+0x200>
    a898:	e1510002 	cmp	r1, r2
    a89c:	03a00437 	moveq	r0, #922746880	; 0x37000000
    a8a0:	ebfffff2 	bl	a870 <sd_cmd>
    a8a4:	e59f31c0 	ldr	r3, [pc, #448]	; aa6c <sd_cmd+0x1fc>
    a8a8:	e5933000 	ldr	r3, [r3]
    a8ac:	e3530000 	cmp	r3, #0
    a8b0:	0a000008 	beq	a8d8 <sd_cmd+0x68>
    a8b4:	e3500000 	cmp	r0, #0
    a8b8:	1a000006 	bne	a8d8 <sd_cmd+0x68>
    a8bc:	e59f01b0 	ldr	r0, [pc, #432]	; aa74 <sd_cmd+0x204>
    a8c0:	eb000375 	bl	b69c <printk>
    a8c4:	e3e02001 	mvn	r2, #1
    a8c8:	e59f3198 	ldr	r3, [pc, #408]	; aa68 <sd_cmd+0x1f8>
    a8cc:	e5832000 	str	r2, [r3]
    a8d0:	e3a05000 	mov	r5, #0
    a8d4:	ea000061 	b	aa60 <sd_cmd+0x1f0>
    a8d8:	e3c44102 	bic	r4, r4, #-2147483648	; 0x80000000
    a8dc:	e3a00001 	mov	r0, #1
    a8e0:	ebffff85 	bl	a6fc <sd_status>
    a8e4:	e2505000 	subs	r5, r0, #0
    a8e8:	0a000006 	beq	a908 <sd_cmd+0x98>
    a8ec:	e59f0184 	ldr	r0, [pc, #388]	; aa78 <sd_cmd+0x208>
    a8f0:	eb000369 	bl	b69c <printk>
    a8f4:	e3e02000 	mvn	r2, #0
    a8f8:	e59f3168 	ldr	r3, [pc, #360]	; aa68 <sd_cmd+0x1f8>
    a8fc:	e5832000 	str	r2, [r3]
    a900:	e3a05000 	mov	r5, #0
    a904:	ea000055 	b	aa60 <sd_cmd+0x1f0>
    a908:	e59f016c 	ldr	r0, [pc, #364]	; aa7c <sd_cmd+0x20c>
    a90c:	eb000362 	bl	b69c <printk>
    a910:	e1a00004 	mov	r0, r4
    a914:	eb0004ac 	bl	bbcc <uart_hex>
    a918:	e59f0160 	ldr	r0, [pc, #352]	; aa80 <sd_cmd+0x210>
    a91c:	eb00035e 	bl	b69c <printk>
    a920:	e1a00006 	mov	r0, r6
    a924:	eb0004a8 	bl	bbcc <uart_hex>
    a928:	e59f0154 	ldr	r0, [pc, #340]	; aa84 <sd_cmd+0x214>
    a92c:	eb00035a 	bl	b69c <printk>
    a930:	e59f3150 	ldr	r3, [pc, #336]	; aa88 <sd_cmd+0x218>
    a934:	e5932030 	ldr	r2, [r3, #48]	; 0x30
    a938:	e5832030 	str	r2, [r3, #48]	; 0x30
    a93c:	e5836008 	str	r6, [r3, #8]
    a940:	e583400c 	str	r4, [r3, #12]
    a944:	e59f3140 	ldr	r3, [pc, #320]	; aa8c <sd_cmd+0x21c>
    a948:	e1540003 	cmp	r4, r3
    a94c:	1a000002 	bne	a95c <sd_cmd+0xec>
    a950:	e3a00ffa 	mov	r0, #1000	; 0x3e8
    a954:	eb000500 	bl	bd5c <delay_ms>
    a958:	ea000005 	b	a974 <sd_cmd+0x104>
    a95c:	e59f312c 	ldr	r3, [pc, #300]	; aa90 <sd_cmd+0x220>
    a960:	e1540003 	cmp	r4, r3
    a964:	13540437 	cmpne	r4, #922746880	; 0x37000000
    a968:	1a000001 	bne	a974 <sd_cmd+0x104>
    a96c:	e3a00064 	mov	r0, #100	; 0x64
    a970:	eb0004f9 	bl	bd5c <delay_ms>
    a974:	e3a00001 	mov	r0, #1
    a978:	ebffff8c 	bl	a7b0 <sd_int>
    a97c:	e2507000 	subs	r7, r0, #0
    a980:	0a000004 	beq	a998 <sd_cmd+0x128>
    a984:	e59f0108 	ldr	r0, [pc, #264]	; aa94 <sd_cmd+0x224>
    a988:	eb000343 	bl	b69c <printk>
    a98c:	e59f30d4 	ldr	r3, [pc, #212]	; aa68 <sd_cmd+0x1f8>
    a990:	e5837000 	str	r7, [r3]
    a994:	ea000031 	b	aa60 <sd_cmd+0x1f0>
    a998:	e59f30e8 	ldr	r3, [pc, #232]	; aa88 <sd_cmd+0x218>
    a99c:	e5933010 	ldr	r3, [r3, #16]
    a9a0:	e3540000 	cmp	r4, #0
    a9a4:	13540437 	cmpne	r4, #922746880	; 0x37000000
    a9a8:	0a00002c 	beq	aa60 <sd_cmd+0x1f0>
    a9ac:	e59f20bc 	ldr	r2, [pc, #188]	; aa70 <sd_cmd+0x200>
    a9b0:	e1540002 	cmp	r4, r2
    a9b4:	02035020 	andeq	r5, r3, #32
    a9b8:	0a000028 	beq	aa60 <sd_cmd+0x1f0>
    a9bc:	e59f20c8 	ldr	r2, [pc, #200]	; aa8c <sd_cmd+0x21c>
    a9c0:	e1540002 	cmp	r4, r2
    a9c4:	01a05003 	moveq	r5, r3
    a9c8:	0a000024 	beq	aa60 <sd_cmd+0x1f0>
    a9cc:	e282245f 	add	r2, r2, #1593835520	; 0x5f000000
    a9d0:	e1560003 	cmp	r6, r3
    a9d4:	13e05001 	mvnne	r5, #1
    a9d8:	e1540002 	cmp	r4, r2
    a9dc:	0a00001f 	beq	aa60 <sd_cmd+0x1f0>
    a9e0:	e59f20b0 	ldr	r2, [pc, #176]	; aa98 <sd_cmd+0x228>
    a9e4:	e1540002 	cmp	r4, r2
    a9e8:	1a000007 	bne	aa0c <sd_cmd+0x19c>
    a9ec:	e59f2094 	ldr	r2, [pc, #148]	; aa88 <sd_cmd+0x218>
    a9f0:	e592501c 	ldr	r5, [r2, #28]
    a9f4:	e5921018 	ldr	r1, [r2, #24]
    a9f8:	e5922014 	ldr	r2, [r2, #20]
    a9fc:	e1855003 	orr	r5, r5, r3
    aa00:	e1855001 	orr	r5, r5, r1
    aa04:	e1855002 	orr	r5, r5, r2
    aa08:	ea000014 	b	aa60 <sd_cmd+0x1f0>
    aa0c:	e59f2088 	ldr	r2, [pc, #136]	; aa9c <sd_cmd+0x22c>
    aa10:	e1540002 	cmp	r4, r2
    aa14:	1a00000e 	bne	aa54 <sd_cmd+0x1e4>
    aa18:	e2031a02 	and	r1, r3, #8192	; 0x2000
    aa1c:	e2032901 	and	r2, r3, #16384	; 0x4000
    aa20:	e1a02402 	lsl	r2, r2, #8
    aa24:	e1822301 	orr	r2, r2, r1, lsl #6
    aa28:	e1a01983 	lsl	r1, r3, #19
    aa2c:	e18229a1 	orr	r2, r2, r1, lsr #19
    aa30:	e2031902 	and	r1, r3, #32768	; 0x8000
    aa34:	e1821401 	orr	r1, r2, r1, lsl #8
    aa38:	e59f2060 	ldr	r2, [pc, #96]	; aaa0 <sd_cmd+0x230>
    aa3c:	e0012002 	and	r2, r1, r2
    aa40:	e59f1020 	ldr	r1, [pc, #32]	; aa68 <sd_cmd+0x1f8>
    aa44:	e5812000 	str	r2, [r1]
    aa48:	e1a03823 	lsr	r3, r3, #16
    aa4c:	e1a05803 	lsl	r5, r3, #16
    aa50:	ea000002 	b	aa60 <sd_cmd+0x1f0>
    aa54:	e59f5048 	ldr	r5, [pc, #72]	; aaa4 <sd_cmd+0x234>
    aa58:	e0035005 	and	r5, r3, r5
    aa5c:	eaffffff 	b	aa60 <sd_cmd+0x1f0>
    aa60:	e1a00005 	mov	r0, r5
    aa64:	e8bd80f8 	pop	{r3, r4, r5, r6, r7, pc}
    aa68:	0000e618 	andeq	lr, r0, r8, lsl r6
    aa6c:	0000e61c 	andeq	lr, r0, ip, lsl r6
    aa70:	37020000 	strcc	r0, [r2, -r0]
    aa74:	0000da90 	muleq	r0, r0, sl
    aa78:	0000dab8 			; <UNDEFINED> instruction: 0x0000dab8
    aa7c:	0000dacc 	andeq	sp, r0, ip, asr #21
    aa80:	0000dae4 	andeq	sp, r0, r4, ror #21
    aa84:	0000d9bc 			; <UNDEFINED> instruction: 0x0000d9bc
    aa88:	20300000 	eorscs	r0, r0, r0
    aa8c:	a9020000 	stmdbge	r2, {}	; <UNPREDICTABLE>
    aa90:	08020000 	stmdaeq	r2, {}	; <UNPREDICTABLE>
    aa94:	0000daec 	andeq	sp, r0, ip, ror #21
    aa98:	02010000 	andeq	r0, r1, #0
    aa9c:	03020000 	movweq	r0, #8192	; 0x2000
    aaa0:	00c80004 	sbceq	r0, r8, r4
    aaa4:	fff9c004 			; <UNDEFINED> instruction: 0xfff9c004

0000aaa8 <sd_readblock>:
    aaa8:	e92d4ff0 	push	{r4, r5, r6, r7, r8, r9, sl, fp, lr}
    aaac:	e24dd00c 	sub	sp, sp, #12
    aab0:	e58d0004 	str	r0, [sp, #4]
    aab4:	e1a04001 	mov	r4, r1
    aab8:	e2528000 	subs	r8, r2, #0
    aabc:	e3520000 	cmp	r2, #0
    aac0:	03a08001 	moveq	r8, #1
    aac4:	e59f01ec 	ldr	r0, [pc, #492]	; acb8 <sd_readblock+0x210>
    aac8:	eb0002f3 	bl	b69c <printk>
    aacc:	e59d0004 	ldr	r0, [sp, #4]
    aad0:	eb00043d 	bl	bbcc <uart_hex>
    aad4:	e59f01e0 	ldr	r0, [pc, #480]	; acbc <sd_readblock+0x214>
    aad8:	eb0002ef 	bl	b69c <printk>
    aadc:	e1a00008 	mov	r0, r8
    aae0:	eb000439 	bl	bbcc <uart_hex>
    aae4:	e59f01d4 	ldr	r0, [pc, #468]	; acc0 <sd_readblock+0x218>
    aae8:	eb0002eb 	bl	b69c <printk>
    aaec:	e3a00002 	mov	r0, #2
    aaf0:	ebffff01 	bl	a6fc <sd_status>
    aaf4:	e3500000 	cmp	r0, #0
    aaf8:	e58d0000 	str	r0, [sp]
    aafc:	0a000005 	beq	ab18 <sd_readblock+0x70>
    ab00:	e3e02000 	mvn	r2, #0
    ab04:	e59f31b8 	ldr	r3, [pc, #440]	; acc4 <sd_readblock+0x21c>
    ab08:	e5832000 	str	r2, [r3]
    ab0c:	e3a03000 	mov	r3, #0
    ab10:	e58d3000 	str	r3, [sp]
    ab14:	ea000064 	b	acac <sd_readblock+0x204>
    ab18:	e59f31a8 	ldr	r3, [pc, #424]	; acc8 <sd_readblock+0x220>
    ab1c:	e5933000 	ldr	r3, [r3]
    ab20:	e3130001 	tst	r3, #1
    ab24:	0a000019 	beq	ab90 <sd_readblock+0xe8>
    ab28:	e3580001 	cmp	r8, #1
    ab2c:	9a000008 	bls	ab54 <sd_readblock+0xac>
    ab30:	e3130402 	tst	r3, #33554432	; 0x2000000
    ab34:	0a000006 	beq	ab54 <sd_readblock+0xac>
    ab38:	e59f018c 	ldr	r0, [pc, #396]	; accc <sd_readblock+0x224>
    ab3c:	e1a01008 	mov	r1, r8
    ab40:	ebffff4a 	bl	a870 <sd_cmd>
    ab44:	e59f3178 	ldr	r3, [pc, #376]	; acc4 <sd_readblock+0x21c>
    ab48:	e5933000 	ldr	r3, [r3]
    ab4c:	e3530000 	cmp	r3, #0
    ab50:	1a000055 	bne	acac <sd_readblock+0x204>
    ab54:	e1a02808 	lsl	r2, r8, #16
    ab58:	e3822c02 	orr	r2, r2, #512	; 0x200
    ab5c:	e59f316c 	ldr	r3, [pc, #364]	; acd0 <sd_readblock+0x228>
    ab60:	e5832004 	str	r2, [r3, #4]
    ab64:	e59f3168 	ldr	r3, [pc, #360]	; acd4 <sd_readblock+0x22c>
    ab68:	e59f0168 	ldr	r0, [pc, #360]	; acd8 <sd_readblock+0x230>
    ab6c:	e3580001 	cmp	r8, #1
    ab70:	01a00003 	moveq	r0, r3
    ab74:	e59d1004 	ldr	r1, [sp, #4]
    ab78:	ebffff3c 	bl	a870 <sd_cmd>
    ab7c:	e59f3140 	ldr	r3, [pc, #320]	; acc4 <sd_readblock+0x21c>
    ab80:	e5933000 	ldr	r3, [r3]
    ab84:	e3530000 	cmp	r3, #0
    ab88:	0a000003 	beq	ab9c <sd_readblock+0xf4>
    ab8c:	ea000046 	b	acac <sd_readblock+0x204>
    ab90:	e59f2144 	ldr	r2, [pc, #324]	; acdc <sd_readblock+0x234>
    ab94:	e59f3134 	ldr	r3, [pc, #308]	; acd0 <sd_readblock+0x228>
    ab98:	e5832004 	str	r2, [r3, #4]
    ab9c:	e3580000 	cmp	r8, #0
    aba0:	0a00003d 	beq	ac9c <sd_readblock+0x1f4>
    aba4:	e1a0a008 	mov	sl, r8
    aba8:	e3a07000 	mov	r7, #0
    abac:	e1a06007 	mov	r6, r7
    abb0:	e59f9110 	ldr	r9, [pc, #272]	; acc8 <sd_readblock+0x220>
    abb4:	e59fb108 	ldr	fp, [pc, #264]	; acc4 <sd_readblock+0x21c>
    abb8:	e59f5110 	ldr	r5, [pc, #272]	; acd0 <sd_readblock+0x228>
    abbc:	e1a02007 	mov	r2, r7
    abc0:	e1a07008 	mov	r7, r8
    abc4:	e59d8004 	ldr	r8, [sp, #4]
    abc8:	e5993000 	ldr	r3, [r9]
    abcc:	e3130001 	tst	r3, #1
    abd0:	1a000006 	bne	abf0 <sd_readblock+0x148>
    abd4:	e0821008 	add	r1, r2, r8
    abd8:	e59f00f4 	ldr	r0, [pc, #244]	; acd4 <sd_readblock+0x22c>
    abdc:	e1a01481 	lsl	r1, r1, #9
    abe0:	ebffff22 	bl	a870 <sd_cmd>
    abe4:	e59b3000 	ldr	r3, [fp]
    abe8:	e3530000 	cmp	r3, #0
    abec:	1a00002e 	bne	acac <sd_readblock+0x204>
    abf0:	e3a00020 	mov	r0, #32
    abf4:	ebfffeed 	bl	a7b0 <sd_int>
    abf8:	e3500000 	cmp	r0, #0
    abfc:	0a000005 	beq	ac18 <sd_readblock+0x170>
    ac00:	e1a07000 	mov	r7, r0
    ac04:	e59f00d4 	ldr	r0, [pc, #212]	; ace0 <sd_readblock+0x238>
    ac08:	eb0002a3 	bl	b69c <printk>
    ac0c:	e59f30b0 	ldr	r3, [pc, #176]	; acc4 <sd_readblock+0x21c>
    ac10:	e5837000 	str	r7, [r3]
    ac14:	ea000024 	b	acac <sd_readblock+0x204>
    ac18:	e3a03000 	mov	r3, #0
    ac1c:	e5952020 	ldr	r2, [r5, #32]
    ac20:	e7842003 	str	r2, [r4, r3]
    ac24:	e2833004 	add	r3, r3, #4
    ac28:	e3530c02 	cmp	r3, #512	; 0x200
    ac2c:	1afffffa 	bne	ac1c <sd_readblock+0x174>
    ac30:	e2866001 	add	r6, r6, #1
    ac34:	e2844c02 	add	r4, r4, #512	; 0x200
    ac38:	e1a02006 	mov	r2, r6
    ac3c:	e156000a 	cmp	r6, sl
    ac40:	1affffe0 	bne	abc8 <sd_readblock+0x120>
    ac44:	e1a08007 	mov	r8, r7
    ac48:	e1a07006 	mov	r7, r6
    ac4c:	e3580001 	cmp	r8, #1
    ac50:	9a000008 	bls	ac78 <sd_readblock+0x1d0>
    ac54:	e59f306c 	ldr	r3, [pc, #108]	; acc8 <sd_readblock+0x220>
    ac58:	e5932000 	ldr	r2, [r3]
    ac5c:	e59f3080 	ldr	r3, [pc, #128]	; ace4 <sd_readblock+0x23c>
    ac60:	e0023003 	and	r3, r2, r3
    ac64:	e3530001 	cmp	r3, #1
    ac68:	1a000002 	bne	ac78 <sd_readblock+0x1d0>
    ac6c:	e59f0074 	ldr	r0, [pc, #116]	; ace8 <sd_readblock+0x240>
    ac70:	e3a01000 	mov	r1, #0
    ac74:	ebfffefd 	bl	a870 <sd_cmd>
    ac78:	e59f3044 	ldr	r3, [pc, #68]	; acc4 <sd_readblock+0x21c>
    ac7c:	e5933000 	ldr	r3, [r3]
    ac80:	e3530000 	cmp	r3, #0
    ac84:	1a000008 	bne	acac <sd_readblock+0x204>
    ac88:	e1580007 	cmp	r8, r7
    ac8c:	1a000006 	bne	acac <sd_readblock+0x204>
    ac90:	e1a08488 	lsl	r8, r8, #9
    ac94:	e58d8000 	str	r8, [sp]
    ac98:	ea000003 	b	acac <sd_readblock+0x204>
    ac9c:	e59f3020 	ldr	r3, [pc, #32]	; acc4 <sd_readblock+0x21c>
    aca0:	e5933000 	ldr	r3, [r3]
    aca4:	e3530000 	cmp	r3, #0
    aca8:	0afffff8 	beq	ac90 <sd_readblock+0x1e8>
    acac:	e59d0000 	ldr	r0, [sp]
    acb0:	e28dd00c 	add	sp, sp, #12
    acb4:	e8bd8ff0 	pop	{r4, r5, r6, r7, r8, r9, sl, fp, pc}
    acb8:	0000db10 	andeq	sp, r0, r0, lsl fp
    acbc:	0000db24 	andeq	sp, r0, r4, lsr #22
    acc0:	0000d9bc 			; <UNDEFINED> instruction: 0x0000d9bc
    acc4:	0000e618 	andeq	lr, r0, r8, lsl r6
    acc8:	0000e620 	andeq	lr, r0, r0, lsr #12
    accc:	17020000 	strne	r0, [r2, -r0]
    acd0:	20300000 	eorscs	r0, r0, r0
    acd4:	11220010 	teqne	r2, r0, lsl r0
    acd8:	12220032 	eorne	r0, r2, #50	; 0x32
    acdc:	00010200 	andeq	r0, r1, r0, lsl #4
    ace0:	0000db2c 	andeq	sp, r0, ip, lsr #22
    ace4:	02000001 	andeq	r0, r0, #1
    ace8:	0c030000 	stceq	0, cr0, [r3], {-0}

0000acec <sd_writeblock>:
    acec:	e92d4ff0 	push	{r4, r5, r6, r7, r8, r9, sl, fp, lr}
    acf0:	e24dd00c 	sub	sp, sp, #12
    acf4:	e1a04000 	mov	r4, r0
    acf8:	e58d1004 	str	r1, [sp, #4]
    acfc:	e2528000 	subs	r8, r2, #0
    ad00:	e3520000 	cmp	r2, #0
    ad04:	03a08001 	moveq	r8, #1
    ad08:	e59f01ec 	ldr	r0, [pc, #492]	; aefc <sd_writeblock+0x210>
    ad0c:	eb000262 	bl	b69c <printk>
    ad10:	e59d0004 	ldr	r0, [sp, #4]
    ad14:	eb0003ac 	bl	bbcc <uart_hex>
    ad18:	e59f01e0 	ldr	r0, [pc, #480]	; af00 <sd_writeblock+0x214>
    ad1c:	eb00025e 	bl	b69c <printk>
    ad20:	e1a00008 	mov	r0, r8
    ad24:	eb0003a8 	bl	bbcc <uart_hex>
    ad28:	e59f01d4 	ldr	r0, [pc, #468]	; af04 <sd_writeblock+0x218>
    ad2c:	eb00025a 	bl	b69c <printk>
    ad30:	e59f01d0 	ldr	r0, [pc, #464]	; af08 <sd_writeblock+0x21c>
    ad34:	ebfffe70 	bl	a6fc <sd_status>
    ad38:	e3500000 	cmp	r0, #0
    ad3c:	e58d0000 	str	r0, [sp]
    ad40:	0a000005 	beq	ad5c <sd_writeblock+0x70>
    ad44:	e3e02000 	mvn	r2, #0
    ad48:	e59f31bc 	ldr	r3, [pc, #444]	; af0c <sd_writeblock+0x220>
    ad4c:	e5832000 	str	r2, [r3]
    ad50:	e3a03000 	mov	r3, #0
    ad54:	e58d3000 	str	r3, [sp]
    ad58:	ea000064 	b	aef0 <sd_writeblock+0x204>
    ad5c:	e59f31ac 	ldr	r3, [pc, #428]	; af10 <sd_writeblock+0x224>
    ad60:	e5933000 	ldr	r3, [r3]
    ad64:	e3130001 	tst	r3, #1
    ad68:	0a000019 	beq	add4 <sd_writeblock+0xe8>
    ad6c:	e3580001 	cmp	r8, #1
    ad70:	9a000008 	bls	ad98 <sd_writeblock+0xac>
    ad74:	e3130402 	tst	r3, #33554432	; 0x2000000
    ad78:	0a000006 	beq	ad98 <sd_writeblock+0xac>
    ad7c:	e59f0190 	ldr	r0, [pc, #400]	; af14 <sd_writeblock+0x228>
    ad80:	e1a01008 	mov	r1, r8
    ad84:	ebfffeb9 	bl	a870 <sd_cmd>
    ad88:	e59f317c 	ldr	r3, [pc, #380]	; af0c <sd_writeblock+0x220>
    ad8c:	e5933000 	ldr	r3, [r3]
    ad90:	e3530000 	cmp	r3, #0
    ad94:	1a000055 	bne	aef0 <sd_writeblock+0x204>
    ad98:	e1a02808 	lsl	r2, r8, #16
    ad9c:	e3822c02 	orr	r2, r2, #512	; 0x200
    ada0:	e59f3170 	ldr	r3, [pc, #368]	; af18 <sd_writeblock+0x22c>
    ada4:	e5832004 	str	r2, [r3, #4]
    ada8:	e59f316c 	ldr	r3, [pc, #364]	; af1c <sd_writeblock+0x230>
    adac:	e59f016c 	ldr	r0, [pc, #364]	; af20 <sd_writeblock+0x234>
    adb0:	e3580001 	cmp	r8, #1
    adb4:	01a00003 	moveq	r0, r3
    adb8:	e59d1004 	ldr	r1, [sp, #4]
    adbc:	ebfffeab 	bl	a870 <sd_cmd>
    adc0:	e59f3144 	ldr	r3, [pc, #324]	; af0c <sd_writeblock+0x220>
    adc4:	e5933000 	ldr	r3, [r3]
    adc8:	e3530000 	cmp	r3, #0
    adcc:	0a000003 	beq	ade0 <sd_writeblock+0xf4>
    add0:	ea000046 	b	aef0 <sd_writeblock+0x204>
    add4:	e59f2148 	ldr	r2, [pc, #328]	; af24 <sd_writeblock+0x238>
    add8:	e59f3138 	ldr	r3, [pc, #312]	; af18 <sd_writeblock+0x22c>
    addc:	e5832004 	str	r2, [r3, #4]
    ade0:	e3580000 	cmp	r8, #0
    ade4:	0a00003d 	beq	aee0 <sd_writeblock+0x1f4>
    ade8:	e1a0a008 	mov	sl, r8
    adec:	e3a07000 	mov	r7, #0
    adf0:	e1a06007 	mov	r6, r7
    adf4:	e59f9114 	ldr	r9, [pc, #276]	; af10 <sd_writeblock+0x224>
    adf8:	e59fb10c 	ldr	fp, [pc, #268]	; af0c <sd_writeblock+0x220>
    adfc:	e59f5114 	ldr	r5, [pc, #276]	; af18 <sd_writeblock+0x22c>
    ae00:	e1a02007 	mov	r2, r7
    ae04:	e1a07008 	mov	r7, r8
    ae08:	e59d8004 	ldr	r8, [sp, #4]
    ae0c:	e5993000 	ldr	r3, [r9]
    ae10:	e3130001 	tst	r3, #1
    ae14:	1a000006 	bne	ae34 <sd_writeblock+0x148>
    ae18:	e0821008 	add	r1, r2, r8
    ae1c:	e59f00f8 	ldr	r0, [pc, #248]	; af1c <sd_writeblock+0x230>
    ae20:	e1a01481 	lsl	r1, r1, #9
    ae24:	ebfffe91 	bl	a870 <sd_cmd>
    ae28:	e59b3000 	ldr	r3, [fp]
    ae2c:	e3530000 	cmp	r3, #0
    ae30:	1a00002e 	bne	aef0 <sd_writeblock+0x204>
    ae34:	e3a00010 	mov	r0, #16
    ae38:	ebfffe5c 	bl	a7b0 <sd_int>
    ae3c:	e3500000 	cmp	r0, #0
    ae40:	0a000005 	beq	ae5c <sd_writeblock+0x170>
    ae44:	e1a07000 	mov	r7, r0
    ae48:	e59f00d8 	ldr	r0, [pc, #216]	; af28 <sd_writeblock+0x23c>
    ae4c:	eb000212 	bl	b69c <printk>
    ae50:	e59f30b4 	ldr	r3, [pc, #180]	; af0c <sd_writeblock+0x220>
    ae54:	e5837000 	str	r7, [r3]
    ae58:	ea000024 	b	aef0 <sd_writeblock+0x204>
    ae5c:	e3a03000 	mov	r3, #0
    ae60:	e7942003 	ldr	r2, [r4, r3]
    ae64:	e5852020 	str	r2, [r5, #32]
    ae68:	e2833004 	add	r3, r3, #4
    ae6c:	e3530c02 	cmp	r3, #512	; 0x200
    ae70:	1afffffa 	bne	ae60 <sd_writeblock+0x174>
    ae74:	e2866001 	add	r6, r6, #1
    ae78:	e2844c02 	add	r4, r4, #512	; 0x200
    ae7c:	e1a02006 	mov	r2, r6
    ae80:	e156000a 	cmp	r6, sl
    ae84:	1affffe0 	bne	ae0c <sd_writeblock+0x120>
    ae88:	e1a08007 	mov	r8, r7
    ae8c:	e1a07006 	mov	r7, r6
    ae90:	e3580001 	cmp	r8, #1
    ae94:	9a000008 	bls	aebc <sd_writeblock+0x1d0>
    ae98:	e59f3070 	ldr	r3, [pc, #112]	; af10 <sd_writeblock+0x224>
    ae9c:	e5932000 	ldr	r2, [r3]
    aea0:	e59f3084 	ldr	r3, [pc, #132]	; af2c <sd_writeblock+0x240>
    aea4:	e0023003 	and	r3, r2, r3
    aea8:	e3530001 	cmp	r3, #1
    aeac:	1a000002 	bne	aebc <sd_writeblock+0x1d0>
    aeb0:	e59f0078 	ldr	r0, [pc, #120]	; af30 <sd_writeblock+0x244>
    aeb4:	e3a01000 	mov	r1, #0
    aeb8:	ebfffe6c 	bl	a870 <sd_cmd>
    aebc:	e59f3048 	ldr	r3, [pc, #72]	; af0c <sd_writeblock+0x220>
    aec0:	e5933000 	ldr	r3, [r3]
    aec4:	e3530000 	cmp	r3, #0
    aec8:	1a000008 	bne	aef0 <sd_writeblock+0x204>
    aecc:	e1580007 	cmp	r8, r7
    aed0:	1a000006 	bne	aef0 <sd_writeblock+0x204>
    aed4:	e1a08488 	lsl	r8, r8, #9
    aed8:	e58d8000 	str	r8, [sp]
    aedc:	ea000003 	b	aef0 <sd_writeblock+0x204>
    aee0:	e59f3024 	ldr	r3, [pc, #36]	; af0c <sd_writeblock+0x220>
    aee4:	e5933000 	ldr	r3, [r3]
    aee8:	e3530000 	cmp	r3, #0
    aeec:	0afffff8 	beq	aed4 <sd_writeblock+0x1e8>
    aef0:	e59d0000 	ldr	r0, [sp]
    aef4:	e28dd00c 	add	sp, sp, #12
    aef8:	e8bd8ff0 	pop	{r4, r5, r6, r7, r8, r9, sl, fp, pc}
    aefc:	0000db58 	andeq	sp, r0, r8, asr fp
    af00:	0000db24 	andeq	sp, r0, r4, lsr #22
    af04:	0000d9bc 			; <UNDEFINED> instruction: 0x0000d9bc
    af08:	00000402 	andeq	r0, r0, r2, lsl #8
    af0c:	0000e618 	andeq	lr, r0, r8, lsl r6
    af10:	0000e620 	andeq	lr, r0, r0, lsr #12
    af14:	17020000 	strne	r0, [r2, -r0]
    af18:	20300000 	eorscs	r0, r0, r0
    af1c:	18220010 	stmdane	r2!, {r4}
    af20:	19220032 	stmdbne	r2!, {r1, r4, r5}
    af24:	00010200 	andeq	r0, r1, r0, lsl #4
    af28:	0000db6c 	andeq	sp, r0, ip, ror #22
    af2c:	02000001 	andeq	r0, r0, #1
    af30:	0c030000 	stceq	0, cr0, [r3], {-0}

0000af34 <sd_init>:
    af34:	e92d4ff8 	push	{r3, r4, r5, r6, r7, r8, r9, sl, fp, lr}
    af38:	e59f46b0 	ldr	r4, [pc, #1712]	; b5f0 <sd_init+0x6bc>
    af3c:	e5943010 	ldr	r3, [r4, #16]
    af40:	e3c3360e 	bic	r3, r3, #14680064	; 0xe00000
    af44:	e5843010 	str	r3, [r4, #16]
    af48:	e3a06002 	mov	r6, #2
    af4c:	e5846094 	str	r6, [r4, #148]	; 0x94
    af50:	e3a00096 	mov	r0, #150	; 0x96
    af54:	eb00036a 	bl	bd04 <delay_cycles>
    af58:	e3a03902 	mov	r3, #32768	; 0x8000
    af5c:	e584309c 	str	r3, [r4, #156]	; 0x9c
    af60:	e3a00096 	mov	r0, #150	; 0x96
    af64:	eb000366 	bl	bd04 <delay_cycles>
    af68:	e3a05000 	mov	r5, #0
    af6c:	e5845094 	str	r5, [r4, #148]	; 0x94
    af70:	e584509c 	str	r5, [r4, #156]	; 0x9c
    af74:	e5943068 	ldr	r3, [r4, #104]	; 0x68
    af78:	e3833902 	orr	r3, r3, #32768	; 0x8000
    af7c:	e5843068 	str	r3, [r4, #104]	; 0x68
    af80:	e5943010 	ldr	r3, [r4, #16]
    af84:	e383343f 	orr	r3, r3, #1056964608	; 0x3f000000
    af88:	e5843010 	str	r3, [r4, #16]
    af8c:	e5846094 	str	r6, [r4, #148]	; 0x94
    af90:	e3a00096 	mov	r0, #150	; 0x96
    af94:	eb00035a 	bl	bd04 <delay_cycles>
    af98:	e3a03803 	mov	r3, #196608	; 0x30000
    af9c:	e584309c 	str	r3, [r4, #156]	; 0x9c
    afa0:	e3a00096 	mov	r0, #150	; 0x96
    afa4:	eb000356 	bl	bd04 <delay_cycles>
    afa8:	e5845094 	str	r5, [r4, #148]	; 0x94
    afac:	e584509c 	str	r5, [r4, #156]	; 0x9c
    afb0:	e5943014 	ldr	r3, [r4, #20]
    afb4:	e1e03623 	mvn	r3, r3, lsr #12
    afb8:	e1e03603 	mvn	r3, r3, lsl #12
    afbc:	e5843014 	str	r3, [r4, #20]
    afc0:	e5846094 	str	r6, [r4, #148]	; 0x94
    afc4:	e3a00096 	mov	r0, #150	; 0x96
    afc8:	eb00034d 	bl	bd04 <delay_cycles>
    afcc:	e3a0370f 	mov	r3, #3932160	; 0x3c0000
    afd0:	e584309c 	str	r3, [r4, #156]	; 0x9c
    afd4:	e3a00096 	mov	r0, #150	; 0x96
    afd8:	eb000349 	bl	bd04 <delay_cycles>
    afdc:	e5845094 	str	r5, [r4, #148]	; 0x94
    afe0:	e584509c 	str	r5, [r4, #156]	; 0x9c
    afe4:	e2844601 	add	r4, r4, #1048576	; 0x100000
    afe8:	e59420fc 	ldr	r2, [r4, #252]	; 0xfc
    afec:	e20228ff 	and	r2, r2, #16711680	; 0xff0000
    aff0:	e1a02822 	lsr	r2, r2, #16
    aff4:	e59f35f8 	ldr	r3, [pc, #1528]	; b5f4 <sd_init+0x6c0>
    aff8:	e5832000 	str	r2, [r3]
    affc:	e59f05f4 	ldr	r0, [pc, #1524]	; b5f8 <sd_init+0x6c4>
    b000:	eb0001a5 	bl	b69c <printk>
    b004:	e5845028 	str	r5, [r4, #40]	; 0x28
    b008:	e594302c 	ldr	r3, [r4, #44]	; 0x2c
    b00c:	e3833401 	orr	r3, r3, #16777216	; 0x1000000
    b010:	e584302c 	str	r3, [r4, #44]	; 0x2c
    b014:	e59f45e0 	ldr	r4, [pc, #1504]	; b5fc <sd_init+0x6c8>
    b018:	e3a0600a 	mov	r6, #10
    b01c:	e59f55dc 	ldr	r5, [pc, #1500]	; b600 <sd_init+0x6cc>
    b020:	e1a00006 	mov	r0, r6
    b024:	eb00034c 	bl	bd5c <delay_ms>
    b028:	e595302c 	ldr	r3, [r5, #44]	; 0x2c
    b02c:	e3130401 	tst	r3, #16777216	; 0x1000000
    b030:	0a000003 	beq	b044 <sd_init+0x110>
    b034:	e2444001 	sub	r4, r4, #1
    b038:	e3740001 	cmn	r4, #1
    b03c:	1afffff7 	bne	b020 <sd_init+0xec>
    b040:	ea000001 	b	b04c <sd_init+0x118>
    b044:	e3540000 	cmp	r4, #0
    b048:	ca000003 	bgt	b05c <sd_init+0x128>
    b04c:	e59f05b0 	ldr	r0, [pc, #1456]	; b604 <sd_init+0x6d0>
    b050:	eb000191 	bl	b69c <printk>
    b054:	e3e05001 	mvn	r5, #1
    b058:	ea000162 	b	b5e8 <sd_init+0x6b4>
    b05c:	e59f05a4 	ldr	r0, [pc, #1444]	; b608 <sd_init+0x6d4>
    b060:	eb00018d 	bl	b69c <printk>
    b064:	e59f4594 	ldr	r4, [pc, #1428]	; b600 <sd_init+0x6cc>
    b068:	e594302c 	ldr	r3, [r4, #44]	; 0x2c
    b06c:	e383380e 	orr	r3, r3, #917504	; 0xe0000
    b070:	e3833001 	orr	r3, r3, #1
    b074:	e584302c 	str	r3, [r4, #44]	; 0x2c
    b078:	e3a0000a 	mov	r0, #10
    b07c:	eb000336 	bl	bd5c <delay_ms>
    b080:	e5943024 	ldr	r3, [r4, #36]	; 0x24
    b084:	e3130003 	tst	r3, #3
    b088:	0a000010 	beq	b0d0 <sd_init+0x19c>
    b08c:	e59f4578 	ldr	r4, [pc, #1400]	; b60c <sd_init+0x6d8>
    b090:	e3a06001 	mov	r6, #1
    b094:	e59f5564 	ldr	r5, [pc, #1380]	; b600 <sd_init+0x6cc>
    b098:	e1a00006 	mov	r0, r6
    b09c:	eb00032e 	bl	bd5c <delay_ms>
    b0a0:	e5953024 	ldr	r3, [r5, #36]	; 0x24
    b0a4:	e3130003 	tst	r3, #3
    b0a8:	0a000003 	beq	b0bc <sd_init+0x188>
    b0ac:	e2444001 	sub	r4, r4, #1
    b0b0:	e3740001 	cmn	r4, #1
    b0b4:	1afffff7 	bne	b098 <sd_init+0x164>
    b0b8:	ea000001 	b	b0c4 <sd_init+0x190>
    b0bc:	e3540000 	cmp	r4, #0
    b0c0:	ca000002 	bgt	b0d0 <sd_init+0x19c>
    b0c4:	e59f0544 	ldr	r0, [pc, #1348]	; b610 <sd_init+0x6dc>
    b0c8:	eb000173 	bl	b69c <printk>
    b0cc:	ea000142 	b	b5dc <sd_init+0x6a8>
    b0d0:	e59f3528 	ldr	r3, [pc, #1320]	; b600 <sd_init+0x6cc>
    b0d4:	e593202c 	ldr	r2, [r3, #44]	; 0x2c
    b0d8:	e3c22004 	bic	r2, r2, #4
    b0dc:	e583202c 	str	r2, [r3, #44]	; 0x2c
    b0e0:	e3a0000a 	mov	r0, #10
    b0e4:	eb00031c 	bl	bd5c <delay_ms>
    b0e8:	e59f3504 	ldr	r3, [pc, #1284]	; b5f4 <sd_init+0x6c0>
    b0ec:	e5935000 	ldr	r5, [r3]
    b0f0:	e3550001 	cmp	r5, #1
    b0f4:	93a05040 	movls	r5, #64	; 0x40
    b0f8:	83a05068 	movhi	r5, #104	; 0x68
    b0fc:	e59f0510 	ldr	r0, [pc, #1296]	; b614 <sd_init+0x6e0>
    b100:	eb000165 	bl	b69c <printk>
    b104:	e1a00005 	mov	r0, r5
    b108:	eb0002af 	bl	bbcc <uart_hex>
    b10c:	e59f0504 	ldr	r0, [pc, #1284]	; b618 <sd_init+0x6e4>
    b110:	eb000161 	bl	b69c <printk>
    b114:	e3a00006 	mov	r0, #6
    b118:	eb0002ab 	bl	bbcc <uart_hex>
    b11c:	e59f04f8 	ldr	r0, [pc, #1272]	; b61c <sd_init+0x6e8>
    b120:	eb00015d 	bl	b69c <printk>
    b124:	e59f44d4 	ldr	r4, [pc, #1236]	; b600 <sd_init+0x6cc>
    b128:	e594302c 	ldr	r3, [r4, #44]	; 0x2c
    b12c:	e3c33cff 	bic	r3, r3, #65280	; 0xff00
    b130:	e3c330c0 	bic	r3, r3, #192	; 0xc0
    b134:	e1835405 	orr	r5, r3, r5, lsl #8
    b138:	e584502c 	str	r5, [r4, #44]	; 0x2c
    b13c:	e3a0000a 	mov	r0, #10
    b140:	eb000305 	bl	bd5c <delay_ms>
    b144:	e594302c 	ldr	r3, [r4, #44]	; 0x2c
    b148:	e3833004 	orr	r3, r3, #4
    b14c:	e584302c 	str	r3, [r4, #44]	; 0x2c
    b150:	e3a0000a 	mov	r0, #10
    b154:	eb000300 	bl	bd5c <delay_ms>
    b158:	e59f04c0 	ldr	r0, [pc, #1216]	; b620 <sd_init+0x6ec>
    b15c:	eb00014e 	bl	b69c <printk>
    b160:	e594302c 	ldr	r3, [r4, #44]	; 0x2c
    b164:	e3130002 	tst	r3, #2
    b168:	1a000010 	bne	b1b0 <sd_init+0x27c>
    b16c:	e59f44b0 	ldr	r4, [pc, #1200]	; b624 <sd_init+0x6f0>
    b170:	e3a0600a 	mov	r6, #10
    b174:	e59f5484 	ldr	r5, [pc, #1156]	; b600 <sd_init+0x6cc>
    b178:	e1a00006 	mov	r0, r6
    b17c:	eb0002f6 	bl	bd5c <delay_ms>
    b180:	e595302c 	ldr	r3, [r5, #44]	; 0x2c
    b184:	e3130002 	tst	r3, #2
    b188:	1a000003 	bne	b19c <sd_init+0x268>
    b18c:	e2444001 	sub	r4, r4, #1
    b190:	e3740001 	cmn	r4, #1
    b194:	1afffff7 	bne	b178 <sd_init+0x244>
    b198:	ea000001 	b	b1a4 <sd_init+0x270>
    b19c:	e3540000 	cmp	r4, #0
    b1a0:	ca000002 	bgt	b1b0 <sd_init+0x27c>
    b1a4:	e59f047c 	ldr	r0, [pc, #1148]	; b628 <sd_init+0x6f4>
    b1a8:	eb00013b 	bl	b69c <printk>
    b1ac:	ea00010a 	b	b5dc <sd_init+0x6a8>
    b1b0:	e59f0474 	ldr	r0, [pc, #1140]	; b62c <sd_init+0x6f8>
    b1b4:	eb000138 	bl	b69c <printk>
    b1b8:	e59f3440 	ldr	r3, [pc, #1088]	; b600 <sd_init+0x6cc>
    b1bc:	e3e02000 	mvn	r2, #0
    b1c0:	e5832038 	str	r2, [r3, #56]	; 0x38
    b1c4:	e5832034 	str	r2, [r3, #52]	; 0x34
    b1c8:	e59f4460 	ldr	r4, [pc, #1120]	; b630 <sd_init+0x6fc>
    b1cc:	e3a01000 	mov	r1, #0
    b1d0:	e5841000 	str	r1, [r4]
    b1d4:	e59f3458 	ldr	r3, [pc, #1112]	; b634 <sd_init+0x700>
    b1d8:	e5831000 	str	r1, [r3]
    b1dc:	e59f3454 	ldr	r3, [pc, #1108]	; b638 <sd_init+0x704>
    b1e0:	e5831004 	str	r1, [r3, #4]
    b1e4:	e5831000 	str	r1, [r3]
    b1e8:	e1a00001 	mov	r0, r1
    b1ec:	ebfffd9f 	bl	a870 <sd_cmd>
    b1f0:	e5945000 	ldr	r5, [r4]
    b1f4:	e3550000 	cmp	r5, #0
    b1f8:	1a0000fa 	bne	b5e8 <sd_init+0x6b4>
    b1fc:	e59f0438 	ldr	r0, [pc, #1080]	; b63c <sd_init+0x708>
    b200:	e59f1438 	ldr	r1, [pc, #1080]	; b640 <sd_init+0x70c>
    b204:	ebfffd99 	bl	a870 <sd_cmd>
    b208:	e5945000 	ldr	r5, [r4]
    b20c:	e3550000 	cmp	r5, #0
    b210:	1a0000f4 	bne	b5e8 <sd_init+0x6b4>
    b214:	e3a05005 	mov	r5, #5
    b218:	e59f8424 	ldr	r8, [pc, #1060]	; b644 <sd_init+0x710>
    b21c:	e59fb424 	ldr	fp, [pc, #1060]	; b648 <sd_init+0x714>
    b220:	e59fa424 	ldr	sl, [pc, #1060]	; b64c <sd_init+0x718>
    b224:	e59f9424 	ldr	r9, [pc, #1060]	; b650 <sd_init+0x71c>
    b228:	e59f73ec 	ldr	r7, [pc, #1004]	; b61c <sd_init+0x6e8>
    b22c:	e1a06004 	mov	r6, r4
    b230:	e3a00e19 	mov	r0, #400	; 0x190
    b234:	eb0002b2 	bl	bd04 <delay_cycles>
    b238:	e59f0414 	ldr	r0, [pc, #1044]	; b654 <sd_init+0x720>
    b23c:	e59f1414 	ldr	r1, [pc, #1044]	; b658 <sd_init+0x724>
    b240:	ebfffd8a 	bl	a870 <sd_cmd>
    b244:	e1a04000 	mov	r4, r0
    b248:	e1a00008 	mov	r0, r8
    b24c:	eb000112 	bl	b69c <printk>
    b250:	e3540000 	cmp	r4, #0
    b254:	aa000001 	bge	b260 <sd_init+0x32c>
    b258:	e1a0000b 	mov	r0, fp
    b25c:	eb00010e 	bl	b69c <printk>
    b260:	e59f33f4 	ldr	r3, [pc, #1012]	; b65c <sd_init+0x728>
    b264:	e0043003 	and	r3, r4, r3
    b268:	e3530000 	cmp	r3, #0
    b26c:	0a000001 	beq	b278 <sd_init+0x344>
    b270:	e1a0000a 	mov	r0, sl
    b274:	eb000108 	bl	b69c <printk>
    b278:	e3140101 	tst	r4, #1073741824	; 0x40000000
    b27c:	0a000001 	beq	b288 <sd_init+0x354>
    b280:	e1a00009 	mov	r0, r9
    b284:	eb000104 	bl	b69c <printk>
    b288:	e1a00004 	mov	r0, r4
    b28c:	eb00024e 	bl	bbcc <uart_hex>
    b290:	e1a00004 	mov	r0, r4
    b294:	eb00024c 	bl	bbcc <uart_hex>
    b298:	e1a00007 	mov	r0, r7
    b29c:	eb0000fe 	bl	b69c <printk>
    b2a0:	e5963000 	ldr	r3, [r6]
    b2a4:	e2433001 	sub	r3, r3, #1
    b2a8:	e3730003 	cmn	r3, #3
    b2ac:	8a000004 	bhi	b2c4 <sd_init+0x390>
    b2b0:	e59f03a8 	ldr	r0, [pc, #936]	; b660 <sd_init+0x72c>
    b2b4:	eb0000f8 	bl	b69c <printk>
    b2b8:	e59f3370 	ldr	r3, [pc, #880]	; b630 <sd_init+0x6fc>
    b2bc:	e5935000 	ldr	r5, [r3]
    b2c0:	ea0000c8 	b	b5e8 <sd_init+0x6b4>
    b2c4:	e3540000 	cmp	r4, #0
    b2c8:	ba000003 	blt	b2dc <sd_init+0x3a8>
    b2cc:	e2455001 	sub	r5, r5, #1
    b2d0:	e3750001 	cmn	r5, #1
    b2d4:	1affffd5 	bne	b230 <sd_init+0x2fc>
    b2d8:	ea0000b5 	b	b5b4 <sd_init+0x680>
    b2dc:	e3550000 	cmp	r5, #0
    b2e0:	13540000 	cmpne	r4, #0
    b2e4:	a3e05000 	mvnge	r5, #0
    b2e8:	aa0000be 	bge	b5e8 <sd_init+0x6b4>
    b2ec:	e59f3368 	ldr	r3, [pc, #872]	; b65c <sd_init+0x728>
    b2f0:	e0043003 	and	r3, r4, r3
    b2f4:	e3530000 	cmp	r3, #0
    b2f8:	0a0000af 	beq	b5bc <sd_init+0x688>
    b2fc:	e59f0360 	ldr	r0, [pc, #864]	; b664 <sd_init+0x730>
    b300:	e3a01000 	mov	r1, #0
    b304:	ebfffd59 	bl	a870 <sd_cmd>
    b308:	e59f0358 	ldr	r0, [pc, #856]	; b668 <sd_init+0x734>
    b30c:	e3a01000 	mov	r1, #0
    b310:	ebfffd56 	bl	a870 <sd_cmd>
    b314:	e59f5318 	ldr	r5, [pc, #792]	; b634 <sd_init+0x700>
    b318:	e5850000 	str	r0, [r5]
    b31c:	e59f0348 	ldr	r0, [pc, #840]	; b66c <sd_init+0x738>
    b320:	eb0000dd 	bl	b69c <printk>
    b324:	e5950000 	ldr	r0, [r5]
    b328:	eb000227 	bl	bbcc <uart_hex>
    b32c:	e5950000 	ldr	r0, [r5]
    b330:	eb000225 	bl	bbcc <uart_hex>
    b334:	e59f02e0 	ldr	r0, [pc, #736]	; b61c <sd_init+0x6e8>
    b338:	eb0000d7 	bl	b69c <printk>
    b33c:	e59f32ec 	ldr	r3, [pc, #748]	; b630 <sd_init+0x6fc>
    b340:	e5935000 	ldr	r5, [r3]
    b344:	e3550000 	cmp	r5, #0
    b348:	1a0000a6 	bne	b5e8 <sd_init+0x6b4>
    b34c:	e59f32ac 	ldr	r3, [pc, #684]	; b600 <sd_init+0x6cc>
    b350:	e5933024 	ldr	r3, [r3, #36]	; 0x24
    b354:	e3130003 	tst	r3, #3
    b358:	0a000010 	beq	b3a0 <sd_init+0x46c>
    b35c:	e59f52a8 	ldr	r5, [pc, #680]	; b60c <sd_init+0x6d8>
    b360:	e3a07001 	mov	r7, #1
    b364:	e59f6294 	ldr	r6, [pc, #660]	; b600 <sd_init+0x6cc>
    b368:	e1a00007 	mov	r0, r7
    b36c:	eb00027a 	bl	bd5c <delay_ms>
    b370:	e5963024 	ldr	r3, [r6, #36]	; 0x24
    b374:	e3130003 	tst	r3, #3
    b378:	0a000003 	beq	b38c <sd_init+0x458>
    b37c:	e2455001 	sub	r5, r5, #1
    b380:	e3750001 	cmn	r5, #1
    b384:	1afffff7 	bne	b368 <sd_init+0x434>
    b388:	ea000001 	b	b394 <sd_init+0x460>
    b38c:	e3550000 	cmp	r5, #0
    b390:	ca000002 	bgt	b3a0 <sd_init+0x46c>
    b394:	e59f0274 	ldr	r0, [pc, #628]	; b610 <sd_init+0x6dc>
    b398:	eb0000bf 	bl	b69c <printk>
    b39c:	ea000090 	b	b5e4 <sd_init+0x6b0>
    b3a0:	e59f5258 	ldr	r5, [pc, #600]	; b600 <sd_init+0x6cc>
    b3a4:	e595302c 	ldr	r3, [r5, #44]	; 0x2c
    b3a8:	e3c33004 	bic	r3, r3, #4
    b3ac:	e585302c 	str	r3, [r5, #44]	; 0x2c
    b3b0:	e3a0000a 	mov	r0, #10
    b3b4:	eb000268 	bl	bd5c <delay_ms>
    b3b8:	e59f0254 	ldr	r0, [pc, #596]	; b614 <sd_init+0x6e0>
    b3bc:	eb0000b6 	bl	b69c <printk>
    b3c0:	e3a00002 	mov	r0, #2
    b3c4:	eb000200 	bl	bbcc <uart_hex>
    b3c8:	e59f0248 	ldr	r0, [pc, #584]	; b618 <sd_init+0x6e4>
    b3cc:	eb0000b2 	bl	b69c <printk>
    b3d0:	e3a00000 	mov	r0, #0
    b3d4:	eb0001fc 	bl	bbcc <uart_hex>
    b3d8:	e59f023c 	ldr	r0, [pc, #572]	; b61c <sd_init+0x6e8>
    b3dc:	eb0000ae 	bl	b69c <printk>
    b3e0:	e595302c 	ldr	r3, [r5, #44]	; 0x2c
    b3e4:	e3c33cff 	bic	r3, r3, #65280	; 0xff00
    b3e8:	e3c330c0 	bic	r3, r3, #192	; 0xc0
    b3ec:	e3833c02 	orr	r3, r3, #512	; 0x200
    b3f0:	e585302c 	str	r3, [r5, #44]	; 0x2c
    b3f4:	e3a0000a 	mov	r0, #10
    b3f8:	eb000257 	bl	bd5c <delay_ms>
    b3fc:	e595302c 	ldr	r3, [r5, #44]	; 0x2c
    b400:	e3833004 	orr	r3, r3, #4
    b404:	e585302c 	str	r3, [r5, #44]	; 0x2c
    b408:	e3a0000a 	mov	r0, #10
    b40c:	eb000252 	bl	bd5c <delay_ms>
    b410:	e59f0208 	ldr	r0, [pc, #520]	; b620 <sd_init+0x6ec>
    b414:	eb0000a0 	bl	b69c <printk>
    b418:	e595302c 	ldr	r3, [r5, #44]	; 0x2c
    b41c:	e3130002 	tst	r3, #2
    b420:	1a000010 	bne	b468 <sd_init+0x534>
    b424:	e59f51f8 	ldr	r5, [pc, #504]	; b624 <sd_init+0x6f0>
    b428:	e3a0700a 	mov	r7, #10
    b42c:	e59f61cc 	ldr	r6, [pc, #460]	; b600 <sd_init+0x6cc>
    b430:	e1a00007 	mov	r0, r7
    b434:	eb000248 	bl	bd5c <delay_ms>
    b438:	e596302c 	ldr	r3, [r6, #44]	; 0x2c
    b43c:	e3130002 	tst	r3, #2
    b440:	1a000003 	bne	b454 <sd_init+0x520>
    b444:	e2455001 	sub	r5, r5, #1
    b448:	e3750001 	cmn	r5, #1
    b44c:	1afffff7 	bne	b430 <sd_init+0x4fc>
    b450:	ea000001 	b	b45c <sd_init+0x528>
    b454:	e3550000 	cmp	r5, #0
    b458:	ca000002 	bgt	b468 <sd_init+0x534>
    b45c:	e59f01c4 	ldr	r0, [pc, #452]	; b628 <sd_init+0x6f4>
    b460:	eb00008d 	bl	b69c <printk>
    b464:	ea00005e 	b	b5e4 <sd_init+0x6b0>
    b468:	e59f01bc 	ldr	r0, [pc, #444]	; b62c <sd_init+0x6f8>
    b46c:	eb00008a 	bl	b69c <printk>
    b470:	e59f01f8 	ldr	r0, [pc, #504]	; b670 <sd_init+0x73c>
    b474:	e59f31b8 	ldr	r3, [pc, #440]	; b634 <sd_init+0x700>
    b478:	e5931000 	ldr	r1, [r3]
    b47c:	ebfffcfb 	bl	a870 <sd_cmd>
    b480:	e59f31a8 	ldr	r3, [pc, #424]	; b630 <sd_init+0x6fc>
    b484:	e5935000 	ldr	r5, [r3]
    b488:	e3550000 	cmp	r5, #0
    b48c:	1a000055 	bne	b5e8 <sd_init+0x6b4>
    b490:	e3a00002 	mov	r0, #2
    b494:	ebfffc98 	bl	a6fc <sd_status>
    b498:	e3500000 	cmp	r0, #0
    b49c:	1a000048 	bne	b5c4 <sd_init+0x690>
    b4a0:	e59f21cc 	ldr	r2, [pc, #460]	; b674 <sd_init+0x740>
    b4a4:	e59f3154 	ldr	r3, [pc, #340]	; b600 <sd_init+0x6cc>
    b4a8:	e5832004 	str	r2, [r3, #4]
    b4ac:	e59f01c4 	ldr	r0, [pc, #452]	; b678 <sd_init+0x744>
    b4b0:	e3a01000 	mov	r1, #0
    b4b4:	ebfffced 	bl	a870 <sd_cmd>
    b4b8:	e59f3170 	ldr	r3, [pc, #368]	; b630 <sd_init+0x6fc>
    b4bc:	e5935000 	ldr	r5, [r3]
    b4c0:	e3550000 	cmp	r5, #0
    b4c4:	1a000047 	bne	b5e8 <sd_init+0x6b4>
    b4c8:	e3a00020 	mov	r0, #32
    b4cc:	ebfffcb7 	bl	a7b0 <sd_int>
    b4d0:	e2505000 	subs	r5, r0, #0
    b4d4:	1a00003c 	bne	b5cc <sd_init+0x698>
    b4d8:	e3a06000 	mov	r6, #0
    b4dc:	e59f711c 	ldr	r7, [pc, #284]	; b600 <sd_init+0x6cc>
    b4e0:	e3a09001 	mov	r9, #1
    b4e4:	e59f814c 	ldr	r8, [pc, #332]	; b638 <sd_init+0x704>
    b4e8:	e5973024 	ldr	r3, [r7, #36]	; 0x24
    b4ec:	e3130b02 	tst	r3, #2048	; 0x800
    b4f0:	15973020 	ldrne	r3, [r7, #32]
    b4f4:	17883106 	strne	r3, [r8, r6, lsl #2]
    b4f8:	12866001 	addne	r6, r6, #1
    b4fc:	1a000001 	bne	b508 <sd_init+0x5d4>
    b500:	e1a00009 	mov	r0, r9
    b504:	eb000214 	bl	bd5c <delay_ms>
    b508:	e3560001 	cmp	r6, #1
    b50c:	dafffff5 	ble	b4e8 <sd_init+0x5b4>
    b510:	e3560002 	cmp	r6, #2
    b514:	1a00002e 	bne	b5d4 <sd_init+0x6a0>
    b518:	e59f3118 	ldr	r3, [pc, #280]	; b638 <sd_init+0x704>
    b51c:	e5933000 	ldr	r3, [r3]
    b520:	e3130b01 	tst	r3, #1024	; 0x400
    b524:	0a00000d 	beq	b560 <sd_init+0x62c>
    b528:	e59f3104 	ldr	r3, [pc, #260]	; b634 <sd_init+0x700>
    b52c:	e5931000 	ldr	r1, [r3]
    b530:	e59f0144 	ldr	r0, [pc, #324]	; b67c <sd_init+0x748>
    b534:	e3811002 	orr	r1, r1, #2
    b538:	ebfffccc 	bl	a870 <sd_cmd>
    b53c:	e59f30ec 	ldr	r3, [pc, #236]	; b630 <sd_init+0x6fc>
    b540:	e5933000 	ldr	r3, [r3]
    b544:	e3530000 	cmp	r3, #0
    b548:	11a05003 	movne	r5, r3
    b54c:	1a000025 	bne	b5e8 <sd_init+0x6b4>
    b550:	e59f30a8 	ldr	r3, [pc, #168]	; b600 <sd_init+0x6cc>
    b554:	e5932028 	ldr	r2, [r3, #40]	; 0x28
    b558:	e3822002 	orr	r2, r2, #2
    b55c:	e5832028 	str	r2, [r3, #40]	; 0x28
    b560:	e59f0118 	ldr	r0, [pc, #280]	; b680 <sd_init+0x74c>
    b564:	eb00004c 	bl	b69c <printk>
    b568:	e59f30c8 	ldr	r3, [pc, #200]	; b638 <sd_init+0x704>
    b56c:	e5933000 	ldr	r3, [r3]
    b570:	e3130402 	tst	r3, #33554432	; 0x2000000
    b574:	0a000001 	beq	b580 <sd_init+0x64c>
    b578:	e59f0104 	ldr	r0, [pc, #260]	; b684 <sd_init+0x750>
    b57c:	eb000046 	bl	b69c <printk>
    b580:	e1a04f24 	lsr	r4, r4, #30
    b584:	e2144001 	ands	r4, r4, #1
    b588:	0a000001 	beq	b594 <sd_init+0x660>
    b58c:	e59f00bc 	ldr	r0, [pc, #188]	; b650 <sd_init+0x71c>
    b590:	eb000041 	bl	b69c <printk>
    b594:	e59f0080 	ldr	r0, [pc, #128]	; b61c <sd_init+0x6e8>
    b598:	eb00003f 	bl	b69c <printk>
    b59c:	e59f3094 	ldr	r3, [pc, #148]	; b638 <sd_init+0x704>
    b5a0:	e5932000 	ldr	r2, [r3]
    b5a4:	e3c22001 	bic	r2, r2, #1
    b5a8:	e1844002 	orr	r4, r4, r2
    b5ac:	e5834000 	str	r4, [r3]
    b5b0:	ea00000c 	b	b5e8 <sd_init+0x6b4>
    b5b4:	e3e05000 	mvn	r5, #0
    b5b8:	ea00000a 	b	b5e8 <sd_init+0x6b4>
    b5bc:	e3e05001 	mvn	r5, #1
    b5c0:	ea000008 	b	b5e8 <sd_init+0x6b4>
    b5c4:	e3e05000 	mvn	r5, #0
    b5c8:	ea000006 	b	b5e8 <sd_init+0x6b4>
    b5cc:	e3e05000 	mvn	r5, #0
    b5d0:	ea000004 	b	b5e8 <sd_init+0x6b4>
    b5d4:	e3e05000 	mvn	r5, #0
    b5d8:	ea000002 	b	b5e8 <sd_init+0x6b4>
    b5dc:	e3e05001 	mvn	r5, #1
    b5e0:	ea000000 	b	b5e8 <sd_init+0x6b4>
    b5e4:	e3e05001 	mvn	r5, #1
    b5e8:	e1a00005 	mov	r0, r5
    b5ec:	e8bd8ff8 	pop	{r3, r4, r5, r6, r7, r8, r9, sl, fp, pc}
    b5f0:	20200000 	eorcs	r0, r0, r0
    b5f4:	0000e628 	andeq	lr, r0, r8, lsr #12
    b5f8:	0000db98 	muleq	r0, r8, fp
    b5fc:	00002710 	andeq	r2, r0, r0, lsl r7
    b600:	20300000 	eorscs	r0, r0, r0
    b604:	0000dbac 	andeq	sp, r0, ip, lsr #23
    b608:	0000dbcc 	andeq	sp, r0, ip, asr #23
    b60c:	0001869f 	muleq	r1, pc, r6	; <UNPREDICTABLE>
    b610:	0000dbdc 	ldrdeq	sp, [r0], -ip
    b614:	0000dc08 	andeq	sp, r0, r8, lsl #24
    b618:	0000dc18 	andeq	sp, r0, r8, lsl ip
    b61c:	0000d9bc 			; <UNDEFINED> instruction: 0x0000d9bc
    b620:	0000dc24 	andeq	sp, r0, r4, lsr #24
    b624:	0000270f 	andeq	r2, r0, pc, lsl #14
    b628:	0000dc44 	andeq	sp, r0, r4, asr #24
    b62c:	0000dc68 	andeq	sp, r0, r8, ror #24
    b630:	0000e618 	andeq	lr, r0, r8, lsl r6
    b634:	0000e61c 	andeq	lr, r0, ip, lsl r6
    b638:	0000e620 	andeq	lr, r0, r0, lsr #12
    b63c:	08020000 	stmdaeq	r2, {}	; <UNPREDICTABLE>
    b640:	000001aa 	andeq	r0, r0, sl, lsr #3
    b644:	0000dc7c 	andeq	sp, r0, ip, ror ip
    b648:	0000dca0 	andeq	sp, r0, r0, lsr #25
    b64c:	0000dcac 	andeq	sp, r0, ip, lsr #25
    b650:	0000dcb8 			; <UNDEFINED> instruction: 0x0000dcb8
    b654:	a9020000 	stmdbge	r2, {}	; <UNPREDICTABLE>
    b658:	51ff8000 	mvnspl	r8, r0
    b65c:	00ff8000 	rscseq	r8, pc, r0
    b660:	0000dcc0 	andeq	sp, r0, r0, asr #25
    b664:	02010000 	andeq	r0, r1, #0
    b668:	03020000 	movweq	r0, #8192	; 0x2000
    b66c:	0000dce4 	andeq	sp, r0, r4, ror #25
    b670:	07030000 	streq	r0, [r3, -r0]
    b674:	00010008 	andeq	r0, r1, r8
    b678:	b3220010 	teqlt	r2, #16
    b67c:	86020000 	strhi	r0, [r2], -r0
    b680:	0000dd08 	andeq	sp, r0, r8, lsl #26
    b684:	0000dd18 	andeq	sp, r0, r8, lsl sp

0000b688 <rpi_putchar>:
    b688:	e92d4010 	push	{r4, lr}
    b68c:	e1a04000 	mov	r4, r0
    b690:	eb0002c8 	bl	c1b8 <uart_putc>
    b694:	e1a00004 	mov	r0, r4
    b698:	e8bd8010 	pop	{r4, pc}

0000b69c <printk>:
    b69c:	e92d000f 	push	{r0, r1, r2, r3}
    b6a0:	e92d4030 	push	{r4, r5, lr}
    b6a4:	e24dd00c 	sub	sp, sp, #12
    b6a8:	e28d301c 	add	r3, sp, #28
    b6ac:	e58d3004 	str	r3, [sp, #4]
    b6b0:	e59f4040 	ldr	r4, [pc, #64]	; b6f8 <printk+0x5c>
    b6b4:	e1a00004 	mov	r0, r4
    b6b8:	e3a01b01 	mov	r1, #1024	; 0x400
    b6bc:	e59d2018 	ldr	r2, [sp, #24]
    b6c0:	eb00008c 	bl	b8f8 <va_printk>
    b6c4:	e1a05000 	mov	r5, r0
    b6c8:	e5d40000 	ldrb	r0, [r4]
    b6cc:	e3500000 	cmp	r0, #0
    b6d0:	0a000003 	beq	b6e4 <printk+0x48>
    b6d4:	eb0002b7 	bl	c1b8 <uart_putc>
    b6d8:	e5f40001 	ldrb	r0, [r4, #1]!
    b6dc:	e3500000 	cmp	r0, #0
    b6e0:	1afffffb 	bne	b6d4 <printk+0x38>
    b6e4:	e1a00005 	mov	r0, r5
    b6e8:	e28dd00c 	add	sp, sp, #12
    b6ec:	e8bd4030 	pop	{r4, r5, lr}
    b6f0:	e28dd010 	add	sp, sp, #16
    b6f4:	e12fff1e 	bx	lr
    b6f8:	0000e214 	andeq	lr, r0, r4, lsl r2

0000b6fc <emit>:
    b6fc:	e92d43f0 	push	{r4, r5, r6, r7, r8, r9, lr}
    b700:	e24dd044 	sub	sp, sp, #68	; 0x44
    b704:	e59d5060 	ldr	r5, [sp, #96]	; 0x60
    b708:	e1550002 	cmp	r5, r2
    b70c:	c2425001 	subgt	r5, r2, #1
    b710:	e1a0c003 	mov	ip, r3
    b714:	e2400002 	sub	r0, r0, #2
    b718:	e350000e 	cmp	r0, #14
    b71c:	979ff100 	ldrls	pc, [pc, r0, lsl #2]
    b720:	ea00003f 	b	b824 <emit+0x128>
    b724:	0000b7fc 	strdeq	fp, [r0], -ip
    b728:	0000b824 	andeq	fp, r0, r4, lsr #16
    b72c:	0000b824 	andeq	fp, r0, r4, lsr #16
    b730:	0000b824 	andeq	fp, r0, r4, lsr #16
    b734:	0000b824 	andeq	fp, r0, r4, lsr #16
    b738:	0000b824 	andeq	fp, r0, r4, lsr #16
    b73c:	0000b7f0 	strdeq	fp, [r0], -r0
    b740:	0000b824 	andeq	fp, r0, r4, lsr #16
    b744:	0000b760 	andeq	fp, r0, r0, ror #14
    b748:	0000b824 	andeq	fp, r0, r4, lsr #16
    b74c:	0000b824 	andeq	fp, r0, r4, lsr #16
    b750:	0000b824 	andeq	fp, r0, r4, lsr #16
    b754:	0000b824 	andeq	fp, r0, r4, lsr #16
    b758:	0000b824 	andeq	fp, r0, r4, lsr #16
    b75c:	0000b7c8 	andeq	fp, r0, r8, asr #15
    b760:	e59d0064 	ldr	r0, [sp, #100]	; 0x64
    b764:	e2900000 	adds	r0, r0, #0
    b768:	13a00001 	movne	r0, #1
    b76c:	e0100fa3 	ands	r0, r0, r3, lsr #31
    b770:	1263c000 	rsbne	ip, r3, #0
    b774:	13a09001 	movne	r9, #1
    b778:	03a09000 	moveq	r9, #0
    b77c:	e1a0000d 	mov	r0, sp
    b780:	e59f8154 	ldr	r8, [pc, #340]	; b8dc <emit+0x1e0>
    b784:	e59f7154 	ldr	r7, [pc, #340]	; b8e0 <emit+0x1e4>
    b788:	e1a03000 	mov	r3, r0
    b78c:	e0846c97 	umull	r6, r4, r7, ip
    b790:	e1a041a4 	lsr	r4, r4, #3
    b794:	e0846104 	add	r6, r4, r4, lsl #2
    b798:	e04cc086 	sub	ip, ip, r6, lsl #1
    b79c:	e7d8c00c 	ldrb	ip, [r8, ip]
    b7a0:	e4c3c001 	strb	ip, [r3], #1
    b7a4:	e1a0c004 	mov	ip, r4
    b7a8:	e3540000 	cmp	r4, #0
    b7ac:	11a00003 	movne	r0, r3
    b7b0:	1afffff4 	bne	b788 <emit+0x8c>
    b7b4:	e3590000 	cmp	r9, #0
    b7b8:	12803002 	addne	r3, r0, #2
    b7bc:	13a0c02d 	movne	ip, #45	; 0x2d
    b7c0:	15c0c001 	strbne	ip, [r0, #1]
    b7c4:	ea00001c 	b	b83c <emit+0x140>
    b7c8:	e28d4001 	add	r4, sp, #1
    b7cc:	e59f6110 	ldr	r6, [pc, #272]	; b8e4 <emit+0x1e8>
    b7d0:	e1a03004 	mov	r3, r4
    b7d4:	e20c000f 	and	r0, ip, #15
    b7d8:	e7d60000 	ldrb	r0, [r6, r0]
    b7dc:	e5440001 	strb	r0, [r4, #-1]
    b7e0:	e2844001 	add	r4, r4, #1
    b7e4:	e1b0c22c 	lsrs	ip, ip, #4
    b7e8:	1afffff8 	bne	b7d0 <emit+0xd4>
    b7ec:	ea000012 	b	b83c <emit+0x140>
    b7f0:	e5cd3000 	strb	r3, [sp]
    b7f4:	e28d3001 	add	r3, sp, #1
    b7f8:	ea00000f 	b	b83c <emit+0x140>
    b7fc:	e28d4001 	add	r4, sp, #1
    b800:	e59f60e0 	ldr	r6, [pc, #224]	; b8e8 <emit+0x1ec>
    b804:	e1a03004 	mov	r3, r4
    b808:	e20c0001 	and	r0, ip, #1
    b80c:	e7d60000 	ldrb	r0, [r6, r0]
    b810:	e5440001 	strb	r0, [r4, #-1]
    b814:	e2844001 	add	r4, r4, #1
    b818:	e1b0c0ac 	lsrs	ip, ip, #1
    b81c:	1afffff8 	bne	b804 <emit+0x108>
    b820:	ea000005 	b	b83c <emit+0x140>
    b824:	e59f00c0 	ldr	r0, [pc, #192]	; b8ec <emit+0x1f0>
    b828:	e59f10c0 	ldr	r1, [pc, #192]	; b8f0 <emit+0x1f4>
    b82c:	e59f20c0 	ldr	r2, [pc, #192]	; b8f4 <emit+0x1f8>
    b830:	e3a0308d 	mov	r3, #141	; 0x8d
    b834:	ebffff98 	bl	b69c <printk>
    b838:	eb00010c 	bl	bc70 <rpi_reboot>
    b83c:	e1a0400d 	mov	r4, sp
    b840:	e064c003 	rsb	ip, r4, r3
    b844:	e155000c 	cmp	r5, ip
    b848:	da000006 	ble	b868 <emit+0x16c>
    b84c:	e06cc005 	rsb	ip, ip, r5
    b850:	e083c00c 	add	ip, r3, ip
    b854:	e3a00020 	mov	r0, #32
    b858:	e4c30001 	strb	r0, [r3], #1
    b85c:	e153000c 	cmp	r3, ip
    b860:	1afffffc 	bne	b858 <emit+0x15c>
    b864:	ea000000 	b	b86c <emit+0x170>
    b868:	e1a0c003 	mov	ip, r3
    b86c:	e3a03000 	mov	r3, #0
    b870:	e5cc3000 	strb	r3, [ip]
    b874:	e064400c 	rsb	r4, r4, ip
    b878:	e2844001 	add	r4, r4, #1
    b87c:	e1520004 	cmp	r2, r4
    b880:	b0624004 	rsblt	r4, r2, r4
    b884:	b08d3003 	addlt	r3, sp, r3
    b888:	b0834004 	addlt	r4, r3, r4
    b88c:	a1a0400d 	movge	r4, sp
    b890:	e24c3001 	sub	r3, ip, #1
    b894:	e1540003 	cmp	r4, r3
    b898:	8a000009 	bhi	b8c4 <emit+0x1c8>
    b89c:	e1a0000c 	mov	r0, ip
    b8a0:	e1a0300c 	mov	r3, ip
    b8a4:	e1a02001 	mov	r2, r1
    b8a8:	e573c001 	ldrb	ip, [r3, #-1]!
    b8ac:	e4c2c001 	strb	ip, [r2], #1
    b8b0:	e1530004 	cmp	r3, r4
    b8b4:	1afffffb 	bne	b8a8 <emit+0x1ac>
    b8b8:	e0644000 	rsb	r4, r4, r0
    b8bc:	e0814004 	add	r4, r1, r4
    b8c0:	ea000000 	b	b8c8 <emit+0x1cc>
    b8c4:	e1a04001 	mov	r4, r1
    b8c8:	e3a03000 	mov	r3, #0
    b8cc:	e5c43000 	strb	r3, [r4]
    b8d0:	e1a00001 	mov	r0, r1
    b8d4:	e28dd044 	add	sp, sp, #68	; 0x44
    b8d8:	e8bd83f0 	pop	{r4, r5, r6, r7, r8, r9, pc}
    b8dc:	0000dd5c 	andeq	sp, r0, ip, asr sp
    b8e0:	cccccccd 	stclgt	12, cr12, [ip], {205}	; 0xcd
    b8e4:	0000dd68 	andeq	sp, r0, r8, ror #26
    b8e8:	0000dd7c 	andeq	sp, r0, ip, ror sp
    b8ec:	0000dd38 	andeq	sp, r0, r8, lsr sp
    b8f0:	0000dd4c 	andeq	sp, r0, ip, asr #26
    b8f4:	0000dd24 	andeq	sp, r0, r4, lsr #26

0000b8f8 <va_printk>:
    b8f8:	e92d4ff0 	push	{r4, r5, r6, r7, r8, r9, sl, fp, lr}
    b8fc:	e24dd08c 	sub	sp, sp, #140	; 0x8c
    b900:	e1a07000 	mov	r7, r0
    b904:	e2411001 	sub	r1, r1, #1
    b908:	e0805001 	add	r5, r0, r1
    b90c:	e3a01000 	mov	r1, #0
    b910:	e5c01000 	strb	r1, [r0]
    b914:	e1a04000 	mov	r4, r0
    b918:	e1a08001 	mov	r8, r1
    b91c:	e3a0a008 	mov	sl, #8
    b920:	e3a09080 	mov	r9, #128	; 0x80
    b924:	ea000088 	b	bb4c <va_printk+0x254>
    b928:	e3510025 	cmp	r1, #37	; 0x25
    b92c:	12822001 	addne	r2, r2, #1
    b930:	15c41000 	strbne	r1, [r4]
    b934:	12844001 	addne	r4, r4, #1
    b938:	1a000083 	bne	bb4c <va_printk+0x254>
    b93c:	e5d21001 	ldrb	r1, [r2, #1]
    b940:	e3510025 	cmp	r1, #37	; 0x25
    b944:	05c41000 	strbeq	r1, [r4]
    b948:	02822002 	addeq	r2, r2, #2
    b94c:	02844001 	addeq	r4, r4, #1
    b950:	0a00007d 	beq	bb4c <va_printk+0x254>
    b954:	e2826001 	add	r6, r2, #1
    b958:	e1a00001 	mov	r0, r1
    b95c:	e241c030 	sub	ip, r1, #48	; 0x30
    b960:	e35c0009 	cmp	ip, #9
    b964:	8a000012 	bhi	b9b4 <va_printk+0xbc>
    b968:	e2822002 	add	r2, r2, #2
    b96c:	e1a0c008 	mov	ip, r8
    b970:	e08cc10c 	add	ip, ip, ip, lsl #2
    b974:	e080c08c 	add	ip, r0, ip, lsl #1
    b978:	e24cc030 	sub	ip, ip, #48	; 0x30
    b97c:	e1a06002 	mov	r6, r2
    b980:	e4d21001 	ldrb	r1, [r2], #1
    b984:	e1a00001 	mov	r0, r1
    b988:	e241b030 	sub	fp, r1, #48	; 0x30
    b98c:	e35b0009 	cmp	fp, #9
    b990:	9afffff6 	bls	b970 <va_printk+0x78>
    b994:	e35c001f 	cmp	ip, #31
    b998:	9a000007 	bls	b9bc <va_printk+0xc4>
    b99c:	e59f01e8 	ldr	r0, [pc, #488]	; bb8c <va_printk+0x294>
    b9a0:	e59f11e8 	ldr	r1, [pc, #488]	; bb90 <va_printk+0x298>
    b9a4:	e59f21e8 	ldr	r2, [pc, #488]	; bb94 <va_printk+0x29c>
    b9a8:	e3a030a9 	mov	r3, #169	; 0xa9
    b9ac:	ebffff3a 	bl	b69c <printk>
    b9b0:	eb0000ae 	bl	bc70 <rpi_reboot>
    b9b4:	e1a00001 	mov	r0, r1
    b9b8:	e1a0c008 	mov	ip, r8
    b9bc:	e2411062 	sub	r1, r1, #98	; 0x62
    b9c0:	e3510016 	cmp	r1, #22
    b9c4:	979ff101 	ldrls	pc, [pc, r1, lsl #2]
    b9c8:	ea000052 	b	bb18 <va_printk+0x220>
    b9cc:	0000babc 			; <UNDEFINED> instruction: 0x0000babc
    b9d0:	0000baf0 	strdeq	fp, [r0], -r0
    b9d4:	0000ba40 	andeq	fp, r0, r0, asr #20
    b9d8:	0000bb18 	andeq	fp, r0, r8, lsl fp
    b9dc:	0000ba28 	andeq	fp, r0, r8, lsr #20
    b9e0:	0000bb18 	andeq	fp, r0, r8, lsl fp
    b9e4:	0000bb18 	andeq	fp, r0, r8, lsl fp
    b9e8:	0000bb18 	andeq	fp, r0, r8, lsl fp
    b9ec:	0000bb18 	andeq	fp, r0, r8, lsl fp
    b9f0:	0000bb18 	andeq	fp, r0, r8, lsl fp
    b9f4:	0000bb18 	andeq	fp, r0, r8, lsl fp
    b9f8:	0000bb18 	andeq	fp, r0, r8, lsl fp
    b9fc:	0000bb18 	andeq	fp, r0, r8, lsl fp
    ba00:	0000bb18 	andeq	fp, r0, r8, lsl fp
    ba04:	0000ba94 	muleq	r0, r4, sl
    ba08:	0000bb18 	andeq	fp, r0, r8, lsl fp
    ba0c:	0000bb18 	andeq	fp, r0, r8, lsl fp
    ba10:	0000bae4 	andeq	fp, r0, r4, ror #21
    ba14:	0000bb18 	andeq	fp, r0, r8, lsl fp
    ba18:	0000ba6c 	andeq	fp, r0, ip, ror #20
    ba1c:	0000bb18 	andeq	fp, r0, r8, lsl fp
    ba20:	0000bb18 	andeq	fp, r0, r8, lsl fp
    ba24:	0000ba94 	muleq	r0, r4, sl
    ba28:	e59f0168 	ldr	r0, [pc, #360]	; bb98 <va_printk+0x2a0>
    ba2c:	e59f115c 	ldr	r1, [pc, #348]	; bb90 <va_printk+0x298>
    ba30:	e59f215c 	ldr	r2, [pc, #348]	; bb94 <va_printk+0x29c>
    ba34:	e3a030af 	mov	r3, #175	; 0xaf
    ba38:	ebffff17 	bl	b69c <printk>
    ba3c:	eb00008b 	bl	bc70 <rpi_reboot>
    ba40:	e283b004 	add	fp, r3, #4
    ba44:	e5933000 	ldr	r3, [r3]
    ba48:	e58dc000 	str	ip, [sp]
    ba4c:	e3a02001 	mov	r2, #1
    ba50:	e58d2004 	str	r2, [sp, #4]
    ba54:	e3a0000a 	mov	r0, #10
    ba58:	e28d1008 	add	r1, sp, #8
    ba5c:	e1a02009 	mov	r2, r9
    ba60:	ebffff25 	bl	b6fc <emit>
    ba64:	e1a0300b 	mov	r3, fp
    ba68:	ea000040 	b	bb70 <va_printk+0x278>
    ba6c:	e283b004 	add	fp, r3, #4
    ba70:	e5933000 	ldr	r3, [r3]
    ba74:	e58dc000 	str	ip, [sp]
    ba78:	e58d8004 	str	r8, [sp, #4]
    ba7c:	e3a0000a 	mov	r0, #10
    ba80:	e28d1008 	add	r1, sp, #8
    ba84:	e1a02009 	mov	r2, r9
    ba88:	ebffff1b 	bl	b6fc <emit>
    ba8c:	e1a0300b 	mov	r3, fp
    ba90:	ea000036 	b	bb70 <va_printk+0x278>
    ba94:	e283b004 	add	fp, r3, #4
    ba98:	e5933000 	ldr	r3, [r3]
    ba9c:	e58dc000 	str	ip, [sp]
    baa0:	e58d8004 	str	r8, [sp, #4]
    baa4:	e3a00010 	mov	r0, #16
    baa8:	e28d1008 	add	r1, sp, #8
    baac:	e1a02009 	mov	r2, r9
    bab0:	ebffff11 	bl	b6fc <emit>
    bab4:	e1a0300b 	mov	r3, fp
    bab8:	ea00002c 	b	bb70 <va_printk+0x278>
    babc:	e283b004 	add	fp, r3, #4
    bac0:	e5933000 	ldr	r3, [r3]
    bac4:	e58dc000 	str	ip, [sp]
    bac8:	e58d8004 	str	r8, [sp, #4]
    bacc:	e3a00002 	mov	r0, #2
    bad0:	e28d1008 	add	r1, sp, #8
    bad4:	e1a02009 	mov	r2, r9
    bad8:	ebffff07 	bl	b6fc <emit>
    badc:	e1a0300b 	mov	r3, fp
    bae0:	ea000022 	b	bb70 <va_printk+0x278>
    bae4:	e5930000 	ldr	r0, [r3]
    bae8:	e2833004 	add	r3, r3, #4
    baec:	ea00001f 	b	bb70 <va_printk+0x278>
    baf0:	e283b004 	add	fp, r3, #4
    baf4:	e5933000 	ldr	r3, [r3]
    baf8:	e58dc000 	str	ip, [sp]
    bafc:	e58d8004 	str	r8, [sp, #4]
    bb00:	e1a0000a 	mov	r0, sl
    bb04:	e28d1008 	add	r1, sp, #8
    bb08:	e1a02009 	mov	r2, r9
    bb0c:	ebfffefa 	bl	b6fc <emit>
    bb10:	e1a0300b 	mov	r3, fp
    bb14:	ea000015 	b	bb70 <va_printk+0x278>
    bb18:	e58d0000 	str	r0, [sp]
    bb1c:	e59f0078 	ldr	r0, [pc, #120]	; bb9c <va_printk+0x2a4>
    bb20:	e59f1068 	ldr	r1, [pc, #104]	; bb90 <va_printk+0x298>
    bb24:	e59f2068 	ldr	r2, [pc, #104]	; bb94 <va_printk+0x29c>
    bb28:	e3a030d0 	mov	r3, #208	; 0xd0
    bb2c:	ebfffeda 	bl	b69c <printk>
    bb30:	eb00004e 	bl	bc70 <rpi_reboot>
    bb34:	e4c41001 	strb	r1, [r4], #1
    bb38:	e1540005 	cmp	r4, r5
    bb3c:	0a000002 	beq	bb4c <va_printk+0x254>
    bb40:	e5f01001 	ldrb	r1, [r0, #1]!
    bb44:	e3510000 	cmp	r1, #0
    bb48:	1afffff9 	bne	bb34 <va_printk+0x23c>
    bb4c:	e5d21000 	ldrb	r1, [r2]
    bb50:	e3510000 	cmp	r1, #0
    bb54:	0a000001 	beq	bb60 <va_printk+0x268>
    bb58:	e1540005 	cmp	r4, r5
    bb5c:	3affff71 	bcc	b928 <va_printk+0x30>
    bb60:	e3a03000 	mov	r3, #0
    bb64:	e4c43001 	strb	r3, [r4], #1
    bb68:	e0670004 	rsb	r0, r7, r4
    bb6c:	ea000004 	b	bb84 <va_printk+0x28c>
    bb70:	e2862001 	add	r2, r6, #1
    bb74:	e5d01000 	ldrb	r1, [r0]
    bb78:	e3510000 	cmp	r1, #0
    bb7c:	0afffff2 	beq	bb4c <va_printk+0x254>
    bb80:	eaffffeb 	b	bb34 <va_printk+0x23c>
    bb84:	e28dd08c 	add	sp, sp, #140	; 0x8c
    bb88:	e8bd8ff0 	pop	{r4, r5, r6, r7, r8, r9, sl, fp, pc}
    bb8c:	0000dd80 	andeq	sp, r0, r0, lsl #27
    bb90:	0000dd4c 	andeq	sp, r0, ip, asr #26
    bb94:	0000dd2c 	andeq	sp, r0, ip, lsr #26
    bb98:	0000dd9c 	muleq	r0, ip, sp
    bb9c:	0000ddc4 	andeq	sp, r0, r4, asr #27

0000bba0 <snprintk>:
    bba0:	e92d000c 	push	{r2, r3}
    bba4:	e52de004 	push	{lr}		; (str lr, [sp, #-4]!)
    bba8:	e24dd00c 	sub	sp, sp, #12
    bbac:	e28d3014 	add	r3, sp, #20
    bbb0:	e58d3004 	str	r3, [sp, #4]
    bbb4:	e59d2010 	ldr	r2, [sp, #16]
    bbb8:	ebffff4e 	bl	b8f8 <va_printk>
    bbbc:	e28dd00c 	add	sp, sp, #12
    bbc0:	e49de004 	pop	{lr}		; (ldr lr, [sp], #4)
    bbc4:	e28dd008 	add	sp, sp, #8
    bbc8:	e12fff1e 	bx	lr

0000bbcc <uart_hex>:
    bbcc:	e92d4008 	push	{r3, lr}
    bbd0:	e59f0004 	ldr	r0, [pc, #4]	; bbdc <uart_hex+0x10>
    bbd4:	ebfffeb0 	bl	b69c <printk>
    bbd8:	e8bd8008 	pop	{r3, pc}
    bbdc:	0000ddfc 	strdeq	sp, [r0], -ip

0000bbe0 <putk>:
    bbe0:	e92d4010 	push	{r4, lr}
    bbe4:	e1a04000 	mov	r4, r0
    bbe8:	e5d00000 	ldrb	r0, [r0]
    bbec:	e3500000 	cmp	r0, #0
    bbf0:	0a000003 	beq	bc04 <putk+0x24>
    bbf4:	eb00016f 	bl	c1b8 <uart_putc>
    bbf8:	e5f40001 	ldrb	r0, [r4, #1]!
    bbfc:	e3500000 	cmp	r0, #0
    bc00:	1afffffb 	bne	bbf4 <putk+0x14>
    bc04:	e3a00001 	mov	r0, #1
    bc08:	e8bd8010 	pop	{r4, pc}

0000bc0c <panic>:
    bc0c:	e92d4008 	push	{r3, lr}
    bc10:	e1a06000 	mov	r6, r0
    bc14:	e1a05001 	mov	r5, r1
    bc18:	e1a04002 	mov	r4, r2
    bc1c:	e59f0018 	ldr	r0, [pc, #24]	; bc3c <panic+0x30>
    bc20:	ebffffee 	bl	bbe0 <putk>
    bc24:	e59f0014 	ldr	r0, [pc, #20]	; bc40 <panic+0x34>
    bc28:	e1a01006 	mov	r1, r6
    bc2c:	e1a02005 	mov	r2, r5
    bc30:	e1a03004 	mov	r3, r4
    bc34:	ebfffe98 	bl	b69c <printk>
    bc38:	eb00000c 	bl	bc70 <rpi_reboot>
    bc3c:	0000de00 	andeq	sp, r0, r0, lsl #28
    bc40:	0000de0c 	andeq	sp, r0, ip, lsl #28

0000bc44 <at_user_level>:
    bc44:	e10f0000 	mrs	r0, CPSR
    bc48:	e200001f 	and	r0, r0, #31
    bc4c:	e3500010 	cmp	r0, #16
    bc50:	13a00000 	movne	r0, #0
    bc54:	03a00001 	moveq	r0, #1
    bc58:	e12fff1e 	bx	lr

0000bc5c <set_user_level>:
    bc5c:	e10f3000 	mrs	r3, CPSR
    bc60:	e3c3301f 	bic	r3, r3, #31
    bc64:	e3833010 	orr	r3, r3, #16
    bc68:	e129f003 	msr	CPSR_fc, r3
    bc6c:	e12fff1e 	bx	lr

0000bc70 <rpi_reboot>:
    bc70:	e92d4008 	push	{r3, lr}
    bc74:	ebfffff2 	bl	bc44 <at_user_level>
    bc78:	e3500000 	cmp	r0, #0
    bc7c:	0a000009 	beq	bca8 <rpi_reboot+0x38>
    bc80:	ebfffff5 	bl	bc5c <set_user_level>
    bc84:	ebffffee 	bl	bc44 <at_user_level>
    bc88:	e3500000 	cmp	r0, #0
    bc8c:	1a000005 	bne	bca8 <rpi_reboot+0x38>
    bc90:	e59f0034 	ldr	r0, [pc, #52]	; bccc <rpi_reboot+0x5c>
    bc94:	e59f1034 	ldr	r1, [pc, #52]	; bcd0 <rpi_reboot+0x60>
    bc98:	e59f2034 	ldr	r2, [pc, #52]	; bcd4 <rpi_reboot+0x64>
    bc9c:	e3a0301f 	mov	r3, #31
    bca0:	ebfffe7d 	bl	b69c <printk>
    bca4:	ebfffff1 	bl	bc70 <rpi_reboot>
    bca8:	e3a0001e 	mov	r0, #30
    bcac:	eb00002a 	bl	bd5c <delay_ms>
    bcb0:	e59f0020 	ldr	r0, [pc, #32]	; bcd8 <rpi_reboot+0x68>
    bcb4:	e59f1020 	ldr	r1, [pc, #32]	; bcdc <rpi_reboot+0x6c>
    bcb8:	eb00010d 	bl	c0f4 <PUT32>
    bcbc:	e59f001c 	ldr	r0, [pc, #28]	; bce0 <rpi_reboot+0x70>
    bcc0:	e59f101c 	ldr	r1, [pc, #28]	; bce4 <rpi_reboot+0x74>
    bcc4:	eb00010a 	bl	c0f4 <PUT32>
    bcc8:	eafffffe 	b	bcc8 <rpi_reboot+0x58>
    bccc:	0000de38 	andeq	sp, r0, r8, lsr lr
    bcd0:	0000de58 	andeq	sp, r0, r8, asr lr
    bcd4:	0000de2c 	andeq	sp, r0, ip, lsr #28
    bcd8:	20100024 	andscs	r0, r0, r4, lsr #32
    bcdc:	5a000001 	bpl	bce8 <clean_reboot>
    bce0:	2010001c 	andscs	r0, r0, ip, lsl r0
    bce4:	5a000020 	bpl	bd6c <delay_ms+0x10>

0000bce8 <clean_reboot>:
    bce8:	e92d4008 	push	{r3, lr}
    bcec:	e59f000c 	ldr	r0, [pc, #12]	; bd00 <clean_reboot+0x18>
    bcf0:	ebffffba 	bl	bbe0 <putk>
    bcf4:	e3a00032 	mov	r0, #50	; 0x32
    bcf8:	eb000017 	bl	bd5c <delay_ms>
    bcfc:	ebffffdb 	bl	bc70 <rpi_reboot>
    bd00:	0000de68 	andeq	sp, r0, r8, ror #28

0000bd04 <delay_cycles>:
    bd04:	e2403001 	sub	r3, r0, #1
    bd08:	e3500000 	cmp	r0, #0
    bd0c:	012fff1e 	bxeq	lr
    bd10:	e2811000 	add	r1, r1, #0
    bd14:	e2433001 	sub	r3, r3, #1
    bd18:	e3730001 	cmn	r3, #1
    bd1c:	1afffffb 	bne	bd10 <delay_cycles+0xc>
    bd20:	e12fff1e 	bx	lr

0000bd24 <timer_get_time>:
    bd24:	e92d4008 	push	{r3, lr}
    bd28:	e59f0004 	ldr	r0, [pc, #4]	; bd34 <timer_get_time+0x10>
    bd2c:	eb0000f8 	bl	c114 <GET32>
    bd30:	e8bd8008 	pop	{r3, pc}
    bd34:	20003004 	andcs	r3, r0, r4

0000bd38 <delay_us>:
    bd38:	e92d4038 	push	{r3, r4, r5, lr}
    bd3c:	e1a05000 	mov	r5, r0
    bd40:	ebfffff7 	bl	bd24 <timer_get_time>
    bd44:	e1a04000 	mov	r4, r0
    bd48:	ebfffff5 	bl	bd24 <timer_get_time>
    bd4c:	e0640000 	rsb	r0, r4, r0
    bd50:	e1500005 	cmp	r0, r5
    bd54:	3afffffb 	bcc	bd48 <delay_us+0x10>
    bd58:	e8bd8038 	pop	{r3, r4, r5, pc}

0000bd5c <delay_ms>:
    bd5c:	e92d4008 	push	{r3, lr}
    bd60:	e3a03ffa 	mov	r3, #1000	; 0x3e8
    bd64:	e0000093 	mul	r0, r3, r0
    bd68:	ebfffff2 	bl	bd38 <delay_us>
    bd6c:	e8bd8008 	pop	{r3, pc}

0000bd70 <memset>:
    bd70:	e0802002 	add	r2, r0, r2
    bd74:	e1500002 	cmp	r0, r2
    bd78:	212fff1e 	bxcs	lr
    bd7c:	e1a03000 	mov	r3, r0
    bd80:	e4c31001 	strb	r1, [r3], #1
    bd84:	e1530002 	cmp	r3, r2
    bd88:	1afffffc 	bne	bd80 <memset+0x10>
    bd8c:	e12fff1e 	bx	lr

0000bd90 <memcmp>:
    bd90:	e52d4004 	push	{r4}		; (str r4, [sp, #-4]!)
    bd94:	e3520000 	cmp	r2, #0
    bd98:	0a00000f 	beq	bddc <memcmp+0x4c>
    bd9c:	e5d04000 	ldrb	r4, [r0]
    bda0:	e5d13000 	ldrb	r3, [r1]
    bda4:	e0543003 	subs	r3, r4, r3
    bda8:	1a00000d 	bne	bde4 <memcmp+0x54>
    bdac:	e1a03000 	mov	r3, r0
    bdb0:	e242c001 	sub	ip, r2, #1
    bdb4:	e080c00c 	add	ip, r0, ip
    bdb8:	ea000003 	b	bdcc <memcmp+0x3c>
    bdbc:	e5f30001 	ldrb	r0, [r3, #1]!
    bdc0:	e5f12001 	ldrb	r2, [r1, #1]!
    bdc4:	e0500002 	subs	r0, r0, r2
    bdc8:	1a000006 	bne	bde8 <memcmp+0x58>
    bdcc:	e153000c 	cmp	r3, ip
    bdd0:	1afffff9 	bne	bdbc <memcmp+0x2c>
    bdd4:	e3a00000 	mov	r0, #0
    bdd8:	ea000002 	b	bde8 <memcmp+0x58>
    bddc:	e3a00000 	mov	r0, #0
    bde0:	ea000000 	b	bde8 <memcmp+0x58>
    bde4:	e1a00003 	mov	r0, r3
    bde8:	e49d4004 	pop	{r4}		; (ldr r4, [sp], #4)
    bdec:	e12fff1e 	bx	lr

0000bdf0 <memcpy>:
    bdf0:	e1803001 	orr	r3, r0, r1
    bdf4:	e3130003 	tst	r3, #3
    bdf8:	1a000001 	bne	be04 <memcpy+0x14>
    bdfc:	e3120003 	tst	r2, #3
    be00:	0a000003 	beq	be14 <memcpy+0x24>
    be04:	e3520000 	cmp	r2, #0
    be08:	13a03000 	movne	r3, #0
    be0c:	1a00000a 	bne	be3c <memcpy+0x4c>
    be10:	e12fff1e 	bx	lr
    be14:	e1b02122 	lsrs	r2, r2, #2
    be18:	012fff1e 	bxeq	lr
    be1c:	e1a0c102 	lsl	ip, r2, #2
    be20:	e3a03000 	mov	r3, #0
    be24:	e7912003 	ldr	r2, [r1, r3]
    be28:	e7802003 	str	r2, [r0, r3]
    be2c:	e2833004 	add	r3, r3, #4
    be30:	e153000c 	cmp	r3, ip
    be34:	1afffffa 	bne	be24 <memcpy+0x34>
    be38:	e12fff1e 	bx	lr
    be3c:	e7d1c003 	ldrb	ip, [r1, r3]
    be40:	e7c0c003 	strb	ip, [r0, r3]
    be44:	e2833001 	add	r3, r3, #1
    be48:	e1530002 	cmp	r3, r2
    be4c:	1afffffa 	bne	be3c <memcpy+0x4c>
    be50:	e12fff1e 	bx	lr

0000be54 <strcmp>:
    be54:	e5d03000 	ldrb	r3, [r0]
    be58:	e3530000 	cmp	r3, #0
    be5c:	0a00000b 	beq	be90 <strcmp+0x3c>
    be60:	e5d12000 	ldrb	r2, [r1]
    be64:	e1520003 	cmp	r2, r3
    be68:	1a000008 	bne	be90 <strcmp+0x3c>
    be6c:	e2812001 	add	r2, r1, #1
    be70:	e1a01002 	mov	r1, r2
    be74:	e5f03001 	ldrb	r3, [r0, #1]!
    be78:	e3530000 	cmp	r3, #0
    be7c:	0a000003 	beq	be90 <strcmp+0x3c>
    be80:	e2822001 	add	r2, r2, #1
    be84:	e5d1c000 	ldrb	ip, [r1]
    be88:	e15c0003 	cmp	ip, r3
    be8c:	0afffff7 	beq	be70 <strcmp+0x1c>
    be90:	e5d10000 	ldrb	r0, [r1]
    be94:	e0600003 	rsb	r0, r0, r3
    be98:	e12fff1e 	bx	lr

0000be9c <strncmp>:
    be9c:	e0802002 	add	r2, r0, r2
    bea0:	ea000005 	b	bebc <strncmp+0x20>
    bea4:	e4d0c001 	ldrb	ip, [r0], #1
    bea8:	e4d13001 	ldrb	r3, [r1], #1
    beac:	e15c0003 	cmp	ip, r3
    beb0:	0a000001 	beq	bebc <strncmp+0x20>
    beb4:	e063000c 	rsb	r0, r3, ip
    beb8:	e12fff1e 	bx	lr
    bebc:	e1500002 	cmp	r0, r2
    bec0:	1afffff7 	bne	bea4 <strncmp+0x8>
    bec4:	e3a00000 	mov	r0, #0
    bec8:	e12fff1e 	bx	lr

0000becc <dev_barrier>:
    becc:	e92d4008 	push	{r3, lr}
    bed0:	eb0000c7 	bl	c1f4 <dmb>
    bed4:	eb0000c8 	bl	c1fc <dsb>
    bed8:	e8bd8008 	pop	{r3, pc}

0000bedc <strcat>:
    bedc:	e1a02000 	mov	r2, r0
    bee0:	e1a03002 	mov	r3, r2
    bee4:	e4d3c001 	ldrb	ip, [r3], #1
    bee8:	e35c0000 	cmp	ip, #0
    beec:	11a02003 	movne	r2, r3
    bef0:	1afffffa 	bne	bee0 <strcat+0x4>
    bef4:	e2422001 	sub	r2, r2, #1
    bef8:	e4d13001 	ldrb	r3, [r1], #1
    befc:	e5e23001 	strb	r3, [r2, #1]!
    bf00:	e3530000 	cmp	r3, #0
    bf04:	1afffffb 	bne	bef8 <strcat+0x1c>
    bf08:	e12fff1e 	bx	lr

0000bf0c <strlen>:
    bf0c:	e5d03000 	ldrb	r3, [r0]
    bf10:	e3530000 	cmp	r3, #0
    bf14:	0a000006 	beq	bf34 <strlen+0x28>
    bf18:	e1a03000 	mov	r3, r0
    bf1c:	e3a00000 	mov	r0, #0
    bf20:	e2800001 	add	r0, r0, #1
    bf24:	e5f32001 	ldrb	r2, [r3, #1]!
    bf28:	e3520000 	cmp	r2, #0
    bf2c:	1afffffb 	bne	bf20 <strlen+0x14>
    bf30:	e12fff1e 	bx	lr
    bf34:	e3a00000 	mov	r0, #0
    bf38:	e12fff1e 	bx	lr

0000bf3c <strcpy>:
    bf3c:	e1a02000 	mov	r2, r0
    bf40:	e4d13001 	ldrb	r3, [r1], #1
    bf44:	e4c23001 	strb	r3, [r2], #1
    bf48:	e3530000 	cmp	r3, #0
    bf4c:	1afffffb 	bne	bf40 <strcpy+0x4>
    bf50:	e12fff1e 	bx	lr

0000bf54 <_cstart>:
    bf54:	e92d4008 	push	{r3, lr}
    bf58:	e59f3038 	ldr	r3, [pc, #56]	; bf98 <_cstart+0x44>
    bf5c:	e59f2038 	ldr	r2, [pc, #56]	; bf9c <_cstart+0x48>
    bf60:	e1520003 	cmp	r2, r3
    bf64:	2a000009 	bcs	bf90 <_cstart+0x3c>
    bf68:	e2423004 	sub	r3, r2, #4
    bf6c:	e59f102c 	ldr	r1, [pc, #44]	; bfa0 <_cstart+0x4c>
    bf70:	e0631001 	rsb	r1, r3, r1
    bf74:	e3c11003 	bic	r1, r1, #3
    bf78:	e2832004 	add	r2, r3, #4
    bf7c:	e0811002 	add	r1, r1, r2
    bf80:	e3a02000 	mov	r2, #0
    bf84:	e5a32004 	str	r2, [r3, #4]!
    bf88:	e1530001 	cmp	r3, r1
    bf8c:	1afffffc 	bne	bf84 <_cstart+0x30>
    bf90:	ebfff0e9 	bl	833c <notmain>
    bf94:	ebffff35 	bl	bc70 <rpi_reboot>
    bf98:	0000e630 	andeq	lr, r0, r0, lsr r6
    bf9c:	0000df7c 	andeq	sp, r0, ip, ror pc
    bfa0:	0000e62b 	andeq	lr, r0, fp, lsr #12

0000bfa4 <kmalloc_heap_end>:
    bfa4:	e59f3004 	ldr	r3, [pc, #4]	; bfb0 <kmalloc_heap_end+0xc>
    bfa8:	e5930000 	ldr	r0, [r3]
    bfac:	e12fff1e 	bx	lr
    bfb0:	0000c4b4 			; <UNDEFINED> instruction: 0x0000c4b4

0000bfb4 <kmalloc_heap_start>:
    bfb4:	e59f0000 	ldr	r0, [pc]	; bfbc <kmalloc_heap_start+0x8>
    bfb8:	e12fff1e 	bx	lr
    bfbc:	0000e630 	andeq	lr, r0, r0, lsr r6

0000bfc0 <kmalloc_set_start>:
    bfc0:	e92d4008 	push	{r3, lr}
    bfc4:	e59f3028 	ldr	r3, [pc, #40]	; bff4 <kmalloc_set_start+0x34>
    bfc8:	e5933000 	ldr	r3, [r3]
    bfcc:	e1500003 	cmp	r0, r3
    bfd0:	859f301c 	ldrhi	r3, [pc, #28]	; bff4 <kmalloc_set_start+0x34>
    bfd4:	85830000 	strhi	r0, [r3]
    bfd8:	88bd8008 	pophi	{r3, pc}
    bfdc:	e59f0014 	ldr	r0, [pc, #20]	; bff8 <kmalloc_set_start+0x38>
    bfe0:	e59f1014 	ldr	r1, [pc, #20]	; bffc <kmalloc_set_start+0x3c>
    bfe4:	e59f2014 	ldr	r2, [pc, #20]	; c000 <kmalloc_set_start+0x40>
    bfe8:	e3a03015 	mov	r3, #21
    bfec:	ebfffdaa 	bl	b69c <printk>
    bff0:	ebffff1e 	bl	bc70 <rpi_reboot>
    bff4:	0000c4b4 			; <UNDEFINED> instruction: 0x0000c4b4
    bff8:	0000de98 	muleq	r0, r8, lr
    bffc:	0000deb4 			; <UNDEFINED> instruction: 0x0000deb4
    c000:	0000de74 	andeq	sp, r0, r4, ror lr

0000c004 <kmalloc>:
    c004:	e92d4010 	push	{r4, lr}
    c008:	e2800007 	add	r0, r0, #7
    c00c:	e3c02007 	bic	r2, r0, #7
    c010:	e59f301c 	ldr	r3, [pc, #28]	; c034 <kmalloc+0x30>
    c014:	e5934000 	ldr	r4, [r3]
    c018:	e0841002 	add	r1, r4, r2
    c01c:	e5831000 	str	r1, [r3]
    c020:	e1a00004 	mov	r0, r4
    c024:	e3a01000 	mov	r1, #0
    c028:	ebffff50 	bl	bd70 <memset>
    c02c:	e1a00004 	mov	r0, r4
    c030:	e8bd8010 	pop	{r4, pc}
    c034:	0000c4b4 			; <UNDEFINED> instruction: 0x0000c4b4

0000c038 <kmalloc_aligned>:
    c038:	e92d4008 	push	{r3, lr}
    c03c:	e2612000 	rsb	r2, r1, #0
    c040:	e0023001 	and	r3, r2, r1
    c044:	e1530001 	cmp	r3, r1
    c048:	0a000005 	beq	c064 <kmalloc_aligned+0x2c>
    c04c:	e59f0058 	ldr	r0, [pc, #88]	; c0ac <kmalloc_aligned+0x74>
    c050:	e59f1058 	ldr	r1, [pc, #88]	; c0b0 <kmalloc_aligned+0x78>
    c054:	e59f2058 	ldr	r2, [pc, #88]	; c0b4 <kmalloc_aligned+0x7c>
    c058:	e3a03026 	mov	r3, #38	; 0x26
    c05c:	ebfffd8e 	bl	b69c <printk>
    c060:	ebffff02 	bl	bc70 <rpi_reboot>
    c064:	e59f104c 	ldr	r1, [pc, #76]	; c0b8 <kmalloc_aligned+0x80>
    c068:	e5911000 	ldr	r1, [r1]
    c06c:	e2411001 	sub	r1, r1, #1
    c070:	e0811003 	add	r1, r1, r3
    c074:	e0012002 	and	r2, r1, r2
    c078:	e2433001 	sub	r3, r3, #1
    c07c:	e1120003 	tst	r2, r3
    c080:	0a000005 	beq	c09c <kmalloc_aligned+0x64>
    c084:	e59f0030 	ldr	r0, [pc, #48]	; c0bc <kmalloc_aligned+0x84>
    c088:	e59f1020 	ldr	r1, [pc, #32]	; c0b0 <kmalloc_aligned+0x78>
    c08c:	e59f2020 	ldr	r2, [pc, #32]	; c0b4 <kmalloc_aligned+0x7c>
    c090:	e3a0302c 	mov	r3, #44	; 0x2c
    c094:	ebfffd80 	bl	b69c <printk>
    c098:	ebfffef4 	bl	bc70 <rpi_reboot>
    c09c:	e59f3014 	ldr	r3, [pc, #20]	; c0b8 <kmalloc_aligned+0x80>
    c0a0:	e5832000 	str	r2, [r3]
    c0a4:	ebffffd6 	bl	c004 <kmalloc>
    c0a8:	e8bd8008 	pop	{r3, pc}
    c0ac:	0000dec8 	andeq	sp, r0, r8, asr #29
    c0b0:	0000deb4 			; <UNDEFINED> instruction: 0x0000deb4
    c0b4:	0000de88 	andeq	sp, r0, r8, lsl #29
    c0b8:	0000c4b4 			; <UNDEFINED> instruction: 0x0000c4b4
    c0bc:	0000df28 	andeq	sp, r0, r8, lsr #30

0000c0c0 <kfree>:
    c0c0:	e12fff1e 	bx	lr

0000c0c4 <kfree_all>:
    c0c4:	e59f2008 	ldr	r2, [pc, #8]	; c0d4 <kfree_all+0x10>
    c0c8:	e59f3008 	ldr	r3, [pc, #8]	; c0d8 <kfree_all+0x14>
    c0cc:	e5832000 	str	r2, [r3]
    c0d0:	e12fff1e 	bx	lr
    c0d4:	0000e630 	andeq	lr, r0, r0, lsr r6
    c0d8:	0000c4b4 			; <UNDEFINED> instruction: 0x0000c4b4

0000c0dc <kfree_after>:
    c0dc:	e59f3004 	ldr	r3, [pc, #4]	; c0e8 <kfree_after+0xc>
    c0e0:	e5830000 	str	r0, [r3]
    c0e4:	e12fff1e 	bx	lr
    c0e8:	0000c4b4 			; <UNDEFINED> instruction: 0x0000c4b4

0000c0ec <put32>:
    c0ec:	e5801000 	str	r1, [r0]
    c0f0:	e12fff1e 	bx	lr

0000c0f4 <PUT32>:
    c0f4:	e5801000 	str	r1, [r0]
    c0f8:	e12fff1e 	bx	lr

0000c0fc <PUT16>:
    c0fc:	e1c010b0 	strh	r1, [r0]
    c100:	e12fff1e 	bx	lr

0000c104 <PUT8>:
    c104:	e5c01000 	strb	r1, [r0]
    c108:	e12fff1e 	bx	lr

0000c10c <get32>:
    c10c:	e5900000 	ldr	r0, [r0]
    c110:	e12fff1e 	bx	lr

0000c114 <GET32>:
    c114:	e5900000 	ldr	r0, [r0]
    c118:	e12fff1e 	bx	lr

0000c11c <GETPC>:
    c11c:	e1a0000e 	mov	r0, lr
    c120:	e12fff1e 	bx	lr

0000c124 <dummy>:
    c124:	e12fff1e 	bx	lr

0000c128 <uart_init>:
    c128:	e92d4010 	push	{r4, lr}
    c12c:	e3a01002 	mov	r1, #2
    c130:	e3a0000e 	mov	r0, #14
    c134:	eb000032 	bl	c204 <gpio_set_function>
    c138:	e3a01002 	mov	r1, #2
    c13c:	e3a0000f 	mov	r0, #15
    c140:	eb00002f 	bl	c204 <gpio_set_function>
    c144:	e59f4044 	ldr	r4, [pc, #68]	; c190 <uart_init+0x68>
    c148:	e5943004 	ldr	r3, [r4, #4]
    c14c:	e3833001 	orr	r3, r3, #1
    c150:	e5843004 	str	r3, [r4, #4]
    c154:	eb000026 	bl	c1f4 <dmb>
    c158:	eb000027 	bl	c1fc <dsb>
    c15c:	e3a03000 	mov	r3, #0
    c160:	e5843044 	str	r3, [r4, #68]	; 0x44
    c164:	e5843060 	str	r3, [r4, #96]	; 0x60
    c168:	e3a02003 	mov	r2, #3
    c16c:	e584204c 	str	r2, [r4, #76]	; 0x4c
    c170:	e5843050 	str	r3, [r4, #80]	; 0x50
    c174:	e5843044 	str	r3, [r4, #68]	; 0x44
    c178:	e3a0300e 	mov	r3, #14
    c17c:	e5843048 	str	r3, [r4, #72]	; 0x48
    c180:	e2833c01 	add	r3, r3, #256	; 0x100
    c184:	e5843068 	str	r3, [r4, #104]	; 0x68
    c188:	e5842060 	str	r2, [r4, #96]	; 0x60
    c18c:	e8bd8010 	pop	{r4, pc}
    c190:	20215000 	eorcs	r5, r1, r0

0000c194 <uart_getc>:
    c194:	e59f3018 	ldr	r3, [pc, #24]	; c1b4 <uart_getc+0x20>
    c198:	e5933054 	ldr	r3, [r3, #84]	; 0x54
    c19c:	e3130001 	tst	r3, #1
    c1a0:	0afffffb 	beq	c194 <uart_getc>
    c1a4:	e59f3008 	ldr	r3, [pc, #8]	; c1b4 <uart_getc+0x20>
    c1a8:	e5930040 	ldr	r0, [r3, #64]	; 0x40
    c1ac:	e6ef0070 	uxtb	r0, r0
    c1b0:	e12fff1e 	bx	lr
    c1b4:	20215000 	eorcs	r5, r1, r0

0000c1b8 <uart_putc>:
    c1b8:	e59f3014 	ldr	r3, [pc, #20]	; c1d4 <uart_putc+0x1c>
    c1bc:	e5933054 	ldr	r3, [r3, #84]	; 0x54
    c1c0:	e3130020 	tst	r3, #32
    c1c4:	0afffffb 	beq	c1b8 <uart_putc>
    c1c8:	e59f3004 	ldr	r3, [pc, #4]	; c1d4 <uart_putc+0x1c>
    c1cc:	e5830040 	str	r0, [r3, #64]	; 0x40
    c1d0:	e12fff1e 	bx	lr
    c1d4:	20215000 	eorcs	r5, r1, r0

0000c1d8 <BRANCHTO>:
    c1d8:	e12fff10 	bx	r0

0000c1dc <mb>:
    c1dc:	e3a00000 	mov	r0, #0
    c1e0:	ee070f15 	mcr	15, 0, r0, cr7, cr5, {0}
    c1e4:	ee070fd5 	mcr	15, 0, r0, cr7, cr5, {6}
    c1e8:	ee070f9a 	mcr	15, 0, r0, cr7, cr10, {4}
    c1ec:	ee070f95 	mcr	15, 0, r0, cr7, cr5, {4}
    c1f0:	e12fff1e 	bx	lr

0000c1f4 <dmb>:
    c1f4:	ee070fba 	mcr	15, 0, r0, cr7, cr10, {5}
    c1f8:	e12fff1e 	bx	lr

0000c1fc <dsb>:
    c1fc:	ee070f9a 	mcr	15, 0, r0, cr7, cr10, {4}
    c200:	e12fff1e 	bx	lr

0000c204 <gpio_set_function>:
    c204:	e92d40f8 	push	{r3, r4, r5, r6, r7, lr}
    c208:	e1a04000 	mov	r4, r0
    c20c:	e1a06001 	mov	r6, r1
    c210:	e3500035 	cmp	r0, #53	; 0x35
    c214:	8a000013 	bhi	c268 <gpio_set_function+0x64>
    c218:	e3510007 	cmp	r1, #7
    c21c:	8a000013 	bhi	c270 <gpio_set_function+0x6c>
    c220:	e59f5050 	ldr	r5, [pc, #80]	; c278 <gpio_set_function+0x74>
    c224:	e0853095 	umull	r3, r5, r5, r0
    c228:	e1a051a5 	lsr	r5, r5, #3
    c22c:	e2857302 	add	r7, r5, #134217728	; 0x8000000
    c230:	e2877702 	add	r7, r7, #524288	; 0x80000
    c234:	e1a07107 	lsl	r7, r7, #2
    c238:	e1a00007 	mov	r0, r7
    c23c:	ebffffb4 	bl	c114 <GET32>
    c240:	e0855105 	add	r5, r5, r5, lsl #2
    c244:	e0444085 	sub	r4, r4, r5, lsl #1
    c248:	e0844084 	add	r4, r4, r4, lsl #1
    c24c:	e3a01007 	mov	r1, #7
    c250:	e1c01411 	bic	r1, r0, r1, lsl r4
    c254:	e1a00007 	mov	r0, r7
    c258:	e1811416 	orr	r1, r1, r6, lsl r4
    c25c:	ebffffa4 	bl	c0f4 <PUT32>
    c260:	e3a00000 	mov	r0, #0
    c264:	e8bd80f8 	pop	{r3, r4, r5, r6, r7, pc}
    c268:	e3e00000 	mvn	r0, #0
    c26c:	e8bd80f8 	pop	{r3, r4, r5, r6, r7, pc}
    c270:	e3e00000 	mvn	r0, #0
    c274:	e8bd80f8 	pop	{r3, r4, r5, r6, r7, pc}
    c278:	cccccccd 	stclgt	12, cr12, [ip], {205}	; 0xcd

0000c27c <gpio_get_function>:
    c27c:	e92d4038 	push	{r3, r4, r5, lr}
    c280:	e1a04000 	mov	r4, r0
    c284:	e3500035 	cmp	r0, #53	; 0x35
    c288:	8a00000d 	bhi	c2c4 <gpio_get_function+0x48>
    c28c:	e59f5038 	ldr	r5, [pc, #56]	; c2cc <gpio_get_function+0x50>
    c290:	e0853095 	umull	r3, r5, r5, r0
    c294:	e1a051a5 	lsr	r5, r5, #3
    c298:	e2850302 	add	r0, r5, #134217728	; 0x8000000
    c29c:	e2800702 	add	r0, r0, #524288	; 0x80000
    c2a0:	e1a00100 	lsl	r0, r0, #2
    c2a4:	ebffff9a 	bl	c114 <GET32>
    c2a8:	e0855105 	add	r5, r5, r5, lsl #2
    c2ac:	e0444085 	sub	r4, r4, r5, lsl #1
    c2b0:	e0844084 	add	r4, r4, r4, lsl #1
    c2b4:	e3a03007 	mov	r3, #7
    c2b8:	e0000413 	and	r0, r0, r3, lsl r4
    c2bc:	e1a00430 	lsr	r0, r0, r4
    c2c0:	e8bd8038 	pop	{r3, r4, r5, pc}
    c2c4:	e3e00000 	mvn	r0, #0
    c2c8:	e8bd8038 	pop	{r3, r4, r5, pc}
    c2cc:	cccccccd 	stclgt	12, cr12, [ip], {205}	; 0xcd

0000c2d0 <gpio_set_input>:
    c2d0:	e92d4008 	push	{r3, lr}
    c2d4:	e3a01000 	mov	r1, #0
    c2d8:	ebffffc9 	bl	c204 <gpio_set_function>
    c2dc:	e8bd8008 	pop	{r3, pc}

0000c2e0 <gpio_set_output>:
    c2e0:	e92d4008 	push	{r3, lr}
    c2e4:	e3a01001 	mov	r1, #1
    c2e8:	ebffffc5 	bl	c204 <gpio_set_function>
    c2ec:	e8bd8008 	pop	{r3, pc}

0000c2f0 <gpio_write>:
    c2f0:	e92d4008 	push	{r3, lr}
    c2f4:	e3500035 	cmp	r0, #53	; 0x35
    c2f8:	8a00000b 	bhi	c32c <gpio_write+0x3c>
    c2fc:	e3510000 	cmp	r1, #0
    c300:	e1a022a0 	lsr	r2, r0, #5
    c304:	159f3028 	ldrne	r3, [pc, #40]	; c334 <gpio_write+0x44>
    c308:	059f3028 	ldreq	r3, [pc, #40]	; c338 <gpio_write+0x48>
    c30c:	e0832102 	add	r2, r3, r2, lsl #2
    c310:	e200301f 	and	r3, r0, #31
    c314:	e1a00002 	mov	r0, r2
    c318:	e3a01001 	mov	r1, #1
    c31c:	e1a01311 	lsl	r1, r1, r3
    c320:	ebffff73 	bl	c0f4 <PUT32>
    c324:	e3a00000 	mov	r0, #0
    c328:	e8bd8008 	pop	{r3, pc}
    c32c:	e3e00000 	mvn	r0, #0
    c330:	e8bd8008 	pop	{r3, pc}
    c334:	2020001c 	eorcs	r0, r0, ip, lsl r0
    c338:	20200028 	eorcs	r0, r0, r8, lsr #32

0000c33c <gpio_read>:
    c33c:	e92d4010 	push	{r4, lr}
    c340:	e1a04000 	mov	r4, r0
    c344:	e3500035 	cmp	r0, #53	; 0x35
    c348:	8a000009 	bhi	c374 <gpio_read+0x38>
    c34c:	e1a002a0 	lsr	r0, r0, #5
    c350:	e59f3024 	ldr	r3, [pc, #36]	; c37c <gpio_read+0x40>
    c354:	e0830100 	add	r0, r3, r0, lsl #2
    c358:	ebffff6d 	bl	c114 <GET32>
    c35c:	e204401f 	and	r4, r4, #31
    c360:	e3a03001 	mov	r3, #1
    c364:	e0103413 	ands	r3, r0, r3, lsl r4
    c368:	03a00000 	moveq	r0, #0
    c36c:	13a00001 	movne	r0, #1
    c370:	e8bd8010 	pop	{r4, pc}
    c374:	e3e00000 	mvn	r0, #0
    c378:	e8bd8010 	pop	{r4, pc}
    c37c:	20200034 	eorcs	r0, r0, r4, lsr r0

0000c380 <gpio_set_off>:
    c380:	e92d4008 	push	{r3, lr}
    c384:	e3a01000 	mov	r1, #0
    c388:	ebffffd8 	bl	c2f0 <gpio_write>
    c38c:	e8bd8008 	pop	{r3, pc}

0000c390 <gpio_set_on>:
    c390:	e92d4008 	push	{r3, lr}
    c394:	e3a01001 	mov	r1, #1
    c398:	ebffffd4 	bl	c2f0 <gpio_write>
    c39c:	e8bd8008 	pop	{r3, pc}

0000c3a0 <gpio_set_pud>:
    c3a0:	e92d4070 	push	{r4, r5, r6, lr}
    c3a4:	e1a04000 	mov	r4, r0
    c3a8:	e3500035 	cmp	r0, #53	; 0x35
    c3ac:	8a000018 	bhi	c414 <gpio_set_pud+0x74>
    c3b0:	e3510002 	cmp	r1, #2
    c3b4:	8a000018 	bhi	c41c <gpio_set_pud+0x7c>
    c3b8:	e59f6064 	ldr	r6, [pc, #100]	; c424 <gpio_set_pud+0x84>
    c3bc:	e1a00006 	mov	r0, r6
    c3c0:	ebffff4b 	bl	c0f4 <PUT32>
    c3c4:	e3a00096 	mov	r0, #150	; 0x96
    c3c8:	ebfffe5a 	bl	bd38 <delay_us>
    c3cc:	e1a052a4 	lsr	r5, r4, #5
    c3d0:	e59f3050 	ldr	r3, [pc, #80]	; c428 <gpio_set_pud+0x88>
    c3d4:	e0835105 	add	r5, r3, r5, lsl #2
    c3d8:	e204401f 	and	r4, r4, #31
    c3dc:	e1a00005 	mov	r0, r5
    c3e0:	e3a01001 	mov	r1, #1
    c3e4:	e1a01411 	lsl	r1, r1, r4
    c3e8:	ebffff41 	bl	c0f4 <PUT32>
    c3ec:	e3a00096 	mov	r0, #150	; 0x96
    c3f0:	ebfffe50 	bl	bd38 <delay_us>
    c3f4:	e1a00006 	mov	r0, r6
    c3f8:	e3a01000 	mov	r1, #0
    c3fc:	ebffff3c 	bl	c0f4 <PUT32>
    c400:	e1a00005 	mov	r0, r5
    c404:	e3a01000 	mov	r1, #0
    c408:	ebffff39 	bl	c0f4 <PUT32>
    c40c:	e3a00000 	mov	r0, #0
    c410:	e8bd8070 	pop	{r4, r5, r6, pc}
    c414:	e3e00000 	mvn	r0, #0
    c418:	e8bd8070 	pop	{r4, r5, r6, pc}
    c41c:	e3e00000 	mvn	r0, #0
    c420:	e8bd8070 	pop	{r4, r5, r6, pc}
    c424:	20200094 	mlacs	r0, r4, r0, r0
    c428:	20200098 	mlacs	r0, r8, r0, r0

0000c42c <gpio_set_pullup>:
    c42c:	e92d4008 	push	{r3, lr}
    c430:	e3a01002 	mov	r1, #2
    c434:	ebffffd9 	bl	c3a0 <gpio_set_pud>
    c438:	e8bd8008 	pop	{r3, pc}

0000c43c <gpio_set_pulldown>:
    c43c:	e92d4008 	push	{r3, lr}
    c440:	e3a01001 	mov	r1, #1
    c444:	ebffffd5 	bl	c3a0 <gpio_set_pud>
    c448:	e8bd8008 	pop	{r3, pc}

Disassembly of section .data:

0000c44c <utf>:
    c44c:	0000c4a4 	andeq	ip, r0, r4, lsr #9
    c450:	0000c494 	muleq	r0, r4, r4
    c454:	0000c484 	andeq	ip, r0, r4, lsl #9
    c458:	0000c474 	andeq	ip, r0, r4, ror r4
    c45c:	0000c464 	andeq	ip, r0, r4, ror #8
    c460:	0000e204 	andeq	lr, r0, r4, lsl #4

0000c464 <__compound_literal.4>:
    c464:	0000f007 	andeq	pc, r0, r7
    c468:	00010000 	andeq	r0, r1, r0
    c46c:	0010ffff 			; <UNDEFINED> instruction: 0x0010ffff
    c470:	00000003 	andeq	r0, r0, r3

0000c474 <__compound_literal.3>:
    c474:	0000e00f 	andeq	lr, r0, pc
    c478:	00000800 	andeq	r0, r0, r0, lsl #16
    c47c:	0000ffff 	strdeq	pc, [r0], -pc	; <UNPREDICTABLE>
    c480:	00000004 	andeq	r0, r0, r4

0000c484 <__compound_literal.2>:
    c484:	0000c01f 	andeq	ip, r0, pc, lsl r0
    c488:	00000080 	andeq	r0, r0, r0, lsl #1
    c48c:	000007ff 	strdeq	r0, [r0], -pc	; <UNPREDICTABLE>
    c490:	00000005 	andeq	r0, r0, r5

0000c494 <__compound_literal.1>:
    c494:	0000007f 	andeq	r0, r0, pc, ror r0
    c498:	00000000 	andeq	r0, r0, r0
    c49c:	0000007f 	andeq	r0, r0, pc, ror r0
    c4a0:	00000007 	andeq	r0, r0, r7

0000c4a4 <__compound_literal.0>:
    c4a4:	0000803f 	andeq	r8, r0, pc, lsr r0
	...
    c4b0:	00000006 	andeq	r0, r0, r6

0000c4b4 <heap>:
    c4b4:	0000e630 	andeq	lr, r0, r0, lsr r6

Disassembly of section .rodata:

0000c4b8 <__FUNCTION__.4021>:
    c4b8:	33746166 	cmncc	r4, #-2147483623	; 0x80000019
    c4bc:	6f745f32 	svcvs	0x00745f32
    c4c0:	7269645f 	rsbvc	r6, r9, #1593835520	; 0x5f000000
    c4c4:	00746e65 	rsbseq	r6, r4, r5, ror #28

0000c4c8 <__FUNCTION__.4036>:
    c4c8:	33746166 	cmncc	r4, #-2147483623	; 0x80000019
    c4cc:	65725f32 	ldrbvs	r5, [r2, #-3890]!	; 0xf32
    c4d0:	665f6461 	ldrbvs	r6, [pc], -r1, ror #8
    c4d4:	00656c69 	rsbeq	r6, r5, r9, ror #24

0000c4d8 <__FUNCTION__.4054>:
    c4d8:	6d746f6e 	ldclvs	15, cr6, [r4, #-440]!	; 0xfffffe48
    c4dc:	006e6961 	rsbeq	r6, lr, r1, ror #18
    c4e0:	5f636573 	svcpl	0x00636573
    c4e4:	64616572 	strbtvs	r6, [r1], #-1394	; 0x572
    c4e8:	626c203a 	rsbvs	r2, ip, #58	; 0x3a
    c4ec:	25203a61 	strcs	r3, [r0, #-2657]!	; 0xa61
    c4f0:	6e202c78 	mcrvs	12, 1, r2, cr0, cr8, {3}
    c4f4:	3a636573 	bcc	18e5ac8 <__bss_end__+0x18d7498>
    c4f8:	0a642520 	beq	1915980 <__bss_end__+0x1907350>
    c4fc:	00000000 	andeq	r0, r0, r0
    c500:	494e4150 	stmdbmi	lr, {r4, r6, r8, lr}^
    c504:	73253a43 	teqvc	r5, #274432	; 0x43000
    c508:	3a73253a 	bcc	1cd59f8 <__bss_end__+0x1cc73c8>
    c50c:	753a6425 	ldrvc	r6, [sl, #-1061]!	; 0x425
    c510:	20646573 	rsbcs	r6, r4, r3, ror r5
    c514:	70203d3c 	eorvc	r3, r0, ip, lsr sp
    c518:	000a6e2e 	andeq	r6, sl, lr, lsr #28
    c51c:	76697264 	strbtvc	r7, [r9], -r4, ror #4
    c520:	632e7265 	teqvs	lr, #1342177286	; 0x50000006
    c524:	00000000 	andeq	r0, r0, r0
    c528:	73756c63 	cmnvc	r5, #25344	; 0x6300
    c52c:	20726574 	rsbscs	r6, r2, r4, ror r5
    c530:	203a6469 	eorscs	r6, sl, r9, ror #8
    c534:	202c6425 	eorcs	r6, ip, r5, lsr #8
    c538:	7461646e 	strbtvc	r6, [r1], #-1134	; 0x46e
    c53c:	25203a61 	strcs	r3, [r0, #-2657]!	; 0xa61
    c540:	6e202c64 	cdpvs	12, 2, cr2, cr0, cr4, {3}
    c544:	6f6c6c61 	svcvs	0x006c6c61
    c548:	25203a63 	strcs	r3, [r0, #-2659]!	; 0xa63
    c54c:	74200a64 	strtvc	r0, [r0], #-2660	; 0xa64
    c550:	6c61746f 	cfstrdvs	mvd7, [r1], #-444	; 0xfffffe44
    c554:	74636553 	strbtvc	r6, [r3], #-1363	; 0x553
    c558:	3a73726f 	bcc	1ce8f1c <__bss_end__+0x1cda8ec>
    c55c:	00642520 	rsbeq	r2, r4, r0, lsr #10
    c560:	494e4150 	stmdbmi	lr, {r4, r6, r8, lr}^
    c564:	73253a43 	teqvc	r5, #274432	; 0x43000
    c568:	3a73253a 	bcc	1cd5a58 <__bss_end__+0x1cc7428>
    c56c:	733a6425 	teqvc	sl, #620756992	; 0x25000000
    c570:	6f746365 	svcvs	0x00746365
    c574:	65527372 	ldrbvs	r7, [r2, #-882]	; 0x372
    c578:	3d206461 	cfstrscc	mvf6, [r0, #-388]!	; 0xfffffe7c
    c57c:	6f74203d 	svcvs	0x0074203d
    c580:	536c6174 	cmnpl	ip, #116, 2
    c584:	6f746365 	svcvs	0x00746365
    c588:	000a7372 	andeq	r7, sl, r2, ror r3
    c58c:	494e4150 	stmdbmi	lr, {r4, r6, r8, lr}^
    c590:	73253a43 	teqvc	r5, #274432	; 0x43000
    c594:	3a73253a 	bcc	1cd5a84 <__bss_end__+0x1cc7454>
    c598:	733a6425 	teqvc	sl, #620756992	; 0x25000000
    c59c:	6f746365 	svcvs	0x00746365
    c5a0:	65527372 	ldrbvs	r7, [r2, #-882]	; 0x372
    c5a4:	3c206461 	cfstrscc	mvf6, [r0], #-388	; 0xfffffe7c
    c5a8:	746f7420 	strbtvc	r7, [pc], #-1056	; c5b0 <__FUNCTION__.4054+0xd8>
    c5ac:	65536c61 	ldrbvs	r6, [r3, #-3169]	; 0xc61
    c5b0:	726f7463 	rsbvc	r7, pc, #1660944384	; 0x63000000
    c5b4:	00000a73 	andeq	r0, r0, r3, ror sl
    c5b8:	00726964 	rsbseq	r6, r2, r4, ror #18
    c5bc:	656c6966 	strbvs	r6, [ip, #-2406]!	; 0x966
    c5c0:	00000000 	andeq	r0, r0, r0
    c5c4:	2a2a2a0a 	bcs	a96df4 <__bss_end__+0xa887c4>
    c5c8:	72615020 	rsbvc	r5, r1, #32
    c5cc:	20312074 	eorscs	r2, r1, r4, ror r0
    c5d0:	0a2a2a2a 	beq	a96e80 <__bss_end__+0xa88850>
    c5d4:	4c203e0a 	stcmi	14, cr3, [r0], #-40	; 0xffffffd8
    c5d8:	20747361 	rsbscs	r7, r4, r1, ror #6
    c5dc:	206f7774 	rsbcs	r7, pc, r4, ror r7	; <UNPREDICTABLE>
    c5e0:	65747962 	ldrbvs	r7, [r4, #-2402]!	; 0x962
    c5e4:	666f2073 			; <UNDEFINED> instruction: 0x666f2073
    c5e8:	6f6c6220 	svcvs	0x006c6220
    c5ec:	30206b63 	eorcc	r6, r0, r3, ror #22
    c5f0:	6f687320 	svcvs	0x00687320
    c5f4:	20646c75 	rsbcs	r6, r4, r5, ror ip
    c5f8:	35206562 	strcc	r6, [r0, #-1378]!	; 0x562
    c5fc:	3a616135 	bcc	1864ad8 <__bss_end__+0x18564a8>
    c600:	25782520 	ldrbcs	r2, [r8, #-1312]!	; 0x520
    c604:	00000a78 	andeq	r0, r0, r8, ror sl
    c608:	2a2a2a0a 	bcs	a96e38 <__bss_end__+0xa88808>
    c60c:	72615020 	rsbvc	r5, r1, #32
    c610:	20322074 	eorscs	r2, r2, r4, ror r0
    c614:	0a2a2a2a 	beq	a96ec4 <__bss_end__+0xa88894>
    c618:	0000000a 	andeq	r0, r0, sl
    c61c:	74726170 	ldrbtvc	r6, [r2], #-368	; 0x170
    c620:	6f697469 	svcvs	0x00697469
    c624:	0031206e 	eorseq	r2, r1, lr, rrx
    c628:	494e4150 	stmdbmi	lr, {r4, r6, r8, lr}^
    c62c:	73253a43 	teqvc	r5, #274432	; 0x43000
    c630:	3a73253a 	bcc	1cd5b20 <__bss_end__+0x1cc74f0>
    c634:	693a6425 	ldmdbvs	sl!, {r0, r2, r5, sl, sp, lr}
    c638:	61665f73 	smcvs	26099	; 0x65f3
    c63c:	28323374 	ldmdacs	r2!, {r2, r4, r5, r6, r8, r9, ip, sp}
    c640:	61702e70 	cmnvs	r0, r0, ror lr
    c644:	745f7472 	ldrbvc	r7, [pc], #-1138	; c64c <__FUNCTION__.4054+0x174>
    c648:	29657079 	stmdbcs	r5!, {r0, r3, r4, r5, r6, ip, sp, lr}^
    c64c:	0000000a 	andeq	r0, r0, sl
    c650:	494e4150 	stmdbmi	lr, {r4, r6, r8, lr}^
    c654:	73253a43 	teqvc	r5, #274432	; 0x43000
    c658:	3a73253a 	bcc	1cd5b48 <__bss_end__+0x1cc7518>
    c65c:	213a6425 	teqcs	sl, r5, lsr #8
    c660:	33746166 	cmncc	r4, #-2147483623	; 0x80000019
    c664:	61705f32 	cmnvs	r0, r2, lsr pc
    c668:	74697472 	strbtvc	r7, [r9], #-1138	; 0x472
    c66c:	5f6e6f69 	svcpl	0x006e6f69
    c670:	74706d65 	ldrbtvc	r6, [r0], #-3429	; 0xd65
    c674:	75282879 	strvc	r2, [r8, #-2169]!	; 0x879
    c678:	38746e69 	ldmdacc	r4!, {r0, r3, r5, r6, r9, sl, fp, sp, lr}^
    c67c:	292a745f 	stmdbcs	sl!, {r0, r1, r2, r3, r4, r6, sl, ip, sp, lr}
    c680:	2d72626d 	lfmcs	f6, 2, [r2, #-436]!	; 0xfffffe4c
    c684:	7261703e 	rsbvc	r7, r1, #62	; 0x3e
    c688:	61745f74 	cmnvs	r4, r4, ror pc
    c68c:	0a293162 	beq	a58c1c <__bss_end__+0xa4a5ec>
    c690:	00000000 	andeq	r0, r0, r0
    c694:	494e4150 	stmdbmi	lr, {r4, r6, r8, lr}^
    c698:	73253a43 	teqvc	r5, #274432	; 0x43000
    c69c:	3a73253a 	bcc	1cd5b8c <__bss_end__+0x1cc755c>
    c6a0:	663a6425 	ldrtvs	r6, [sl], -r5, lsr #8
    c6a4:	32337461 	eorscc	r7, r3, #1627389952	; 0x61000000
    c6a8:	7261705f 	rsbvc	r7, r1, #95	; 0x5f
    c6ac:	69746974 	ldmdbvs	r4!, {r2, r4, r5, r6, r8, fp, sp, lr}^
    c6b0:	655f6e6f 	ldrbvs	r6, [pc, #-3695]	; b849 <emit+0x14d>
    c6b4:	7974706d 	ldmdbvc	r4!, {r0, r2, r3, r5, r6, ip, sp, lr}^
    c6b8:	69752828 	ldmdbvs	r5!, {r3, r5, fp, sp}^
    c6bc:	5f38746e 	svcpl	0x0038746e
    c6c0:	6d292a74 	vstmdbvs	r9!, {s4-s119}
    c6c4:	3e2d7262 	cdpcc	2, 2, cr7, cr13, cr2, {3}
    c6c8:	74726170 	ldrbtvc	r6, [r2], #-368	; 0x170
    c6cc:	6261745f 	rsbvs	r7, r1, #1593835520	; 0x5f000000
    c6d0:	000a2932 	andeq	r2, sl, r2, lsr r9
    c6d4:	494e4150 	stmdbmi	lr, {r4, r6, r8, lr}^
    c6d8:	73253a43 	teqvc	r5, #274432	; 0x43000
    c6dc:	3a73253a 	bcc	1cd5bcc <__bss_end__+0x1cc759c>
    c6e0:	663a6425 	ldrtvs	r6, [sl], -r5, lsr #8
    c6e4:	32337461 	eorscc	r7, r3, #1627389952	; 0x61000000
    c6e8:	7261705f 	rsbvc	r7, r1, #95	; 0x5f
    c6ec:	69746974 	ldmdbvs	r4!, {r2, r4, r5, r6, r8, fp, sp, lr}^
    c6f0:	655f6e6f 	ldrbvs	r6, [pc, #-3695]	; b889 <emit+0x18d>
    c6f4:	7974706d 	ldmdbvc	r4!, {r0, r2, r3, r5, r6, ip, sp, lr}^
    c6f8:	69752828 	ldmdbvs	r5!, {r3, r5, fp, sp}^
    c6fc:	5f38746e 	svcpl	0x0038746e
    c700:	6d292a74 	vstmdbvs	r9!, {s4-s119}
    c704:	3e2d7262 	cdpcc	2, 2, cr7, cr13, cr2, {3}
    c708:	74726170 	ldrbtvc	r6, [r2], #-368	; 0x170
    c70c:	6261745f 	rsbvs	r7, r1, #1593835520	; 0x5f000000
    c710:	000a2933 	andeq	r2, sl, r3, lsr r9
    c714:	494e4150 	stmdbmi	lr, {r4, r6, r8, lr}^
    c718:	73253a43 	teqvc	r5, #274432	; 0x43000
    c71c:	3a73253a 	bcc	1cd5c0c <__bss_end__+0x1cc75dc>
    c720:	663a6425 	ldrtvs	r6, [sl], -r5, lsr #8
    c724:	32337461 	eorscc	r7, r3, #1627389952	; 0x61000000
    c728:	7261705f 	rsbvc	r7, r1, #95	; 0x5f
    c72c:	69746974 	ldmdbvs	r4!, {r2, r4, r5, r6, r8, fp, sp, lr}^
    c730:	655f6e6f 	ldrbvs	r6, [pc, #-3695]	; b8c9 <emit+0x1cd>
    c734:	7974706d 	ldmdbvc	r4!, {r0, r2, r3, r5, r6, ip, sp, lr}^
    c738:	69752828 	ldmdbvs	r5!, {r3, r5, fp, sp}^
    c73c:	5f38746e 	svcpl	0x0038746e
    c740:	6d292a74 	vstmdbvs	r9!, {s4-s119}
    c744:	3e2d7262 	cdpcc	2, 2, cr7, cr13, cr2, {3}
    c748:	74726170 	ldrbtvc	r6, [r2], #-368	; 0x170
    c74c:	6261745f 	rsbvs	r7, r1, #1593835520	; 0x5f000000
    c750:	000a2934 	andeq	r2, sl, r4, lsr r9
    c754:	2a2a2a0a 	bcs	a96f84 <__bss_end__+0xa88954>
    c758:	72615020 	rsbvc	r5, r1, #32
    c75c:	20332074 	eorscs	r2, r3, r4, ror r0
    c760:	0a2a2a2a 	beq	a97010 <__bss_end__+0xa889e0>
    c764:	0000000a 	andeq	r0, r0, sl
    c768:	746f6f62 	strbtvc	r6, [pc], #-3938	; c770 <__FUNCTION__.4054+0x298>
    c76c:	63657320 	cmnvs	r5, #32, 6	; 0x80000000
    c770:	00726f74 	rsbseq	r6, r2, r4, ror pc
    c774:	6f666e69 	svcvs	0x00666e69
    c778:	72747320 	rsbsvc	r7, r4, #32, 6	; 0x80000000
    c77c:	00746375 	rsbseq	r6, r4, r5, ror r3
    c780:	69676562 	stmdbvs	r7!, {r1, r5, r6, r8, sl, sp, lr}^
    c784:	626c206e 	rsbvs	r2, ip, #110	; 0x6e
    c788:	203d2061 	eorscs	r2, sp, r1, rrx
    c78c:	000a6425 	andeq	r6, sl, r5, lsr #8
    c790:	46203e0a 	strtmi	r3, [r0], -sl, lsl #28
    c794:	73696e69 	cmnvc	r9, #1680	; 0x690
    c798:	20646568 	rsbcs	r6, r4, r8, ror #10
    c79c:	696b616d 	stmdbvs	fp!, {r0, r2, r3, r5, r6, r8, sp, lr}^
    c7a0:	7420676e 	strtvc	r6, [r0], #-1902	; 0x76e
    c7a4:	66206568 	strtvs	r6, [r0], -r8, ror #10
    c7a8:	32337461 	eorscc	r7, r3, #1627389952	; 0x61000000
    c7ac:	72747320 	rsbsvc	r7, r4, #32, 6	; 0x80000000
    c7b0:	2e746375 	mrccs	3, 3, r6, cr4, cr5, {3}
    c7b4:	776f4e20 	strbvc	r4, [pc, -r0, lsr #28]!
    c7b8:	6d6f6320 	stclvs	3, cr6, [pc, #-128]!	; c740 <__FUNCTION__.4054+0x268>
    c7bc:	65726170 	ldrbvs	r6, [r2, #-368]!	; 0x170
    c7c0:	65687420 	strbvs	r7, [r8, #-1056]!	; 0x420
    c7c4:	63657320 	cmnvs	r5, #32, 6	; 0x80000000
    c7c8:	73726f74 	cmnvc	r2, #116, 30	; 0x1d0
    c7cc:	0a0a202e 	beq	29488c <__bss_end__+0x28625c>
    c7d0:	00000000 	andeq	r0, r0, r0
    c7d4:	494e4150 	stmdbmi	lr, {r4, r6, r8, lr}^
    c7d8:	73253a43 	teqvc	r5, #274432	; 0x43000
    c7dc:	3a73253a 	bcc	1cd5ccc <__bss_end__+0x1cc769c>
    c7e0:	6d3a6425 	cfldrsvs	mvf6, [sl, #-148]!	; 0xffffff6c
    c7e4:	6d636d65 	stclvs	13, cr6, [r3, #-404]!	; 0xfffffe6c
    c7e8:	61662870 	smcvs	25216	; 0x6280
    c7ec:	66202c74 			; <UNDEFINED> instruction: 0x66202c74
    c7f0:	2c327461 	cfldrscs	mvf7, [r2], #-388	; 0xfffffe7c
    c7f4:	625f6e20 	subsvs	r6, pc, #32, 28	; 0x200
    c7f8:	73657479 	cmnvc	r5, #2030043136	; 0x79000000
    c7fc:	3d3d2029 	ldccc	0, cr2, [sp, #-164]!	; 0xffffff5c
    c800:	000a3020 	andeq	r3, sl, r0, lsr #32
    c804:	2a2a2a0a 	bcs	a97034 <__bss_end__+0xa88a04>
    c808:	72615020 	rsbvc	r5, r1, #32
    c80c:	20342074 	eorscs	r2, r4, r4, ror r0
    c810:	0a2a2a2a 	beq	a970c0 <__bss_end__+0xa88a90>
    c814:	0000000a 	andeq	r0, r0, sl
    c818:	5b746166 	blpl	1d24db8 <__bss_end__+0x1d16788>
    c81c:	3d205d32 	stccc	13, cr5, [r0, #-200]!	; 0xffffff38
    c820:	2c782520 	cfldr64cs	mvdx2, [r8], #-128	; 0xffffff80
    c824:	70797420 	rsbsvc	r7, r9, r0, lsr #8
    c828:	73253d65 	teqvc	r5, #6464	; 0x1940
    c82c:	0000000a 	andeq	r0, r0, sl
    c830:	2e61626c 	cdpcs	2, 6, cr6, cr1, cr12, {3}
    c834:	72617473 	rsbvc	r7, r1, #1929379840	; 0x73000000
    c838:	64253d74 	strtvs	r3, [r5], #-3444	; 0xd74
    c83c:	0000000a 	andeq	r0, r0, sl
    c840:	73756c63 	cmnvc	r5, #25344	; 0x6300
    c844:	20726574 	rsbscs	r6, r2, r4, ror r5
    c848:	6f742032 	svcvs	0x00742032
    c84c:	61626c20 	cmnvs	r2, r0, lsr #24
    c850:	25203d20 	strcs	r3, [r0, #-3360]!	; 0xd20
    c854:	00000a64 	andeq	r0, r0, r4, ror #20
    c858:	646f6f72 	strbtvs	r6, [pc], #-3954	; c860 <__FUNCTION__.4054+0x388>
    c85c:	72696420 	rsbvc	r6, r9, #32, 8	; 0x20000000
    c860:	72696620 	rsbvc	r6, r9, #32, 12	; 0x2000000
    c864:	63207473 	teqvs	r0, #1929379840	; 0x73000000
    c868:	7473756c 	ldrbtvc	r7, [r3], #-1388	; 0x56c
    c86c:	3d207265 	sfmcc	f7, 4, [r0, #-404]!	; 0xfffffe6c
    c870:	0a642520 	beq	1915cf8 <__bss_end__+0x19076c8>
    c874:	00000000 	andeq	r0, r0, r0
    c878:	494e4150 	stmdbmi	lr, {r4, r6, r8, lr}^
    c87c:	73253a43 	teqvc	r5, #274432	; 0x43000
    c880:	3a73253a 	bcc	1cd5d70 <__bss_end__+0x1cc7740>
    c884:	743a6425 	ldrtvc	r6, [sl], #-1061	; 0x425
    c888:	20657079 	rsbcs	r7, r5, r9, ror r0
    c88c:	4c203d3d 	stcmi	13, cr3, [r0], #-244	; 0xffffff0c
    c890:	5f545341 	svcpl	0x00545341
    c894:	53554c43 	cmppl	r5, #17152	; 0x4300
    c898:	0a524554 	beq	149ddf0 <__bss_end__+0x148f7c0>
    c89c:	00000000 	andeq	r0, r0, r0
    c8a0:	20726964 	rsbscs	r6, r2, r4, ror #18
    c8a4:	69206425 	stmdbvs	r0!, {r0, r2, r5, sl, sp, lr}
    c8a8:	6f6e2073 	svcvs	0x006e2073
    c8ac:	72662074 	rsbvc	r2, r6, #116	; 0x74
    c8b0:	3a216565 	bcc	865e4c <__bss_end__+0x85781c>
    c8b4:	00000000 	andeq	r0, r0, r0
    c8b8:	09732509 	ldmdbeq	r3!, {r0, r3, r8, sl, sp}^
    c8bc:	093e2d09 	ldmdbeq	lr!, {r0, r3, r8, sl, fp, sp}
    c8c0:	73756c63 	cmnvc	r5, #25344	; 0x6300
    c8c4:	20726574 	rsbscs	r6, r2, r4, ror r5
    c8c8:	253d6469 	ldrcs	r6, [sp, #-1129]!	; 0x469
    c8cc:	74202c64 	strtvc	r2, [r0], #-3172	; 0xc64
    c8d0:	3d657079 	stclcc	0, cr7, [r5, #-484]!	; 0xfffffe1c
    c8d4:	202c7325 	eorcs	r7, ip, r5, lsr #6
    c8d8:	7479626e 	ldrbtvc	r6, [r9], #-622	; 0x26e
    c8dc:	253d7365 	ldrcs	r7, [sp, #-869]!	; 0x365
    c8e0:	00000a64 	andeq	r0, r0, r4, ror #20
    c8e4:	2a2a2a0a 	bcs	a97114 <__bss_end__+0xa88ae4>
    c8e8:	72615020 	rsbvc	r5, r1, #32
    c8ec:	20352074 	eorscs	r2, r5, r4, ror r0
    c8f0:	0a2a2a2a 	beq	a971a0 <__bss_end__+0xa88b70>
    c8f4:	0000000a 	andeq	r0, r0, sl
    c8f8:	666e6f63 	strbtvs	r6, [lr], -r3, ror #30
    c8fc:	742e6769 	strtvc	r6, [lr], #-1897	; 0x769
    c900:	00007478 	andeq	r7, r0, r8, ror r4
    c904:	494e4150 	stmdbmi	lr, {r4, r6, r8, lr}^
    c908:	73253a43 	teqvc	r5, #274432	; 0x43000
    c90c:	3a73253a 	bcc	1cd5dfc <__bss_end__+0x1cc77cc>
    c910:	653a6425 	ldrvs	r6, [sl, #-1061]!	; 0x425
    c914:	0000000a 	andeq	r0, r0, sl
    c918:	4e554f46 	cdpmi	15, 5, cr4, cr5, cr6, {2}
    c91c:	09203a44 	stmdbeq	r0!, {r2, r6, r9, fp, ip, sp}
    c920:	09097325 	stmdbeq	r9, {r0, r2, r5, r8, r9, ip, sp, lr}
    c924:	63093e2d 	movwvs	r3, #40493	; 0x9e2d
    c928:	7473756c 	ldrbtvc	r7, [r3], #-1388	; 0x56c
    c92c:	69207265 	stmdbvs	r0!, {r0, r2, r5, r6, r9, ip, sp, lr}
    c930:	78253d64 	stmdavc	r5!, {r2, r5, r6, r8, sl, fp, ip, sp}
    c934:	7974202c 	ldmdbvc	r4!, {r2, r3, r5, sp}^
    c938:	253d6570 	ldrcs	r6, [sp, #-1392]!	; 0x570
    c93c:	6e202c73 	mcrvs	12, 1, r2, cr0, cr3, {3}
    c940:	65747962 	ldrbvs	r7, [r4, #-2402]!	; 0x962
    c944:	64253d73 	strtvs	r3, [r5], #-3443	; 0xd73
    c948:	0000000a 	andeq	r0, r0, sl
    c94c:	666e6f63 	strbtvs	r6, [lr], -r3, ror #30
    c950:	742e6769 	strtvc	r6, [lr], #-1897	; 0x769
    c954:	0a3a7478 	beq	ea9b3c <__bss_end__+0xe9b50c>
    c958:	00000000 	andeq	r0, r0, r0
    c95c:	2d2d2d2d 	stccs	13, cr2, [sp, #-180]!	; 0xffffff4c
    c960:	2d2d2d2d 	stccs	13, cr2, [sp, #-180]!	; 0xffffff4c
    c964:	2d2d2d2d 	stccs	13, cr2, [sp, #-180]!	; 0xffffff4c
    c968:	2d2d2d2d 	stccs	13, cr2, [sp, #-180]!	; 0xffffff4c
    c96c:	2d2d2d2d 	stccs	13, cr2, [sp, #-180]!	; 0xffffff4c
    c970:	2d2d2d2d 	stccs	13, cr2, [sp, #-180]!	; 0xffffff4c
    c974:	2d2d2d2d 	stccs	13, cr2, [sp, #-180]!	; 0xffffff4c
    c978:	2d2d2d2d 	stccs	13, cr2, [sp, #-180]!	; 0xffffff4c
    c97c:	2d2d2d2d 	stccs	13, cr2, [sp, #-180]!	; 0xffffff4c
    c980:	2d2d2d2d 	stccs	13, cr2, [sp, #-180]!	; 0xffffff4c
    c984:	2d2d2d2d 	stccs	13, cr2, [sp, #-180]!	; 0xffffff4c
    c988:	2d2d2d2d 	stccs	13, cr2, [sp, #-180]!	; 0xffffff4c
    c98c:	2d2d2d2d 	stccs	13, cr2, [sp, #-180]!	; 0xffffff4c
    c990:	2d2d2d2d 	stccs	13, cr2, [sp, #-180]!	; 0xffffff4c
    c994:	00000a2d 	andeq	r0, r0, sp, lsr #20
    c998:	00006325 	andeq	r6, r0, r5, lsr #6
    c99c:	2a2a2a0a 	bcs	a971cc <__bss_end__+0xa88b9c>
    c9a0:	72615020 	rsbvc	r5, r1, #32
    c9a4:	20362074 	eorscs	r2, r6, r4, ror r0
    c9a8:	0a2a2a2a 	beq	a97258 <__bss_end__+0xa88c28>
    c9ac:	0000000a 	andeq	r0, r0, sl
    c9b0:	6c6c6568 	cfstr64vs	mvdx6, [ip], #-416	; 0xfffffe60
    c9b4:	69662d6f 	stmdbvs	r6!, {r0, r1, r2, r3, r5, r6, r8, sl, fp, sp}^
    c9b8:	2e646578 	mcrcs	5, 3, r6, cr4, cr8, {3}
    c9bc:	30317830 	eorscc	r7, r1, r0, lsr r8
    c9c0:	30303030 	eorscc	r3, r0, r0, lsr r0
    c9c4:	622e3066 	eorvs	r3, lr, #102	; 0x66
    c9c8:	00006e69 	andeq	r6, r0, r9, ror #28
    c9cc:	494e4150 	stmdbmi	lr, {r4, r6, r8, lr}^
    c9d0:	73253a43 	teqvc	r5, #274432	; 0x43000
    c9d4:	3a73253a 	bcc	1cd5ec4 <__bss_end__+0x1cc7894>
    c9d8:	653a6425 	ldrvs	r6, [sl, #-1061]!	; 0x425
    c9dc:	000a746e 	andeq	r7, sl, lr, ror #8
    c9e0:	6e65706f 	cdpvs	0, 6, cr7, cr5, cr15, {3}
    c9e4:	20676e69 	rsbcs	r6, r7, r9, ror #28
    c9e8:	656c6966 	strbvs	r6, [ip, #-2406]!	; 0x966
    c9ec:	0a2e2e2e 	beq	b982ac <__bss_end__+0xb89c7c>
    c9f0:	00000000 	andeq	r0, r0, r0

0000c9f4 <__FUNCTION__.4145>:
    c9f4:	38667475 	stmdacc	r6!, {r0, r2, r4, r5, r6, sl, ip, sp, lr}^
    c9f8:	7070615f 	rsbsvc	r6, r0, pc, asr r1
    c9fc:	00646e65 	rsbeq	r6, r4, r5, ror #28

0000ca00 <__FUNCTION__.3954>:
    ca00:	33746166 	cmncc	r4, #-2147483623	; 0x80000019
    ca04:	626d5f32 	rsbvs	r5, sp, #50, 30	; 0xc8
    ca08:	68635f72 	stmdavs	r3!, {r1, r4, r5, r6, r8, r9, sl, fp, ip, lr}^
    ca0c:	006b6365 	rsbeq	r6, fp, r5, ror #6

0000ca10 <__FUNCTION__.4000>:
    ca10:	33746166 	cmncc	r4, #-2147483623	; 0x80000019
    ca14:	61705f32 	cmnvs	r0, r2, lsr pc
    ca18:	735f7472 	cmpvc	pc, #1912602624	; 0x72000000
    ca1c:	00007274 	andeq	r7, r0, r4, ror r2

0000ca20 <__FUNCTION__.3959>:
    ca20:	33746166 	cmncc	r4, #-2147483623	; 0x80000019
    ca24:	61705f32 	cmnvs	r0, r2, lsr pc
    ca28:	74697472 	strbtvc	r7, [r9], #-1138	; 0x472
    ca2c:	5f6e6f69 	svcpl	0x006e6f69
    ca30:	6e697270 	mcrvs	2, 3, r7, cr9, cr0, {3}
    ca34:	00000074 	andeq	r0, r0, r4, ror r0

0000ca38 <__FUNCTION__.4014>:
    ca38:	33746166 	cmncc	r4, #-2147483623	; 0x80000019
    ca3c:	6f765f32 	svcvs	0x00765f32
    ca40:	656d756c 	strbvs	r7, [sp, #-1388]!	; 0x56c
    ca44:	5f64695f 	svcpl	0x0064695f
    ca48:	63656863 	cmnvs	r5, #6488064	; 0x630000
    ca4c:	0000006b 	andeq	r0, r0, fp, rrx

0000ca50 <__FUNCTION__.4078>:
    ca50:	33746166 	cmncc	r4, #-2147483623	; 0x80000019
    ca54:	73665f32 	cmnvc	r6, #50, 30	; 0xc8
    ca58:	6f666e69 	svcvs	0x00666e69
    ca5c:	6568635f 	strbvs	r6, [r8, #-863]!	; 0x35f
    ca60:	00006b63 	andeq	r6, r0, r3, ror #22

0000ca64 <__FUNCTION__.4088>:
    ca64:	33746166 	cmncc	r4, #-2147483623	; 0x80000019
    ca68:	61665f32 	cmnvs	r6, r2, lsr pc
    ca6c:	6e655f74 	mcrvs	15, 3, r5, cr5, cr4, {3}
    ca70:	5f797274 	svcpl	0x00797274
    ca74:	65707974 	ldrbvs	r7, [r0, #-2420]!	; 0x974
    ca78:	7274735f 	rsbsvc	r7, r4, #2080374785	; 0x7c000001
    ca7c:	00000000 	andeq	r0, r0, r0

0000ca80 <__FUNCTION__.4095>:
    ca80:	33746166 	cmncc	r4, #-2147483623	; 0x80000019
    ca84:	61665f32 	cmnvs	r6, r2, lsr pc
    ca88:	6e655f74 	mcrvs	15, 3, r5, cr5, cr4, {3}
    ca8c:	5f797274 	svcpl	0x00797274
    ca90:	65707974 	ldrbvs	r7, [r0, #-2420]!	; 0x974
    ca94:	00000000 	andeq	r0, r0, r0

0000ca98 <__FUNCTION__.4159>:
    ca98:	5f6e666c 	svcpl	0x006e666c
    ca9c:	5f746567 	svcpl	0x00746567
    caa0:	656d616e 	strbvs	r6, [sp, #-366]!	; 0x16e
    caa4:	00000000 	andeq	r0, r0, r0

0000caa8 <__FUNCTION__.4169>:
    caa8:	5f6e666c 	svcpl	0x006e666c
    caac:	6e697270 	mcrvs	2, 3, r7, cr9, cr0, {3}
    cab0:	00000074 	andeq	r0, r0, r4, ror r0

0000cab4 <__FUNCTION__.4208>:
    cab4:	33746166 	cmncc	r4, #-2147483623	; 0x80000019
    cab8:	69645f32 	stmdbvs	r4!, {r1, r4, r5, r8, r9, sl, fp, ip, lr}^
    cabc:	74615f72 	strbtvc	r5, [r1], #-3954	; 0xf72
    cac0:	735f7274 	cmpvc	pc, #116, 4	; 0x40000007
    cac4:	00007274 	andeq	r7, r0, r4, ror r2

0000cac8 <__FUNCTION__.4179>:
    cac8:	33746166 	cmncc	r4, #-2147483623	; 0x80000019
    cacc:	69645f32 	stmdbvs	r4!, {r1, r4, r5, r8, r9, sl, fp, ip, lr}^
    cad0:	69665f72 	stmdbvs	r6!, {r1, r4, r5, r6, r8, r9, sl, fp, ip, lr}^
    cad4:	616e656c 	cmnvs	lr, ip, ror #10
    cad8:	0000656d 	andeq	r6, r0, sp, ror #10

0000cadc <__FUNCTION__.4249>:
    cadc:	33746166 	cmncc	r4, #-2147483623	; 0x80000019
    cae0:	69645f32 	stmdbvs	r4!, {r1, r4, r5, r8, r9, sl, fp, ip, lr}^
    cae4:	72705f72 	rsbsvc	r5, r0, #456	; 0x1c8
    cae8:	00746e69 	rsbseq	r6, r4, r9, ror #28

0000caec <__FUNCTION__.4273>:
    caec:	706d7564 	rsbvc	r7, sp, r4, ror #10
    caf0:	6365735f 	cmnvs	r5, #2080374785	; 0x7c000001
    caf4:	00726f74 	rsbseq	r6, r2, r4, ror pc
    caf8:	494e4150 	stmdbmi	lr, {r4, r6, r8, lr}^
    cafc:	73253a43 	teqvc	r5, #274432	; 0x43000
    cb00:	3a73253a 	bcc	1cd5ff0 <__bss_end__+0x1cc79c0>
    cb04:	6e3a6425 	cdpvs	4, 3, cr6, cr10, cr5, {1}
    cb08:	65747962 	ldrbvs	r7, [r4, #-2402]!	; 0x962
    cb0c:	20322573 	eorscs	r2, r2, r3, ror r5
    cb10:	30203d3d 	eorcc	r3, r0, sp, lsr sp
    cb14:	0000000a 	andeq	r0, r0, sl
    cb18:	33746166 	cmncc	r4, #-2147483623	; 0x80000019
    cb1c:	65682d32 	strbvs	r2, [r8, #-3378]!	; 0xd32
    cb20:	7265706c 	rsbvc	r7, r5, #108	; 0x6c
    cb24:	00632e73 	rsbeq	r2, r3, r3, ror lr
    cb28:	494e4150 	stmdbmi	lr, {r4, r6, r8, lr}^
    cb2c:	73253a43 	teqvc	r5, #274432	; 0x43000
    cb30:	3a73253a 	bcc	1cd6020 <__bss_end__+0x1cc79f0>
    cb34:	6d3a6425 	cfldrsvs	mvf6, [sl, #-148]!	; 0xffffff6c
    cb38:	3e2d7262 	cdpcc	2, 2, cr7, cr13, cr2, {3}
    cb3c:	76676973 			; <UNDEFINED> instruction: 0x76676973
    cb40:	3d206c61 	stccc	12, cr6, [r0, #-388]!	; 0xfffffe7c
    cb44:	7830203d 	ldmdavc	r0!, {r0, r2, r3, r4, r5, sp}
    cb48:	35354141 	ldrcc	r4, [r5, #-321]!	; 0x141
    cb4c:	0000000a 	andeq	r0, r0, sl
    cb50:	74706d45 	ldrbtvc	r6, [r0], #-3397	; 0xd45
    cb54:	00000079 	andeq	r0, r0, r9, ror r0
    cb58:	31544146 	cmpcc	r4, r6, asr #2
    cb5c:	202d2032 	eorcs	r2, sp, r2, lsr r0
    cb60:	00534843 	subseq	r4, r3, r3, asr #16
    cb64:	31544146 	cmpcc	r4, r6, asr #2
    cb68:	202d2036 	eorcs	r2, sp, r6, lsr r0
    cb6c:	332d3631 	teqcc	sp, #51380224	; 0x3100000
    cb70:	424d2032 	submi	r2, sp, #50	; 0x32
    cb74:	43202d20 	teqmi	r0, #32, 26	; 0x800
    cb78:	00005348 	andeq	r5, r0, r8, asr #6
    cb7c:	7263694d 	rsbvc	r6, r3, #1261568	; 0x134000
    cb80:	666f736f 	strbtvs	r7, [pc], -pc, ror #6
    cb84:	78452074 	stmdavc	r5, {r2, r4, r5, r6, sp}^
    cb88:	646e6574 	strbtvs	r6, [lr], #-1396	; 0x574
    cb8c:	2d206465 	cfstrscs	mvf6, [r0, #-404]!	; 0xfffffe6c
    cb90:	53484320 	movtpl	r4, #33568	; 0x8320
    cb94:	00000000 	andeq	r0, r0, r0
    cb98:	31544146 	cmpcc	r4, r6, asr #2
    cb9c:	202d2036 	eorcs	r2, sp, r6, lsr r0
    cba0:	4d203233 	sfmmi	f3, 4, [r0, #-204]!	; 0xffffff34
    cba4:	20322d42 	eorscs	r2, r2, r2, asr #26
    cba8:	2d204247 	sfmcs	f4, 4, [r0, #-284]!	; 0xfffffee4
    cbac:	53484320 	movtpl	r4, #33568	; 0x8320
    cbb0:	00000000 	andeq	r0, r0, r0
    cbb4:	5346544e 	movtpl	r5, #25678	; 0x644e
    cbb8:	00000000 	andeq	r0, r0, r0
    cbbc:	33544146 	cmpcc	r4, #-2147483631	; 0x80000011
    cbc0:	202d2032 	eorcs	r2, sp, r2, lsr r0
    cbc4:	00534843 	subseq	r4, r3, r3, asr #16
    cbc8:	33544146 	cmpcc	r4, #-2147483631	; 0x80000011
    cbcc:	202d2032 	eorcs	r2, sp, r2, lsr r0
    cbd0:	0041424c 	subeq	r4, r1, ip, asr #4
    cbd4:	31544146 	cmpcc	r4, r6, asr #2
    cbd8:	202d2036 	eorcs	r2, sp, r6, lsr r0
    cbdc:	4d203233 	sfmmi	f3, 4, [r0, #-204]!	; 0xffffff34
    cbe0:	20322d42 	eorscs	r2, r2, r2, asr #26
    cbe4:	2d204247 	sfmcs	f4, 4, [r0, #-284]!	; 0xfffffee4
    cbe8:	41424c20 	cmpmi	r2, r0, lsr #24
    cbec:	00000000 	andeq	r0, r0, r0
    cbf0:	7263694d 	rsbvc	r6, r3, #1261568	; 0x134000
    cbf4:	666f736f 	strbtvs	r7, [pc], -pc, ror #6
    cbf8:	78452074 	stmdavc	r5, {r2, r4, r5, r6, sp}^
    cbfc:	646e6574 	strbtvs	r6, [lr], #-1396	; 0x574
    cc00:	2d206465 	cfstrscs	mvf6, [r0, #-404]!	; 0xfffffe6c
    cc04:	41424c20 	cmpmi	r2, r0, lsr #24
    cc08:	00000000 	andeq	r0, r0, r0
    cc0c:	64646948 	strbtvs	r6, [r4], #-2376	; 0x948
    cc10:	46206e65 	strtmi	r6, [r0], -r5, ror #28
    cc14:	32315441 	eorscc	r5, r1, #1090519040	; 0x41000000
    cc18:	43202d20 	teqmi	r0, #32, 26	; 0x800
    cc1c:	00005348 	andeq	r5, r0, r8, asr #6
    cc20:	64646948 	strbtvs	r6, [r4], #-2376	; 0x948
    cc24:	46206e65 	strtmi	r6, [r0], -r5, ror #28
    cc28:	36315441 	ldrtcc	r5, [r1], -r1, asr #8
    cc2c:	31202d20 	teqcc	r0, r0, lsr #26
    cc30:	32332d36 	eorscc	r2, r3, #3456	; 0xd80
    cc34:	20424d20 	subcs	r4, r2, r0, lsr #26
    cc38:	4843202d 	stmdami	r3, {r0, r2, r3, r5, sp}^
    cc3c:	00000053 	andeq	r0, r0, r3, asr r0
    cc40:	64646948 	strbtvs	r6, [r4], #-2376	; 0x948
    cc44:	46206e65 	strtmi	r6, [r0], -r5, ror #28
    cc48:	36315441 	ldrtcc	r5, [r1], -r1, asr #8
    cc4c:	33202d20 	teqcc	r0, #32, 26	; 0x800
    cc50:	424d2032 	submi	r2, sp, #50	; 0x32
    cc54:	4720322d 	strmi	r3, [r0, -sp, lsr #4]!
    cc58:	202d2042 	eorcs	r2, sp, r2, asr #32
    cc5c:	00534843 	subseq	r4, r3, r3, asr #16
    cc60:	64646948 	strbtvs	r6, [r4], #-2376	; 0x948
    cc64:	46206e65 	strtmi	r6, [r0], -r5, ror #28
    cc68:	32335441 	eorscc	r5, r3, #1090519040	; 0x41000000
    cc6c:	43202d20 	teqmi	r0, #32, 26	; 0x800
    cc70:	00005348 	andeq	r5, r0, r8, asr #6
    cc74:	64646948 	strbtvs	r6, [r4], #-2376	; 0x948
    cc78:	46206e65 	strtmi	r6, [r0], -r5, ror #28
    cc7c:	32335441 	eorscc	r5, r3, #1090519040	; 0x41000000
    cc80:	4c202d20 	stcmi	13, cr2, [r0], #-128	; 0xffffff80
    cc84:	00004142 	andeq	r4, r0, r2, asr #2
    cc88:	64646948 	strbtvs	r6, [r4], #-2376	; 0x948
    cc8c:	46206e65 	strtmi	r6, [r0], -r5, ror #28
    cc90:	36315441 	ldrtcc	r5, [r1], -r1, asr #8
    cc94:	33202d20 	teqcc	r0, #32, 26	; 0x800
    cc98:	424d2032 	submi	r2, sp, #50	; 0x32
    cc9c:	4720322d 	strmi	r3, [r0, -sp, lsr #4]!
    cca0:	202d2042 	eorcs	r2, sp, r2, asr #32
    cca4:	0041424c 	subeq	r4, r1, ip, asr #4
    cca8:	7263694d 	rsbvc	r6, r3, #1261568	; 0x134000
    ccac:	666f736f 	strbtvs	r7, [pc], -pc, ror #6
    ccb0:	424d2074 	submi	r2, sp, #116	; 0x74
    ccb4:	202d2052 	eorcs	r2, sp, r2, asr r0
    ccb8:	616e7944 	cmnvs	lr, r4, asr #18
    ccbc:	2063696d 	rsbcs	r6, r3, sp, ror #18
    ccc0:	6b736944 	blvs	1ce71d8 <__bss_end__+0x1cd8ba8>
    ccc4:	00000000 	andeq	r0, r0, r0
    ccc8:	616c6f53 	cmnvs	ip, r3, asr pc
    cccc:	20736972 	rsbscs	r6, r3, r2, ror r9
    ccd0:	20363878 	eorscs	r3, r6, r8, ror r8
    ccd4:	4c20726f 	sfmmi	f7, 4, [r0], #-444	; 0xfffffe44
    ccd8:	78756e69 	ldmdavc	r5!, {r0, r3, r5, r6, r9, sl, fp, sp, lr}^
    ccdc:	61777320 	cmnvs	r7, r0, lsr #6
    cce0:	00003f70 	andeq	r3, r0, r0, ror pc
    cce4:	756e694c 	strbvc	r6, [lr, #-2380]!	; 0x94c
    cce8:	00000078 	andeq	r0, r0, r8, ror r0
    ccec:	65626948 	strbvs	r6, [r2, #-2376]!	; 0x948
    ccf0:	74616e72 	strbtvc	r6, [r1], #-3698	; 0xe72
    ccf4:	006e6f69 	rsbeq	r6, lr, r9, ror #30
    ccf8:	756e694c 	strbvc	r6, [lr, #-2380]!	; 0x94c
    ccfc:	78452078 	stmdavc	r5, {r3, r4, r5, r6, sp}^
    cd00:	646e6574 	strbtvs	r6, [lr], #-1396	; 0x574
    cd04:	00006465 	andeq	r6, r0, r5, ror #8
    cd08:	5346544e 	movtpl	r5, #25678	; 0x644e
    cd0c:	6c6f5620 	stclvs	6, cr5, [pc], #-128	; cc94 <__FUNCTION__.4273+0x1a8>
    cd10:	20656d75 	rsbcs	r6, r5, r5, ror sp
    cd14:	00746553 	rsbseq	r6, r4, r3, asr r5
    cd18:	65657246 	strbvs	r7, [r5, #-582]!	; 0x246
    cd1c:	00445342 	subeq	r5, r4, r2, asr #6
    cd20:	6e65704f 	cdpvs	0, 6, cr7, cr5, cr15, {2}
    cd24:	00445342 	subeq	r5, r4, r2, asr #6
    cd28:	2063614d 	rsbcs	r6, r3, sp, asr #2
    cd2c:	0058534f 	subseq	r5, r8, pc, asr #6
    cd30:	4274654e 	rsbsmi	r6, r4, #327155712	; 0x13800000
    cd34:	00004453 	andeq	r4, r0, r3, asr r4
    cd38:	2063614d 	rsbcs	r6, r3, sp, asr #2
    cd3c:	2058534f 	subscs	r5, r8, pc, asr #6
    cd40:	746f6f42 	strbtvc	r6, [pc], #-3906	; cd48 <__FUNCTION__.4273+0x25c>
    cd44:	00000000 	andeq	r0, r0, r0
    cd48:	49445342 	stmdbmi	r4, {r1, r6, r8, r9, ip, lr}^
    cd4c:	00000000 	andeq	r0, r0, r0
    cd50:	49445342 	stmdbmi	r4, {r1, r6, r8, r9, ip, lr}^
    cd54:	61777320 	cmnvs	r7, r0, lsr #6
    cd58:	00000070 	andeq	r0, r0, r0, ror r0
    cd5c:	20494645 	subcs	r4, r9, r5, asr #12
    cd60:	20545047 	subscs	r5, r4, r7, asr #32
    cd64:	6b736944 	blvs	1ce727c <__bss_end__+0x1cd8c4c>
    cd68:	00000000 	andeq	r0, r0, r0
    cd6c:	20494645 	subcs	r4, r9, r5, asr #12
    cd70:	74737953 	ldrbtvc	r7, [r3], #-2387	; 0x953
    cd74:	50206d65 	eorpl	r6, r0, r5, ror #26
    cd78:	69747261 	ldmdbvs	r4!, {r0, r5, r6, r9, ip, sp, lr}^
    cd7c:	6e6f6974 	mcrvs	9, 3, r6, cr15, cr4, {3}
    cd80:	00000000 	andeq	r0, r0, r0
    cd84:	61776d56 	cmnvs	r7, r6, asr sp
    cd88:	46206572 			; <UNDEFINED> instruction: 0x46206572
    cd8c:	20656c69 	rsbcs	r6, r5, r9, ror #24
    cd90:	74737953 	ldrbtvc	r7, [r3], #-2387	; 0x953
    cd94:	00006d65 	andeq	r6, r0, r5, ror #26
    cd98:	61776d56 	cmnvs	r7, r6, asr sp
    cd9c:	73206572 	teqvc	r0, #478150656	; 0x1c800000
    cda0:	00706177 	rsbseq	r6, r0, r7, ror r1
    cda4:	494e4150 	stmdbmi	lr, {r4, r6, r8, lr}^
    cda8:	73253a43 	teqvc	r5, #274432	; 0x43000
    cdac:	3a73253a 	bcc	1cd629c <__bss_end__+0x1cc7c6c>
    cdb0:	753a6425 	ldrvc	r6, [sl, #-1061]!	; 0x425
    cdb4:	6f6e6b6e 	svcvs	0x006e6b6e
    cdb8:	74206e77 	strtvc	r6, [r0], #-3703	; 0xe77
    cdbc:	3a657079 	bcc	1968fa8 <__bss_end__+0x195a978>
    cdc0:	0a782520 	beq	1e16248 <__bss_end__+0x1e07c18>
    cdc4:	0000000a 	andeq	r0, r0, sl
    cdc8:	65757274 	ldrbvs	r7, [r5, #-628]!	; 0x274
    cdcc:	00000000 	andeq	r0, r0, r0
    cdd0:	736c6166 	cmnvc	ip, #-2147483623	; 0x80000019
    cdd4:	00000065 	andeq	r0, r0, r5, rrx
    cdd8:	0a3a7325 	beq	ea9a74 <__bss_end__+0xe9b444>
    cddc:	00000000 	andeq	r0, r0, r0
    cde0:	6f6f6209 	svcvs	0x006f6209
    cde4:	6c626174 	stfvse	f6, [r2], #-464	; 0xfffffe30
    cde8:	3d202065 	stccc	0, cr2, [r0, #-404]!	; 0xfffffe6c
    cdec:	0a732520 	beq	1cd6274 <__bss_end__+0x1cc7c44>
    cdf0:	00000000 	andeq	r0, r0, r0
    cdf4:	73686309 	cmnvc	r8, #603979776	; 0x24000000
    cdf8:	6174735f 	cmnvs	r4, pc, asr r3
    cdfc:	3d207472 	cfstrscc	mvf7, [r0, #-456]!	; 0xfffffe38
    ce00:	0a782520 	beq	1e16288 <__bss_end__+0x1e07c58>
    ce04:	00000000 	andeq	r0, r0, r0
    ce08:	72617009 	rsbvc	r7, r1, #9
    ce0c:	79742074 	ldmdbvc	r4!, {r2, r4, r5, r6, sp}^
    ce10:	3d206570 	cfstr32cc	mvfx6, [r0, #-448]!	; 0xfffffe40
    ce14:	20782520 	rsbscs	r2, r8, r0, lsr #10
    ce18:	29732528 	ldmdbcs	r3!, {r3, r5, r8, sl, sp}^
    ce1c:	0000000a 	andeq	r0, r0, sl
    ce20:	73686309 	cmnvc	r8, #603979776	; 0x24000000
    ce24:	646e655f 	strbtvs	r6, [lr], #-1375	; 0x55f
    ce28:	3d202020 	stccc	0, cr2, [r0, #-128]!	; 0xffffff80
    ce2c:	0a782520 	beq	1e162b4 <__bss_end__+0x1e07c84>
    ce30:	00000000 	andeq	r0, r0, r0
    ce34:	61626c09 	cmnvs	r2, r9, lsl #24
    ce38:	6174735f 	cmnvs	r4, pc, asr r3
    ce3c:	3d207472 	cfstrscc	mvf7, [r0, #-456]!	; 0xfffffe38
    ce40:	0a782520 	beq	1e162c8 <__bss_end__+0x1e07c98>
    ce44:	00000000 	andeq	r0, r0, r0
    ce48:	63656e09 	cmnvs	r5, #9, 28	; 0x90
    ce4c:	3d726f74 	ldclcc	15, cr6, [r2, #-464]!	; 0xfffffe30
    ce50:	3d202020 	stccc	0, cr2, [r0, #-128]!	; 0xffffff80
    ce54:	20642520 	rsbcs	r2, r4, r0, lsr #10
    ce58:	47642528 	strbmi	r2, [r4, -r8, lsr #10]!
    ce5c:	000a2942 	andeq	r2, sl, r2, asr #18
    ce60:	494e4150 	stmdbmi	lr, {r4, r6, r8, lr}^
    ce64:	73253a43 	teqvc	r5, #274432	; 0x43000
    ce68:	3a73253a 	bcc	1cd6358 <__bss_end__+0x1cc7d28>
    ce6c:	703a6425 	eorsvc	r6, sl, r5, lsr #8
    ce70:	61703e2d 	cmnvs	r0, sp, lsr #28
    ce74:	745f7472 	ldrbvc	r7, [pc], #-1138	; ce7c <__FUNCTION__.4273+0x390>
    ce78:	20657079 	rsbcs	r7, r5, r9, ror r0
    ce7c:	30203d3d 	eorcc	r3, r0, sp, lsr sp
    ce80:	7c206278 	sfmvc	f6, 4, [r0], #-480	; 0xfffffe20
    ce84:	2d70207c 	ldclcs	0, cr2, [r0, #-496]!	; 0xfffffe10
    ce88:	7261703e 	rsbvc	r7, r1, #62	; 0x3e
    ce8c:	79745f74 	ldmdbvc	r4!, {r2, r4, r5, r6, r8, r9, sl, fp, ip, lr}^
    ce90:	3d206570 	cfstr32cc	mvfx6, [r0, #-448]!	; 0xfffffe40
    ce94:	7830203d 	ldmdavc	r0!, {r0, r2, r3, r4, r5, sp}
    ce98:	00000a63 	andeq	r0, r0, r3, ror #20
    ce9c:	494e4150 	stmdbmi	lr, {r4, r6, r8, lr}^
    cea0:	73253a43 	teqvc	r5, #274432	; 0x43000
    cea4:	3a73253a 	bcc	1cd6394 <__bss_end__+0x1cc7d64>
    cea8:	623a6425 	eorsvs	r6, sl, #620756992	; 0x25000000
    ceac:	79623e2d 	stmdbvc	r2!, {r0, r2, r3, r5, r9, sl, fp, ip, sp}^
    ceb0:	5f736574 	svcpl	0x00736574
    ceb4:	5f726570 	svcpl	0x00726570
    ceb8:	20636573 	rsbcs	r6, r3, r3, ror r5
    cebc:	35203d3d 	strcc	r3, [r0, #-3389]!	; 0xd3d
    cec0:	000a3231 	andeq	r3, sl, r1, lsr r2
    cec4:	494e4150 	stmdbmi	lr, {r4, r6, r8, lr}^
    cec8:	73253a43 	teqvc	r5, #274432	; 0x43000
    cecc:	3a73253a 	bcc	1cd63bc <__bss_end__+0x1cc7d8c>
    ced0:	623a6425 	eorsvs	r6, sl, #620756992	; 0x25000000
    ced4:	666e3e2d 	strbtvs	r3, [lr], -sp, lsr #28
    ced8:	20737461 	rsbscs	r7, r3, r1, ror #8
    cedc:	32203d3d 	eorcc	r3, r0, #3904	; 0xf40
    cee0:	0000000a 	andeq	r0, r0, sl
    cee4:	494e4150 	stmdbmi	lr, {r4, r6, r8, lr}^
    cee8:	73253a43 	teqvc	r5, #274432	; 0x43000
    ceec:	3a73253a 	bcc	1cd63dc <__bss_end__+0x1cc7dac>
    cef0:	623a6425 	eorsvs	r6, sl, #620756992	; 0x25000000
    cef4:	69733e2d 	ldmdbvs	r3!, {r0, r2, r3, r5, r9, sl, fp, ip, sp}^
    cef8:	3d3d2067 	ldccc	0, cr2, [sp, #-412]!	; 0xfffffe64
    cefc:	41783020 	cmnmi	r8, r0, lsr #32
    cf00:	0a353541 	beq	d5a40c <__bss_end__+0xd4bddc>
    cf04:	00000000 	andeq	r0, r0, r0
    cf08:	494e4150 	stmdbmi	lr, {r4, r6, r8, lr}^
    cf0c:	73253a43 	teqvc	r5, #274432	; 0x43000
    cf10:	3a73253a 	bcc	1cd6400 <__bss_end__+0x1cc7dd0>
    cf14:	693a6425 	ldmdbvs	sl!, {r0, r2, r5, sl, sp, lr}
    cf18:	6f705f73 	svcvs	0x00705f73
    cf1c:	62283277 	eorvs	r3, r8, #1879048199	; 0x70000007
    cf20:	65733e2d 	ldrbvs	r3, [r3, #-3629]!	; 0xe2d
    cf24:	65705f63 	ldrbvs	r5, [r0, #-3939]!	; 0xf63
    cf28:	6c635f72 	stclvs	15, cr5, [r3], #-456	; 0xfffffe38
    cf2c:	65747375 	ldrbvs	r7, [r4, #-885]!	; 0x375
    cf30:	000a2972 	andeq	r2, sl, r2, ror r9
    cf34:	494e4150 	stmdbmi	lr, {r4, r6, r8, lr}^
    cf38:	73253a43 	teqvc	r5, #274432	; 0x43000
    cf3c:	3a73253a 	bcc	1cd642c <__bss_end__+0x1cc7dfc>
    cf40:	213a6425 	teqcs	sl, r5, lsr #8
    cf44:	6d3e2d62 	ldcvs	13, cr2, [lr, #-392]!	; 0xfffffe78
    cf48:	665f7861 	ldrbvs	r7, [pc], -r1, ror #16
    cf4c:	73656c69 	cmnvc	r5, #26880	; 0x6900
    cf50:	0000000a 	andeq	r0, r0, sl
    cf54:	494e4150 	stmdbmi	lr, {r4, r6, r8, lr}^
    cf58:	73253a43 	teqvc	r5, #274432	; 0x43000
    cf5c:	3a73253a 	bcc	1cd644c <__bss_end__+0x1cc7e1c>
    cf60:	623a6425 	eorsvs	r6, sl, #620756992	; 0x25000000
    cf64:	73663e2d 	cmnvc	r6, #720	; 0x2d0
    cf68:	65736e5f 	ldrbvs	r6, [r3, #-3679]!	; 0xe5f
    cf6c:	3d3d2063 	ldccc	0, cr2, [sp, #-396]!	; 0xfffffe74
    cf70:	000a3020 	andeq	r3, sl, r0, lsr #32
    cf74:	494e4150 	stmdbmi	lr, {r4, r6, r8, lr}^
    cf78:	73253a43 	teqvc	r5, #274432	; 0x43000
    cf7c:	3a73253a 	bcc	1cd646c <__bss_end__+0x1cc7e3c>
    cf80:	623a6425 	eorsvs	r6, sl, #620756992	; 0x25000000
    cf84:	657a3e2d 	ldrbvs	r3, [sl, #-3629]!	; 0xe2d
    cf88:	3d206f72 	stccc	15, cr6, [r0, #-456]!	; 0xfffffe38
    cf8c:	0a30203d 	beq	c15088 <__bss_end__+0xc06a58>
    cf90:	00000000 	andeq	r0, r0, r0
    cf94:	494e4150 	stmdbmi	lr, {r4, r6, r8, lr}^
    cf98:	73253a43 	teqvc	r5, #274432	; 0x43000
    cf9c:	3a73253a 	bcc	1cd648c <__bss_end__+0x1cc7e5c>
    cfa0:	623a6425 	eorsvs	r6, sl, #620756992	; 0x25000000
    cfa4:	736e3e2d 	cmnvc	lr, #720	; 0x2d0
    cfa8:	695f6365 	ldmdbvs	pc, {r0, r2, r5, r6, r8, r9, sp, lr}^	; <UNPREDICTABLE>
    cfac:	73665f6e 	cmnvc	r6, #440	; 0x1b8
    cfb0:	203d2120 	eorscs	r2, sp, r0, lsr #2
    cfb4:	00000a30 	andeq	r0, r0, r0, lsr sl
    cfb8:	494e4150 	stmdbmi	lr, {r4, r6, r8, lr}^
    cfbc:	73253a43 	teqvc	r5, #274432	; 0x43000
    cfc0:	3a73253a 	bcc	1cd64b0 <__bss_end__+0x1cc7e80>
    cfc4:	623a6425 	eorsvs	r6, sl, #620756992	; 0x25000000
    cfc8:	6e693e2d 	cdpvs	14, 6, cr3, cr9, cr13, {1}
    cfcc:	735f6f66 	cmpvc	pc, #408	; 0x198
    cfd0:	6e5f6365 	cdpvs	3, 5, cr6, cr15, cr5, {3}
    cfd4:	3d206d75 	stccc	13, cr6, [r0, #-468]!	; 0xfffffe2c
    cfd8:	0a31203d 	beq	c550d4 <__bss_end__+0xc46aa4>
    cfdc:	00000000 	andeq	r0, r0, r0
    cfe0:	494e4150 	stmdbmi	lr, {r4, r6, r8, lr}^
    cfe4:	73253a43 	teqvc	r5, #274432	; 0x43000
    cfe8:	3a73253a 	bcc	1cd64d8 <__bss_end__+0x1cc7ea8>
    cfec:	623a6425 	eorsvs	r6, sl, #620756992	; 0x25000000
    cff0:	61623e2d 	cmnvs	r2, sp, lsr #28
    cff4:	70756b63 	rsbsvc	r6, r5, r3, ror #22
    cff8:	6f6f625f 	svcvs	0x006f625f
    cffc:	6f6c5f74 	svcvs	0x006c5f74
    d000:	3d3d2063 	ldccc	0, cr2, [sp, #-396]!	; 0xfffffe74
    d004:	000a3620 	andeq	r3, sl, r0, lsr #12
    d008:	494e4150 	stmdbmi	lr, {r4, r6, r8, lr}^
    d00c:	73253a43 	teqvc	r5, #274432	; 0x43000
    d010:	3a73253a 	bcc	1cd6500 <__bss_end__+0x1cc7ed0>
    d014:	623a6425 	eorsvs	r6, sl, #620756992	; 0x25000000
    d018:	78653e2d 	stmdavc	r5!, {r0, r2, r3, r5, r9, sl, fp, ip, sp}^
    d01c:	646e6574 	strbtvs	r6, [lr], #-1396	; 0x574
    d020:	735f6465 	cmpvc	pc, #1694498816	; 0x65000000
    d024:	3d206769 	stccc	7, cr6, [r0, #-420]!	; 0xfffffe5c
    d028:	7830203d 	ldmdavc	r0!, {r0, r2, r3, r4, r5, sp}
    d02c:	000a3932 	andeq	r3, sl, r2, lsr r9
    d030:	6d656f09 	stclvs	15, cr6, [r5, #-36]!	; 0xffffffdc
    d034:	20202020 	eorcs	r2, r0, r0, lsr #32
    d038:	20202020 	eorcs	r2, r0, r0, lsr #32
    d03c:	20202020 	eorcs	r2, r0, r0, lsr #32
    d040:	3d202020 	stccc	0, cr2, [r0, #-128]!	; 0xffffff80
    d044:	73253c20 	teqvc	r5, #32, 24	; 0x2000
    d048:	00000a3e 	andeq	r0, r0, lr, lsr sl
    d04c:	74796209 	ldrbtvc	r6, [r9], #-521	; 0x209
    d050:	705f7365 	subsvc	r7, pc, r5, ror #6
    d054:	735f7265 	cmpvc	pc, #1342177286	; 0x50000006
    d058:	20206365 	eorcs	r6, r0, r5, ror #6
    d05c:	3d202020 	stccc	0, cr2, [r0, #-128]!	; 0xffffff80
    d060:	0a642520 	beq	19164e8 <__bss_end__+0x1907eb8>
    d064:	00000000 	andeq	r0, r0, r0
    d068:	63657309 	cmnvs	r5, #603979776	; 0x24000000
    d06c:	7265705f 	rsbvc	r7, r5, #95	; 0x5f
    d070:	756c635f 	strbvc	r6, [ip, #-863]!	; 0x35f
    d074:	72657473 	rsbvc	r7, r5, #1929379840	; 0x73000000
    d078:	3d202020 	stccc	0, cr2, [r0, #-128]!	; 0xffffff80
    d07c:	0a642520 	beq	1916504 <__bss_end__+0x1907ed4>
    d080:	00000000 	andeq	r0, r0, r0
    d084:	73657209 	cmnvc	r5, #-1879048192	; 0x90000000
    d088:	65767265 	ldrbvs	r7, [r6, #-613]!	; 0x265
    d08c:	69732064 	ldmdbvs	r3!, {r2, r5, r6, sp}^
    d090:	2020657a 	eorcs	r6, r0, sl, ror r5
    d094:	3d202020 	stccc	0, cr2, [r0, #-128]!	; 0xffffff80
    d098:	0a642520 	beq	1916520 <__bss_end__+0x1907ef0>
    d09c:	00000000 	andeq	r0, r0, r0
    d0a0:	61666e09 	cmnvs	r6, r9, lsl #28
    d0a4:	20207374 	eorcs	r7, r0, r4, ror r3
    d0a8:	20202020 	eorcs	r2, r0, r0, lsr #32
    d0ac:	20202020 	eorcs	r2, r0, r0, lsr #32
    d0b0:	3d202020 	stccc	0, cr2, [r0, #-128]!	; 0xffffff80
    d0b4:	0a642520 	beq	191653c <__bss_end__+0x1907f0c>
    d0b8:	00000000 	andeq	r0, r0, r0
    d0bc:	78616d09 	stmdavc	r1!, {r0, r3, r8, sl, fp, sp, lr}^
    d0c0:	6c69665f 	stclvs	6, cr6, [r9], #-380	; 0xfffffe84
    d0c4:	20207365 	eorcs	r7, r0, r5, ror #6
    d0c8:	20202020 	eorcs	r2, r0, r0, lsr #32
    d0cc:	3d202020 	stccc	0, cr2, [r0, #-128]!	; 0xffffff80
    d0d0:	0a642520 	beq	1916558 <__bss_end__+0x1907f28>
    d0d4:	00000000 	andeq	r0, r0, r0
    d0d8:	20736609 	rsbscs	r6, r3, r9, lsl #12
    d0dc:	6573206e 	ldrbvs	r2, [r3, #-110]!	; 0x6e
    d0e0:	726f7463 	rsbvc	r7, pc, #1660944384	; 0x63000000
    d0e4:	20202073 	eorcs	r2, r0, r3, ror r0
    d0e8:	3d202020 	stccc	0, cr2, [r0, #-128]!	; 0xffffff80
    d0ec:	0a642520 	beq	1916574 <__bss_end__+0x1907f44>
    d0f0:	00000000 	andeq	r0, r0, r0
    d0f4:	64656d09 	strbtvs	r6, [r5], #-3337	; 0xd09
    d0f8:	74206169 	strtvc	r6, [r0], #-361	; 0x169
    d0fc:	20657079 	rsbcs	r7, r5, r9, ror r0
    d100:	20202020 	eorcs	r2, r0, r0, lsr #32
    d104:	3d202020 	stccc	0, cr2, [r0, #-128]!	; 0xffffff80
    d108:	0a782520 	beq	1e16590 <__bss_end__+0x1e07f60>
    d10c:	00000000 	andeq	r0, r0, r0
    d110:	63657309 	cmnvs	r5, #603979776	; 0x24000000
    d114:	72657020 	rsbvc	r7, r5, #32
    d118:	61727420 	cmnvs	r2, r0, lsr #8
    d11c:	20206b63 	eorcs	r6, r0, r3, ror #22
    d120:	3d202020 	stccc	0, cr2, [r0, #-128]!	; 0xffffff80
    d124:	0a642520 	beq	19165ac <__bss_end__+0x1907f7c>
    d128:	00000000 	andeq	r0, r0, r0
    d12c:	68206e09 	stmdavs	r0!, {r0, r3, r9, sl, fp, sp, lr}
    d130:	73646165 	cmnvc	r4, #1073741849	; 0x40000019
    d134:	20202020 	eorcs	r2, r0, r0, lsr #32
    d138:	20202020 	eorcs	r2, r0, r0, lsr #32
    d13c:	3d202020 	stccc	0, cr2, [r0, #-128]!	; 0xffffff80
    d140:	0a642520 	beq	19165c8 <__bss_end__+0x1907f98>
    d144:	00000000 	andeq	r0, r0, r0
    d148:	68206e09 	stmdavs	r0!, {r0, r3, r9, sl, fp, sp, lr}
    d14c:	65646469 	strbvs	r6, [r4, #-1129]!	; 0x469
    d150:	6573206e 	ldrbvs	r2, [r3, #-110]!	; 0x6e
    d154:	20207363 	eorcs	r7, r0, r3, ror #6
    d158:	3d202020 	stccc	0, cr2, [r0, #-128]!	; 0xffffff80
    d15c:	0a642520 	beq	19165e4 <__bss_end__+0x1907fb4>
    d160:	00000000 	andeq	r0, r0, r0
    d164:	6e206e09 	cdpvs	14, 2, cr6, cr0, cr9, {0}
    d168:	20636573 	rsbcs	r6, r3, r3, ror r5
    d16c:	46206e69 	strtmi	r6, [r0], -r9, ror #28
    d170:	20202053 	eorcs	r2, r0, r3, asr r0
    d174:	3d202020 	stccc	0, cr2, [r0, #-128]!	; 0xffffff80
    d178:	0a642520 	beq	1916600 <__bss_end__+0x1907fd0>
    d17c:	00000000 	andeq	r0, r0, r0
    d180:	6e206e09 	cdpvs	14, 2, cr6, cr0, cr9, {0}
    d184:	20636573 	rsbcs	r6, r3, r3, ror r5
    d188:	20726570 	rsbscs	r6, r2, r0, ror r5
    d18c:	20746166 	rsbscs	r6, r4, r6, ror #2
    d190:	3d202020 	stccc	0, cr2, [r0, #-128]!	; 0xffffff80
    d194:	0a642520 	beq	191661c <__bss_end__+0x1907fec>
    d198:	00000000 	andeq	r0, r0, r0
    d19c:	6d206e09 	stcvs	14, cr6, [r0, #-36]!	; 0xffffffdc
    d1a0:	6f727269 	svcvs	0x00727269
    d1a4:	6c662072 	stclvs	0, cr2, [r6], #-456	; 0xfffffe38
    d1a8:	20736761 	rsbscs	r6, r3, r1, ror #14
    d1ac:	3d202020 	stccc	0, cr2, [r0, #-128]!	; 0xffffff80
    d1b0:	0a622520 	beq	1896638 <__bss_end__+0x1888008>
    d1b4:	00000000 	andeq	r0, r0, r0
    d1b8:	76206e09 	strtvc	r6, [r0], -r9, lsl #28
    d1bc:	69737265 	ldmdbvs	r3!, {r0, r2, r5, r6, r9, ip, sp, lr}^
    d1c0:	20206e6f 	eorcs	r6, r0, pc, ror #28
    d1c4:	20202020 	eorcs	r2, r0, r0, lsr #32
    d1c8:	3d202020 	stccc	0, cr2, [r0, #-128]!	; 0xffffff80
    d1cc:	0a642520 	beq	1916654 <__bss_end__+0x1908024>
    d1d0:	00000000 	andeq	r0, r0, r0
    d1d4:	66206e09 	strtvs	r6, [r0], -r9, lsl #28
    d1d8:	74737269 	ldrbtvc	r7, [r3], #-617	; 0x269
    d1dc:	756c635f 	strbvc	r6, [ip, #-863]!	; 0x35f
    d1e0:	72657473 	rsbvc	r7, r5, #1929379840	; 0x73000000
    d1e4:	3d202020 	stccc	0, cr2, [r0, #-128]!	; 0xffffff80
    d1e8:	0a642520 	beq	1916670 <__bss_end__+0x1908040>
    d1ec:	00000000 	andeq	r0, r0, r0
    d1f0:	69206e09 	stmdbvs	r0!, {r0, r3, r9, sl, fp, sp, lr}
    d1f4:	5f6f666e 	svcpl	0x006f666e
    d1f8:	5f636573 	svcpl	0x00636573
    d1fc:	206d756e 	rsbcs	r7, sp, lr, ror #10
    d200:	3d202020 	stccc	0, cr2, [r0, #-128]!	; 0xffffff80
    d204:	0a642520 	beq	191668c <__bss_end__+0x190805c>
    d208:	00000000 	andeq	r0, r0, r0
    d20c:	62206e09 	eorvs	r6, r0, #9, 28	; 0x90
    d210:	5f6b6361 	svcpl	0x006b6361
    d214:	746f6f62 	strbtvc	r6, [pc], #-3938	; d21c <__FUNCTION__.4273+0x730>
    d218:	636f6c5f 	cmnvs	pc, #24320	; 0x5f00
    d21c:	3d202020 	stccc	0, cr2, [r0, #-128]!	; 0xffffff80
    d220:	0a642520 	beq	19166a8 <__bss_end__+0x1908078>
    d224:	00000000 	andeq	r0, r0, r0
    d228:	6c206e09 	stcvs	14, cr6, [r0], #-36	; 0xffffffdc
    d22c:	6369676f 	cmnvs	r9, #29097984	; 0x1bc0000
    d230:	645f6c61 	ldrbvs	r6, [pc], #-3169	; d238 <__FUNCTION__.4273+0x74c>
    d234:	65766972 	ldrbvs	r6, [r6, #-2418]!	; 0x972
    d238:	6d756e5f 	ldclvs	14, cr6, [r5, #-380]!	; 0xfffffe84
    d23c:	6425203d 	strtvs	r2, [r5], #-61	; 0x3d
    d240:	0000000a 	andeq	r0, r0, sl
    d244:	65206e09 	strvs	r6, [r0, #-3593]!	; 0xe09
    d248:	6e657478 	mcrvs	4, 3, r7, cr5, cr8, {3}
    d24c:	20646564 	rsbcs	r6, r4, r4, ror #10
    d250:	20676973 	rsbcs	r6, r7, r3, ror r9
    d254:	3d202020 	stccc	0, cr2, [r0, #-128]!	; 0xffffff80
    d258:	0a782520 	beq	1e166e0 <__bss_end__+0x1e080b0>
    d25c:	00000000 	andeq	r0, r0, r0
    d260:	73206e09 	teqvc	r0, #9, 28	; 0x90
    d264:	61697265 	cmnvs	r9, r5, ror #4
    d268:	756e5f6c 	strbvc	r5, [lr, #-3948]!	; 0xf6c
    d26c:	2020206d 	eorcs	r2, r0, sp, rrx
    d270:	3d202020 	stccc	0, cr2, [r0, #-128]!	; 0xffffff80
    d274:	0a782520 	beq	1e166fc <__bss_end__+0x1e080cc>
    d278:	00000000 	andeq	r0, r0, r0
    d27c:	76206e09 	strtvc	r6, [r0], -r9, lsl #28
    d280:	6d756c6f 	ldclvs	12, cr6, [r5, #-444]!	; 0xfffffe44
    d284:	616c2065 	cmnvs	ip, r5, rrx
    d288:	206c6562 	rsbcs	r6, ip, r2, ror #10
    d28c:	3d202020 	stccc	0, cr2, [r0, #-128]!	; 0xffffff80
    d290:	73253c20 	teqvc	r5, #32, 24	; 0x2000
    d294:	00000a3e 	andeq	r0, r0, lr, lsr sl
    d298:	66206e09 	strtvs	r6, [r0], -r9, lsl #28
    d29c:	79745f73 	ldmdbvc	r4!, {r0, r1, r4, r5, r6, r8, r9, sl, fp, ip, lr}^
    d2a0:	20206570 	eorcs	r6, r0, r0, ror r5
    d2a4:	20202020 	eorcs	r2, r0, r0, lsr #32
    d2a8:	3d202020 	stccc	0, cr2, [r0, #-128]!	; 0xffffff80
    d2ac:	73253c20 	teqvc	r5, #32, 24	; 0x2000
    d2b0:	00000a3e 	andeq	r0, r0, lr, lsr sl
    d2b4:	73206e09 	teqvc	r0, #9, 28	; 0x90
    d2b8:	20206769 	eorcs	r6, r0, r9, ror #14
    d2bc:	20202020 	eorcs	r2, r0, r0, lsr #32
    d2c0:	20202020 	eorcs	r2, r0, r0, lsr #32
    d2c4:	3d202020 	stccc	0, cr2, [r0, #-128]!	; 0xffffff80
    d2c8:	0a782520 	beq	1e16750 <__bss_end__+0x1e08120>
    d2cc:	00000000 	andeq	r0, r0, r0
    d2d0:	67697309 	strbvs	r7, [r9, -r9, lsl #6]!
    d2d4:	20202031 	eorcs	r2, r0, r1, lsr r0
    d2d8:	20202020 	eorcs	r2, r0, r0, lsr #32
    d2dc:	20202020 	eorcs	r2, r0, r0, lsr #32
    d2e0:	3d202020 	stccc	0, cr2, [r0, #-128]!	; 0xffffff80
    d2e4:	0a782520 	beq	1e1676c <__bss_end__+0x1e0813c>
    d2e8:	00000000 	andeq	r0, r0, r0
    d2ec:	67697309 	strbvs	r7, [r9, -r9, lsl #6]!
    d2f0:	20202032 	eorcs	r2, r0, r2, lsr r0
    d2f4:	20202020 	eorcs	r2, r0, r0, lsr #32
    d2f8:	20202020 	eorcs	r2, r0, r0, lsr #32
    d2fc:	3d202020 	stccc	0, cr2, [r0, #-128]!	; 0xffffff80
    d300:	0a782520 	beq	1e16788 <__bss_end__+0x1e08158>
    d304:	00000000 	andeq	r0, r0, r0
    d308:	67697309 	strbvs	r7, [r9, -r9, lsl #6]!
    d30c:	20202033 	eorcs	r2, r0, r3, lsr r0
    d310:	20202020 	eorcs	r2, r0, r0, lsr #32
    d314:	20202020 	eorcs	r2, r0, r0, lsr #32
    d318:	3d202020 	stccc	0, cr2, [r0, #-128]!	; 0xffffff80
    d31c:	0a782520 	beq	1e167a4 <__bss_end__+0x1e08174>
    d320:	00000000 	andeq	r0, r0, r0
    d324:	65726609 	ldrbvs	r6, [r2, #-1545]!	; 0x609
    d328:	6c632065 	stclvs	0, cr2, [r3], #-404	; 0xfffffe6c
    d32c:	65747375 	ldrbvs	r7, [r4, #-885]!	; 0x375
    d330:	6e632072 	mcrvs	0, 3, r2, cr3, cr2, {3}
    d334:	3d202074 	stccc	0, cr2, [r0, #-464]!	; 0xfffffe30
    d338:	0a642520 	beq	19167c0 <__bss_end__+0x1908190>
    d33c:	00000000 	andeq	r0, r0, r0
    d340:	78656e09 	stmdavc	r5!, {r0, r3, r9, sl, fp, sp, lr}^
    d344:	72662074 	rsbvc	r2, r6, #116	; 0x74
    d348:	63206565 	teqvs	r0, #423624704	; 0x19400000
    d34c:	7473756c 	ldrbtvc	r7, [r3], #-1388	; 0x56c
    d350:	3d207265 	sfmcc	f7, 4, [r0, #-404]!	; 0xfffffe6c
    d354:	0a782520 	beq	1e167dc <__bss_end__+0x1e081ac>
    d358:	00000000 	andeq	r0, r0, r0
    d35c:	494e4150 	stmdbmi	lr, {r4, r6, r8, lr}^
    d360:	73253a43 	teqvc	r5, #274432	; 0x43000
    d364:	3a73253a 	bcc	1cd6854 <__bss_end__+0x1cc8224>
    d368:	693a6425 	ldmdbvs	sl!, {r0, r2, r5, sl, sp, lr}
    d36c:	2d6f666e 	stclcs	6, cr6, [pc, #-440]!	; d1bc <__FUNCTION__.4273+0x6d0>
    d370:	6769733e 			; <UNDEFINED> instruction: 0x6769733e
    d374:	3d3d2031 	ldccc	0, cr2, [sp, #-196]!	; 0xffffff3c
    d378:	34783020 	ldrbtcc	r3, [r8], #-32
    d37c:	35313631 	ldrcc	r3, [r1, #-1585]!	; 0x631
    d380:	0a323532 	beq	c9a850 <__bss_end__+0xc8c220>
    d384:	00000000 	andeq	r0, r0, r0
    d388:	494e4150 	stmdbmi	lr, {r4, r6, r8, lr}^
    d38c:	73253a43 	teqvc	r5, #274432	; 0x43000
    d390:	3a73253a 	bcc	1cd6880 <__bss_end__+0x1cc8250>
    d394:	693a6425 	ldmdbvs	sl!, {r0, r2, r5, sl, sp, lr}
    d398:	2d6f666e 	stclcs	6, cr6, [pc, #-440]!	; d1e8 <__FUNCTION__.4273+0x6fc>
    d39c:	6769733e 			; <UNDEFINED> instruction: 0x6769733e
    d3a0:	3d3d2032 	ldccc	0, cr2, [sp, #-200]!	; 0xffffff38
    d3a4:	36783020 	ldrbtcc	r3, [r8], -r0, lsr #32
    d3a8:	37313431 			; <UNDEFINED> instruction: 0x37313431
    d3ac:	0a323732 	beq	c9b07c <__bss_end__+0xc8ca4c>
    d3b0:	00000000 	andeq	r0, r0, r0
    d3b4:	494e4150 	stmdbmi	lr, {r4, r6, r8, lr}^
    d3b8:	73253a43 	teqvc	r5, #274432	; 0x43000
    d3bc:	3a73253a 	bcc	1cd68ac <__bss_end__+0x1cc827c>
    d3c0:	693a6425 	ldmdbvs	sl!, {r0, r2, r5, sl, sp, lr}
    d3c4:	2d6f666e 	stclcs	6, cr6, [pc, #-440]!	; d214 <__FUNCTION__.4273+0x728>
    d3c8:	6769733e 			; <UNDEFINED> instruction: 0x6769733e
    d3cc:	3d3d2033 	ldccc	0, cr2, [sp, #-204]!	; 0xffffff34
    d3d0:	61783020 	cmnvs	r8, r0, lsr #32
    d3d4:	30353561 	eorscc	r3, r5, r1, ror #10
    d3d8:	0a303030 	beq	c194a0 <__bss_end__+0xc0ae70>
    d3dc:	00000000 	andeq	r0, r0, r0
    d3e0:	45455246 	strbmi	r5, [r5, #-582]	; 0x246
    d3e4:	554c435f 	strbpl	r4, [ip, #-863]	; 0x35f
    d3e8:	52455453 	subpl	r5, r5, #1392508928	; 0x53000000
    d3ec:	00000000 	andeq	r0, r0, r0
    d3f0:	45534552 	ldrbmi	r4, [r3, #-1362]	; 0x552
    d3f4:	44455652 	strbmi	r5, [r5], #-1618	; 0x652
    d3f8:	554c435f 	strbpl	r4, [ip, #-863]	; 0x35f
    d3fc:	52455453 	subpl	r5, r5, #1392508928	; 0x53000000
    d400:	00000000 	andeq	r0, r0, r0
    d404:	5f444142 	svcpl	0x00444142
    d408:	53554c43 	cmppl	r5, #17152	; 0x4300
    d40c:	00524554 	subseq	r4, r2, r4, asr r5
    d410:	5453414c 	ldrbpl	r4, [r3], #-332	; 0x14c
    d414:	554c435f 	strbpl	r4, [ip, #-863]	; 0x35f
    d418:	52455453 	subpl	r5, r5, #1392508928	; 0x53000000
    d41c:	00000000 	andeq	r0, r0, r0
    d420:	44455355 	strbmi	r5, [r5], #-853	; 0x355
    d424:	554c435f 	strbpl	r4, [ip, #-863]	; 0x35f
    d428:	52455453 	subpl	r5, r5, #1392508928	; 0x53000000
    d42c:	00000000 	andeq	r0, r0, r0
    d430:	494e4150 	stmdbmi	lr, {r4, r6, r8, lr}^
    d434:	73253a43 	teqvc	r5, #274432	; 0x43000
    d438:	3a73253a 	bcc	1cd6928 <__bss_end__+0x1cc82f8>
    d43c:	623a6425 	eorsvs	r6, sl, #620756992	; 0x25000000
    d440:	76206461 	strtvc	r6, [r0], -r1, ror #8
    d444:	65756c61 	ldrbvs	r6, [r5, #-3169]!	; 0xc61
    d448:	7825203a 	stmdavc	r5!, {r1, r3, r4, r5, sp}
    d44c:	00000a0a 	andeq	r0, r0, sl, lsl #20
    d450:	494e4150 	stmdbmi	lr, {r4, r6, r8, lr}^
    d454:	73253a43 	teqvc	r5, #274432	; 0x43000
    d458:	3a73253a 	bcc	1cd6948 <__bss_end__+0x1cc8318>
    d45c:	723a6425 	eorsvc	r6, sl, #620756992	; 0x25000000
    d460:	72657365 	rsbvc	r7, r5, #-1811939327	; 0x94000001
    d464:	20646576 	rsbcs	r6, r4, r6, ror r5
    d468:	756c6176 	strbvc	r6, [ip, #-374]!	; 0x176
    d46c:	25203a65 	strcs	r3, [r0, #-2661]!	; 0xa65
    d470:	000a0a78 	andeq	r0, sl, r8, ror sl
    d474:	494e4150 	stmdbmi	lr, {r4, r6, r8, lr}^
    d478:	73253a43 	teqvc	r5, #274432	; 0x43000
    d47c:	3a73253a 	bcc	1cd696c <__bss_end__+0x1cc833c>
    d480:	693a6425 	ldmdbvs	sl!, {r0, r2, r5, sl, sp, lr}
    d484:	736f706d 	cmnvc	pc, #109	; 0x6d
    d488:	6c626973 	stclvs	9, cr6, [r2], #-460	; 0xfffffe34
    d48c:	79742065 	ldmdbvc	r4!, {r0, r2, r5, r6, sp}^
    d490:	76206570 			; <UNDEFINED> instruction: 0x76206570
    d494:	65756c61 	ldrbvs	r6, [r5, #-3169]!	; 0xc61
    d498:	7825203a 	stmdavc	r5!, {r1, r3, r4, r5, sp}
    d49c:	00000a0a 	andeq	r0, r0, sl, lsl #20
    d4a0:	71657309 	cmnvc	r5, r9, lsl #6
    d4a4:	3d206f6e 	stccc	15, cr6, [r0, #-440]!	; 0xfffffe48
    d4a8:	2c782520 	cfldr64cs	mvdx2, [r8], #-128	; 0xffffff80
    d4ac:	72696620 	rsbvc	r6, r9, #32, 12	; 0x2000000
    d4b0:	253d7473 	ldrcs	r7, [sp, #-1139]!	; 0x473
    d4b4:	6c202c64 	stcvs	12, cr2, [r0], #-400	; 0xfffffe70
    d4b8:	3d747361 	ldclcc	3, cr7, [r4, #-388]!	; 0xfffffe7c
    d4bc:	202c6425 	eorcs	r6, ip, r5, lsr #8
    d4c0:	656c6564 	strbvs	r6, [ip, #-1380]!	; 0x564
    d4c4:	3d646574 	cfstr64cc	mvdx6, [r4, #-464]!	; 0xfffffe30
    d4c8:	000a6425 	andeq	r6, sl, r5, lsr #8
    d4cc:	5b6e666c 	blpl	1ba6e84 <__bss_end__+0x1b98854>
    d4d0:	205d6425 	subscs	r6, sp, r5, lsr #8
    d4d4:	2527203d 	strcs	r2, [r7, #-61]!	; 0x3d
    d4d8:	3d202763 	stccc	7, cr2, [r0, #-396]!	; 0xfffffe74
    d4dc:	0a782520 	beq	1e16964 <__bss_end__+0x1e08334>
    d4e0:	00000000 	andeq	r0, r0, r0
    d4e4:	736b6309 	cmnvc	fp, #603979776	; 0x24000000
    d4e8:	253d6d75 	ldrcs	r6, [sp, #-3445]!	; 0xd75
    d4ec:	65282078 	strvs	r2, [r8, #-120]!	; 0x78
    d4f0:	63657078 	cmnvs	r5, #120	; 0x78
    d4f4:	3d646574 	cfstr64cc	mvdx6, [r4, #-464]!	; 0xfffffe30
    d4f8:	0a297825 	beq	a6b594 <__bss_end__+0xa5cf64>
    d4fc:	00000000 	andeq	r0, r0, r0
    d500:	494e4150 	stmdbmi	lr, {r4, r6, r8, lr}^
    d504:	73253a43 	teqvc	r5, #274432	; 0x43000
    d508:	3a73253a 	bcc	1cd69f8 <__bss_end__+0x1cc83c8>
    d50c:	6c3a6425 	cfldrsvs	mvf6, [sl], #-148	; 0xffffff6c
    d510:	74613e2d 	strbtvc	r3, [r1], #-3629	; 0xe2d
    d514:	3d207274 	sfmcc	f7, 4, [r0, #-464]!	; 0xfffffe30
    d518:	4146203d 	cmpmi	r6, sp, lsr r0
    d51c:	5f323354 	svcpl	0x00323354
    d520:	474e4f4c 	strbmi	r4, [lr, -ip, asr #30]
    d524:	4c49465f 	mcrrmi	6, 5, r4, r9, cr15
    d528:	414e5f45 	cmpmi	lr, r5, asr #30
    d52c:	000a454d 	andeq	r4, sl, sp, asr #10
    d530:	494e4150 	stmdbmi	lr, {r4, r6, r8, lr}^
    d534:	73253a43 	teqvc	r5, #274432	; 0x43000
    d538:	3a73253a 	bcc	1cd6a28 <__bss_end__+0x1cc83f8>
    d53c:	633a6425 	teqvs	sl, #620756992	; 0x25000000
    d540:	3e20746e 	cdpcc	4, 2, cr7, cr0, cr14, {3}
    d544:	0a31203d 	beq	c55640 <__bss_end__+0xc47010>
    d548:	00000000 	andeq	r0, r0, r0
    d54c:	4f525245 	svcmi	0x00525245
    d550:	73253a52 	teqvc	r5, #335872	; 0x52000
    d554:	3a73253a 	bcc	1cd6a44 <__bss_end__+0x1cc8414>
    d558:	203a6425 	eorscs	r6, sl, r5, lsr #8
    d55c:	534c4146 	movtpl	r4, #49478	; 0xc146
    d560:	633c2845 	teqvs	ip, #4521984	; 0x450000
    d564:	3e20746e 	cdpcc	4, 2, cr7, cr0, cr14, {3}
    d568:	26203020 	strtcs	r3, [r0], -r0, lsr #32
    d56c:	6e632026 	cdpvs	0, 6, cr2, cr3, cr6, {1}
    d570:	203c2074 	eorscs	r2, ip, r4, ror r0
    d574:	3a293e33 	bcc	a5ce48 <__bss_end__+0xa4e818>
    d578:	69657720 	stmdbvs	r5!, {r5, r8, r9, sl, ip, sp, lr}^
    d57c:	66206472 			; <UNDEFINED> instruction: 0x66206472
    d580:	6320726f 	teqvs	r0, #-268435450	; 0xf0000006
    d584:	30343173 	eorscc	r3, r4, r3, ror r1
    d588:	66692065 	strbtvs	r2, [r9], -r5, rrx
    d58c:	72616c20 	rsbvc	r6, r1, #32, 24	; 0x2000
    d590:	21726567 	cmncs	r2, r7, ror #10
    d594:	0000000a 	andeq	r0, r0, sl
    d598:	494e4150 	stmdbmi	lr, {r4, r6, r8, lr}^
    d59c:	73253a43 	teqvc	r5, #274432	; 0x43000
    d5a0:	3a73253a 	bcc	1cd6a90 <__bss_end__+0x1cc8460>
    d5a4:	213a6425 	teqcs	sl, r5, lsr #8
    d5a8:	5f6e666c 	svcpl	0x006e666c
    d5ac:	645f7369 	ldrbvs	r7, [pc], #-873	; d5b4 <__FUNCTION__.4273+0xac8>
    d5b0:	74656c65 	strbtvc	r6, [r5], #-3173	; 0xc65
    d5b4:	28286465 	stmdacs	r8!, {r0, r2, r5, r6, sl, sp, lr}
    d5b8:	29692b73 	stmdbcs	r9!, {r0, r1, r4, r5, r6, r8, r9, fp, sp}^
    d5bc:	65733e2d 	ldrbvs	r3, [r3, #-3629]!	; 0xe2d
    d5c0:	296f6e71 	stmdbcs	pc!, {r0, r4, r5, r6, r9, sl, fp, sp, lr}^	; <UNPREDICTABLE>
    d5c4:	0000000a 	andeq	r0, r0, sl
    d5c8:	5b6e666c 	blpl	1ba6f80 <__bss_end__+0x1b98950>
    d5cc:	3d5d6425 	cfldrdcc	mvd6, [sp, #-148]	; 0xffffff6c
    d5d0:	0000000a 	andeq	r0, r0, sl
    d5d4:	494e4150 	stmdbmi	lr, {r4, r6, r8, lr}^
    d5d8:	73253a43 	teqvc	r5, #274432	; 0x43000
    d5dc:	3a73253a 	bcc	1cd6acc <__bss_end__+0x1cc849c>
    d5e0:	733a6425 	teqvc	sl, #620756992	; 0x25000000
    d5e4:	2e5d695b 	mrccs	9, 2, r6, cr13, cr11, {2}
    d5e8:	75736b63 	ldrbvc	r6, [r3, #-2915]!	; 0xb63
    d5ec:	3d3d206d 	ldccc	0, cr2, [sp, #-436]!	; 0xfffffe4c
    d5f0:	736b6320 	cmnvc	fp, #32, 6	; 0x80000000
    d5f4:	000a6d75 	andeq	r6, sl, r5, ror sp
    d5f8:	494e4150 	stmdbmi	lr, {r4, r6, r8, lr}^
    d5fc:	73253a43 	teqvc	r5, #274432	; 0x43000
    d600:	3a73253a 	bcc	1cd6af0 <__bss_end__+0x1cc84c0>
    d604:	6c3a6425 	cfldrsvs	mvf6, [sl], #-148	; 0xffffff6c
    d608:	695f6e66 	ldmdbvs	pc, {r1, r2, r5, r6, r9, sl, fp, sp, lr}^	; <UNPREDICTABLE>
    d60c:	616c5f73 	smcvs	50675	; 0xc5f3
    d610:	73287473 	teqvc	r8, #1929379840	; 0x73000000
    d614:	65733e2d 	ldrbvs	r3, [r3, #-3629]!	; 0xe2d
    d618:	296f6e71 	stmdbcs	pc!, {r0, r4, r5, r6, r9, sl, fp, sp, lr}^	; <UNPREDICTABLE>
    d61c:	0000000a 	andeq	r0, r0, sl
    d620:	494e4150 	stmdbmi	lr, {r4, r6, r8, lr}^
    d624:	73253a43 	teqvc	r5, #274432	; 0x43000
    d628:	3a73253a 	bcc	1cd6b18 <__bss_end__+0x1cc84e8>
    d62c:	6c3a6425 	cfldrsvs	mvf6, [sl], #-148	; 0xffffff6c
    d630:	695f6e66 	ldmdbvs	pc, {r1, r2, r5, r6, r9, sl, fp, sp, lr}^	; <UNPREDICTABLE>
    d634:	69665f73 	stmdbvs	r6!, {r0, r1, r4, r5, r6, r8, r9, sl, fp, ip, lr}^
    d638:	28747372 	ldmdacs	r4!, {r1, r4, r5, r6, r8, r9, ip, sp, lr}^
    d63c:	632b7328 	teqvs	fp, #40, 6	; 0xa0000000
    d640:	312d746e 	teqcc	sp, lr, ror #8
    d644:	733e2d29 	teqvc	lr, #2624	; 0xa40
    d648:	6f6e7165 	svcvs	0x006e7165
    d64c:	00000a29 	andeq	r0, r0, r9, lsr #20
    d650:	4e4f4c20 	cdpmi	12, 4, cr4, cr15, cr0, {1}
    d654:	49462047 	stmdbmi	r6, {r0, r1, r2, r6, sp}^
    d658:	4e20454c 	cfsh64mi	mvdx4, mvdx0, #44
    d65c:	00454d41 	subeq	r4, r5, r1, asr #26
    d660:	004f2f52 	subeq	r2, pc, r2, asr pc	; <UNPREDICTABLE>
    d664:	44494820 	strbmi	r4, [r9], #-2080	; 0x820
    d668:	004e4544 	subeq	r4, lr, r4, asr #10
    d66c:	53595320 	cmppl	r9, #32, 6	; 0x80000000
    d670:	204d4554 	subcs	r4, sp, r4, asr r5
    d674:	454c4946 	strbmi	r4, [ip, #-2374]	; 0x946
    d678:	00000000 	andeq	r0, r0, r0
    d67c:	4c4f5620 	mcrrmi	6, 2, r5, pc, cr0
    d680:	20454d55 	subcs	r4, r5, r5, asr sp
    d684:	4542414c 	strbmi	r4, [r2, #-332]	; 0x14c
    d688:	0000004c 	andeq	r0, r0, ip, asr #32
    d68c:	52494420 	subpl	r4, r9, #32, 8	; 0x20000000
    d690:	00000000 	andeq	r0, r0, r0
    d694:	43524120 	cmpmi	r2, #32, 2
    d698:	45564948 	ldrbmi	r4, [r6, #-2376]	; 0x948
    d69c:	00000000 	andeq	r0, r0, r0
    d6a0:	494e4150 	stmdbmi	lr, {r4, r6, r8, lr}^
    d6a4:	73253a43 	teqvc	r5, #274432	; 0x43000
    d6a8:	3a73253a 	bcc	1cd6b98 <__bss_end__+0x1cc8568>
    d6ac:	753a6425 	ldrvc	r6, [sl, #-1061]!	; 0x425
    d6b0:	6e61686e 	cdpvs	8, 6, cr6, cr1, cr14, {3}
    d6b4:	64656c64 	strbtvs	r6, [r5], #-3172	; 0xc64
    d6b8:	74746120 	ldrbtvc	r6, [r4], #-288	; 0x120
    d6bc:	78253d72 	stmdavc	r5!, {r1, r4, r5, r6, r8, sl, fp, ip, sp}
    d6c0:	00000a0a 	andeq	r0, r0, sl, lsl #20
    d6c4:	494e4150 	stmdbmi	lr, {r4, r6, r8, lr}^
    d6c8:	73253a43 	teqvc	r5, #274432	; 0x43000
    d6cc:	3a73253a 	bcc	1cd6bbc <__bss_end__+0x1cc858c>
    d6d0:	213a6425 	teqcs	sl, r5, lsr #8
    d6d4:	33746166 	cmncc	r4, #-2147483623	; 0x80000019
    d6d8:	69645f32 	stmdbvs	r4!, {r1, r4, r5, r8, r9, sl, fp, ip, lr}^
    d6dc:	746e6572 	strbtvc	r6, [lr], #-1394	; 0x572
    d6e0:	6572665f 	ldrbvs	r6, [r2, #-1631]!	; 0x65f
    d6e4:	29642865 	stmdbcs	r4!, {r0, r2, r5, r6, fp, sp}^
    d6e8:	0000000a 	andeq	r0, r0, sl
    d6ec:	494e4150 	stmdbmi	lr, {r4, r6, r8, lr}^
    d6f0:	73253a43 	teqvc	r5, #274432	; 0x43000
    d6f4:	3a73253a 	bcc	1cd6be4 <__bss_end__+0x1cc85b4>
    d6f8:	693a6425 	ldmdbvs	sl!, {r0, r2, r5, sl, sp, lr}
    d6fc:	74615f73 	strbtvc	r5, [r1], #-3955	; 0xf73
    d700:	64287274 	strtvs	r7, [r8], #-628	; 0x274
    d704:	746e635b 	strbtvc	r6, [lr], #-859	; 0x35b
    d708:	74612e5d 	strbtvc	r2, [r1], #-3677	; 0xe5d
    d70c:	202c7274 	eorcs	r7, ip, r4, ror r2
    d710:	33544146 	cmpcc	r4, #-2147483631	; 0x80000011
    d714:	49445f32 	stmdbmi	r4, {r1, r4, r5, r8, r9, sl, fp, ip, lr}^
    d718:	7c202952 	stcvc	9, cr2, [r0], #-328	; 0xfffffeb8
    d71c:	7369207c 	cmnvc	r9, #124	; 0x7c
    d720:	7474615f 	ldrbtvc	r6, [r4], #-351	; 0x15f
    d724:	5b642872 	blpl	19178f4 <__bss_end__+0x19092c4>
    d728:	5d746e63 	ldclpl	14, cr6, [r4, #-396]!	; 0xfffffe74
    d72c:	7474612e 	ldrbtvc	r6, [r4], #-302	; 0x12e
    d730:	46202c72 			; <UNDEFINED> instruction: 0x46202c72
    d734:	32335441 	eorscc	r5, r3, #1090519040	; 0x41000000
    d738:	4352415f 	cmpmi	r2, #-1073741801	; 0xc0000017
    d73c:	45564948 	ldrbmi	r4, [r6, #-2376]	; 0x948
    d740:	00000a29 	andeq	r0, r0, r9, lsr #20
    d744:	494e4150 	stmdbmi	lr, {r4, r6, r8, lr}^
    d748:	73253a43 	teqvc	r5, #274432	; 0x43000
    d74c:	3a73253a 	bcc	1cd6c3c <__bss_end__+0x1cc860c>
    d750:	693a6425 	ldmdbvs	sl!, {r0, r2, r5, sl, sp, lr}
    d754:	74615f73 	strbtvc	r5, [r1], #-3955	; 0xf73
    d758:	78287274 	stmdavc	r8!, {r2, r4, r5, r6, r9, ip, sp, lr}
    d75c:	4146202c 	cmpmi	r6, ip, lsr #32
    d760:	5f323354 	svcpl	0x00323354
    d764:	29524944 	ldmdbcs	r2, {r2, r6, r8, fp, lr}^
    d768:	207c7c20 	rsbscs	r7, ip, r0, lsr #24
    d76c:	615f7369 	cmpvs	pc, r9, ror #6
    d770:	28727474 	ldmdacs	r2!, {r2, r4, r5, r6, sl, ip, sp, lr}^
    d774:	46202c78 			; <UNDEFINED> instruction: 0x46202c78
    d778:	32335441 	eorscc	r5, r3, #1090519040	; 0x41000000
    d77c:	4352415f 	cmpmi	r2, #-1073741801	; 0xc0000017
    d780:	45564948 	ldrbmi	r4, [r6, #-2376]	; 0x948
    d784:	7c7c2029 	ldclvc	0, cr2, [ip], #-164	; 0xffffff5c
    d788:	5f736920 	svcpl	0x00736920
    d78c:	72747461 	rsbsvc	r7, r4, #1627389952	; 0x61000000
    d790:	202c7828 	eorcs	r7, ip, r8, lsr #16
    d794:	33544146 	cmpcc	r4, #-2147483631	; 0x80000011
    d798:	4f565f32 	svcmi	0x00565f32
    d79c:	454d554c 	strbmi	r5, [sp, #-1356]	; 0x54c
    d7a0:	42414c5f 	submi	r4, r1, #24320	; 0x5f00
    d7a4:	0a294c45 	beq	a608c0 <__bss_end__+0xa52290>
    d7a8:	00000000 	andeq	r0, r0, r0
    d7ac:	494e4150 	stmdbmi	lr, {r4, r6, r8, lr}^
    d7b0:	73253a43 	teqvc	r5, #274432	; 0x43000
    d7b4:	3a73253a 	bcc	1cd6ca4 <__bss_end__+0x1cc8674>
    d7b8:	633a6425 	teqvs	sl, #620756992	; 0x25000000
    d7bc:	3c20746e 	cfstrscc	mvf7, [r0], #-440	; 0xfffffe48
    d7c0:	000a6e20 	andeq	r6, sl, r0, lsr #28
    d7c4:	203a7325 	eorscs	r7, sl, r5, lsr #6
    d7c8:	00000000 	andeq	r0, r0, r0
    d7cc:	72696409 	rsbvc	r6, r9, #150994944	; 0x9000000
    d7d0:	20746e65 	rsbscs	r6, r4, r5, ror #28
    d7d4:	6e207369 	cdpvs	3, 2, cr7, cr0, cr9, {3}
    d7d8:	6120746f 	teqvs	r0, pc, ror #8
    d7dc:	636f6c6c 	cmnvs	pc, #108, 24	; 0x6c00
    d7e0:	64657461 	strbtvs	r7, [r5], #-1121	; 0x461
    d7e4:	0000000a 	andeq	r0, r0, sl
    d7e8:	63657209 	cmnvs	r5, #-1879048192	; 0x90000000
    d7ec:	74736e6f 	ldrbtvc	r6, [r3], #-3695	; 0xe6f
    d7f0:	74637572 	strbtvc	r7, [r3], #-1394	; 0x572
    d7f4:	66206465 	strtvs	r6, [r0], -r5, ror #8
    d7f8:	6e656c69 	cdpvs	12, 6, cr6, cr5, cr9, {3}
    d7fc:	20656d61 	rsbcs	r6, r5, r1, ror #26
    d800:	253c203d 	ldrcs	r2, [ip, #-61]!	; 0x3d
    d804:	00003e73 	andeq	r3, r0, r3, ror lr
    d808:	6465656e 	strbtvs	r6, [r5], #-1390	; 0x56e
    d80c:	206f7420 	rsbcs	r7, pc, r0, lsr #8
    d810:	646e6168 	strbtvs	r6, [lr], #-360	; 0x168
    d814:	6120656c 	teqvs	r0, ip, ror #10
    d818:	20727474 	rsbscs	r7, r2, r4, ror r4
    d81c:	28207825 	stmdacs	r0!, {r0, r2, r5, fp, ip, sp, lr}
    d820:	0a297325 	beq	a6a4bc <__bss_end__+0xa5be8c>
    d824:	00000000 	andeq	r0, r0, r0
    d828:	6c696609 	stclvs	6, cr6, [r9], #-36	; 0xffffffdc
    d82c:	6d616e65 	stclvs	14, cr6, [r1, #-404]!	; 0xfffffe6c
    d830:	20202065 	eorcs	r2, r0, r5, rrx
    d834:	3d202020 	stccc	0, cr2, [r0, #-128]!	; 0xffffff80
    d838:	73253c20 	teqvc	r5, #32, 24	; 0x2000
    d83c:	00000a3e 	andeq	r0, r0, lr, lsr sl
    d840:	74746109 	ldrbtvc	r6, [r4], #-265	; 0x109
    d844:	20202072 	eorcs	r2, r0, r2, ror r0
    d848:	20202020 	eorcs	r2, r0, r0, lsr #32
    d84c:	203d2020 	eorscs	r2, sp, r0, lsr #32
    d850:	00207825 	eoreq	r7, r0, r5, lsr #16
    d854:	65525b20 	ldrbvs	r5, [r2, #-2848]	; 0xb20
    d858:	6f2d6461 	svcvs	0x002d6461
    d85c:	5d796c6e 	ldclpl	12, cr6, [r9, #-440]!	; 0xfffffe48
    d860:	0000000a 	andeq	r0, r0, sl
    d864:	49485b20 	stmdbmi	r8, {r5, r8, r9, fp, ip, lr}^
    d868:	4e454444 	cdpmi	4, 4, cr4, cr5, cr4, {2}
    d86c:	00000a5d 	andeq	r0, r0, sp, asr sl
    d870:	59535b20 	ldmdbpl	r3, {r5, r8, r9, fp, ip, lr}^
    d874:	4d455453 	cfstrdmi	mvd5, [r5, #-332]	; 0xfffffeb4
    d878:	4c494620 	mcrrmi	6, 2, r4, r9, cr0
    d87c:	64203a45 	strtvs	r3, [r0], #-2629	; 0xa45
    d880:	74276e6f 	strtvc	r6, [r7], #-3695	; 0xe6f
    d884:	766f6d20 	strbtvc	r6, [pc], -r0, lsr #26
    d888:	000a5d65 	andeq	r5, sl, r5, ror #26
    d88c:	69746309 	ldmdbvs	r4!, {r0, r3, r8, r9, sp, lr}^
    d890:	745f656d 	ldrbvc	r6, [pc], #-1389	; d898 <__FUNCTION__.4273+0xdac>
    d894:	68746e65 	ldmdavs	r4!, {r0, r2, r5, r6, r9, sl, fp, sp, lr}^
    d898:	203d2073 	eorscs	r2, sp, r3, ror r0
    d89c:	000a6425 	andeq	r6, sl, r5, lsr #8
    d8a0:	69746309 	ldmdbvs	r4!, {r0, r3, r8, r9, sp, lr}^
    d8a4:	2020656d 	eorcs	r6, r0, sp, ror #10
    d8a8:	20202020 	eorcs	r2, r0, r0, lsr #32
    d8ac:	3d202020 	stccc	0, cr2, [r0, #-128]!	; 0xffffff80
    d8b0:	0a642520 	beq	1916d38 <__bss_end__+0x1908708>
    d8b4:	00000000 	andeq	r0, r0, r0
    d8b8:	65726309 	ldrbvs	r6, [r2, #-777]!	; 0x309
    d8bc:	5f657461 	svcpl	0x00657461
    d8c0:	65746164 	ldrbvs	r6, [r4, #-356]!	; 0x164
    d8c4:	3d202020 	stccc	0, cr2, [r0, #-128]!	; 0xffffff80
    d8c8:	0a642520 	beq	1916d50 <__bss_end__+0x1908720>
    d8cc:	00000000 	andeq	r0, r0, r0
    d8d0:	63636109 	cmnvs	r3, #1073741826	; 0x40000002
    d8d4:	5f737365 	svcpl	0x00737365
    d8d8:	65746164 	ldrbvs	r6, [r4, #-356]!	; 0x164
    d8dc:	3d202020 	stccc	0, cr2, [r0, #-128]!	; 0xffffff80
    d8e0:	0a642520 	beq	1916d68 <__bss_end__+0x1908738>
    d8e4:	00000000 	andeq	r0, r0, r0
    d8e8:	5f696809 	svcpl	0x00696809
    d8ec:	72617473 	rsbvc	r7, r1, #1929379840	; 0x73000000
    d8f0:	20202074 	eorcs	r2, r0, r4, ror r0
    d8f4:	3d202020 	stccc	0, cr2, [r0, #-128]!	; 0xffffff80
    d8f8:	0a782520 	beq	1e16d80 <__bss_end__+0x1e08750>
    d8fc:	00000000 	andeq	r0, r0, r0
    d900:	646f6d09 	strbtvs	r6, [pc], #-3337	; d908 <__FUNCTION__.4273+0xe1c>
    d904:	6d69745f 	cfstrdvs	mvd7, [r9, #-380]!	; 0xfffffe84
    d908:	20202065 	eorcs	r2, r0, r5, rrx
    d90c:	3d202020 	stccc	0, cr2, [r0, #-128]!	; 0xffffff80
    d910:	0a642520 	beq	1916d98 <__bss_end__+0x1908768>
    d914:	00000000 	andeq	r0, r0, r0
    d918:	646f6d09 	strbtvs	r6, [pc], #-3337	; d920 <__FUNCTION__.4273+0xe34>
    d91c:	7461645f 	strbtvc	r6, [r1], #-1119	; 0x45f
    d920:	20202065 	eorcs	r2, r0, r5, rrx
    d924:	3d202020 	stccc	0, cr2, [r0, #-128]!	; 0xffffff80
    d928:	0a642520 	beq	1916db0 <__bss_end__+0x1908780>
    d92c:	00000000 	andeq	r0, r0, r0
    d930:	5f6f6c09 	svcpl	0x006f6c09
    d934:	72617473 	rsbvc	r7, r1, #1929379840	; 0x73000000
    d938:	20202074 	eorcs	r2, r0, r4, ror r0
    d93c:	3d202020 	stccc	0, cr2, [r0, #-128]!	; 0xffffff80
    d940:	0a642520 	beq	1916dc8 <__bss_end__+0x1908798>
    d944:	00000000 	andeq	r0, r0, r0
    d948:	6c696609 	stclvs	6, cr6, [r9], #-36	; 0xffffffdc
    d94c:	626e5f65 	rsbvs	r5, lr, #404	; 0x194
    d950:	73657479 	cmnvc	r5, #2030043136	; 0x79000000
    d954:	3d202020 	stccc	0, cr2, [r0, #-128]!	; 0xffffff80
    d958:	0a642520 	beq	1916de0 <__bss_end__+0x19087b0>
    d95c:	00000000 	andeq	r0, r0, r0
    d960:	494e4150 	stmdbmi	lr, {r4, r6, r8, lr}^
    d964:	73253a43 	teqvc	r5, #274432	; 0x43000
    d968:	3a73253a 	bcc	1cd6e58 <__bss_end__+0x1cc8828>
    d96c:	633a6425 	teqvs	sl, #620756992	; 0x25000000
    d970:	3c20746e 	cfstrscc	mvf7, [r0], #-440	; 0xfffffe48
    d974:	66656c20 	strbtvs	r6, [r5], -r0, lsr #24
    d978:	00000a74 	andeq	r0, r0, r4, ror sl
    d97c:	000a7325 	andeq	r7, sl, r5, lsr #6
    d980:	0000090a 	andeq	r0, r0, sl, lsl #18
    d984:	202c7825 	eorcs	r7, ip, r5, lsr #16
    d988:	00000000 	andeq	r0, r0, r0
    d98c:	78257830 	stmdavc	r5!, {r4, r5, fp, ip, sp, lr}
    d990:	0000202c 	andeq	r2, r0, ip, lsr #32
    d994:	494e4150 	stmdbmi	lr, {r4, r6, r8, lr}^
    d998:	73253a43 	teqvc	r5, #274432	; 0x43000
    d99c:	3a73253a 	bcc	1cd6e8c <__bss_end__+0x1cc885c>
    d9a0:	693a6425 	ldmdbvs	sl!, {r0, r2, r5, sl, sp, lr}
    d9a4:	656c706d 	strbvs	r7, [ip, #-109]!	; 0x6d
    d9a8:	746e656d 	strbtvc	r6, [lr], #-1389	; 0x56d
    d9ac:	69687420 	stmdbvs	r8!, {r5, sl, ip, sp, lr}^
    d9b0:	75662073 	strbvc	r2, [r6, #-115]!	; 0x73
    d9b4:	6974636e 	ldmdbvs	r4!, {r1, r2, r3, r5, r6, r8, r9, sp, lr}^
    d9b8:	0a216e6f 	beq	86937c <__bss_end__+0x85ad4c>
    d9bc:	0000000a 	andeq	r0, r0, sl
    d9c0:	00000041 	andeq	r0, r0, r1, asr #32
    d9c4:	000000f6 	strdeq	r0, [r0], -r6
    d9c8:	00000416 	andeq	r0, r0, r6, lsl r4
    d9cc:	000020ac 	andeq	r2, r0, ip, lsr #1
    d9d0:	0001d11e 	andeq	sp, r1, lr, lsl r1
    d9d4:	00000066 	andeq	r0, r0, r6, rrx
    d9d8:	00000047 	andeq	r0, r0, r7, asr #32
    d9dc:	00000000 	andeq	r0, r0, r0

0000d9e0 <__FUNCTION__.3897>:
    d9e0:	74736574 	ldrbtvc	r6, [r3], #-1396	; 0x574
    d9e4:	69616d5f 	stmdbvs	r1!, {r0, r1, r2, r3, r4, r6, r8, sl, fp, sp, lr}^
    d9e8:	0000006e 	andeq	r0, r0, lr, rrx
    d9ec:	72616843 	rsbvc	r6, r1, #4390912	; 0x430000
    d9f0:	65746361 	ldrbvs	r6, [r4, #-865]!	; 0x361
    d9f4:	55202072 	strpl	r2, [r0, #-114]!	; 0x72
    d9f8:	6f63696e 	svcvs	0x0063696e
    d9fc:	20206564 	eorcs	r6, r0, r4, ror #10
    da00:	2d465455 	cfstrdcs	mvd5, [r6, #-340]	; 0xfffffeac
    da04:	6e652038 	mcrvs	0, 3, r2, cr5, cr8, {1}
    da08:	69646f63 	stmdbvs	r4!, {r0, r1, r5, r6, r8, r9, sl, fp, sp, lr}^
    da0c:	2820676e 	stmdacs	r0!, {r1, r2, r3, r5, r6, r8, r9, sl, sp, lr}
    da10:	29786568 	ldmdbcs	r8!, {r3, r5, r6, r8, sl, sp, lr}^
    da14:	0000000a 	andeq	r0, r0, sl
    da18:	2d2d2d2d 	stccs	13, cr2, [sp, #-180]!	; 0xffffff4c
    da1c:	2d2d2d2d 	stccs	13, cr2, [sp, #-180]!	; 0xffffff4c
    da20:	2d2d2d2d 	stccs	13, cr2, [sp, #-180]!	; 0xffffff4c
    da24:	2d2d2d2d 	stccs	13, cr2, [sp, #-180]!	; 0xffffff4c
    da28:	2d2d2d2d 	stccs	13, cr2, [sp, #-180]!	; 0xffffff4c
    da2c:	2d2d2d2d 	stccs	13, cr2, [sp, #-180]!	; 0xffffff4c
    da30:	2d2d2d2d 	stccs	13, cr2, [sp, #-180]!	; 0xffffff4c
    da34:	2d2d2d2d 	stccs	13, cr2, [sp, #-180]!	; 0xffffff4c
    da38:	2d2d2d2d 	stccs	13, cr2, [sp, #-180]!	; 0xffffff4c
    da3c:	2d2d2d2d 	stccs	13, cr2, [sp, #-180]!	; 0xffffff4c
    da40:	0000000a 	andeq	r0, r0, sl
    da44:	494e4150 	stmdbmi	lr, {r4, r6, r8, lr}^
    da48:	73253a43 	teqvc	r5, #274432	; 0x43000
    da4c:	3a73253a 	bcc	1cd6f3c <__bss_end__+0x1cc890c>
    da50:	753a6425 	ldrvc	r6, [sl, #-1061]!	; 0x425
    da54:	0a386674 	beq	e2742c <__bss_end__+0xe18dfc>
    da58:	00000000 	andeq	r0, r0, r0
    da5c:	65747865 	ldrbvs	r7, [r4, #-2149]!	; 0x865
    da60:	6c616e72 	stclvs	14, cr6, [r1], #-456	; 0xfffffe38
    da64:	646f632d 	strbtvs	r6, [pc], #-813	; da6c <__FUNCTION__.3897+0x8c>
    da68:	6e752f65 	cdpvs	15, 7, cr2, cr5, cr5, {3}
    da6c:	646f6369 	strbtvs	r6, [pc], #-873	; da74 <__FUNCTION__.3897+0x94>
    da70:	74752d65 	ldrbtvc	r2, [r5], #-3429	; 0xd65
    da74:	632e3866 	teqvs	lr, #6684672	; 0x660000
    da78:	00000000 	andeq	r0, r0, r0
    da7c:	20207325 	eorcs	r7, r0, r5, lsr #6
    da80:	20202020 	eorcs	r2, r0, r0, lsr #32
    da84:	20202020 	eorcs	r2, r0, r0, lsr #32
    da88:	78252b55 	stmdavc	r5!, {r0, r2, r4, r6, r8, r9, fp, sp}
    da8c:	00000000 	andeq	r0, r0, r0
    da90:	4f525245 	svcmi	0x00525245
    da94:	66203a52 			; <UNDEFINED> instruction: 0x66203a52
    da98:	656c6961 	strbvs	r6, [ip, #-2401]!	; 0x961
    da9c:	6f742064 	svcvs	0x00742064
    daa0:	6e657320 	cdpvs	3, 6, cr7, cr5, cr0, {1}
    daa4:	44532064 	ldrbmi	r2, [r3], #-100	; 0x64
    daa8:	50504120 	subspl	r4, r0, r0, lsr #2
    daac:	6d6f6320 	stclvs	3, cr6, [pc, #-128]!	; da34 <__FUNCTION__.3897+0x54>
    dab0:	646e616d 	strbtvs	r6, [lr], #-365	; 0x16d
    dab4:	0000000a 	andeq	r0, r0, sl
    dab8:	4f525245 	svcmi	0x00525245
    dabc:	45203a52 	strmi	r3, [r0, #-2642]!	; 0xa52
    dac0:	20434d4d 	subcs	r4, r3, sp, asr #26
    dac4:	79737562 	ldmdbvc	r3!, {r1, r5, r6, r8, sl, ip, sp, lr}^
    dac8:	0000000a 	andeq	r0, r0, sl
    dacc:	434d4d45 	movtmi	r4, #56645	; 0xdd45
    dad0:	6553203a 	ldrbvs	r2, [r3, #-58]	; 0x3a
    dad4:	6e69646e 	cdpvs	4, 6, cr6, cr9, cr14, {3}
    dad8:	6f632067 	svcvs	0x00632067
    dadc:	6e616d6d 	cdpvs	13, 6, cr6, cr1, cr13, {3}
    dae0:	00002064 	andeq	r2, r0, r4, rrx
    dae4:	67726120 	ldrbvs	r6, [r2, -r0, lsr #2]!
    dae8:	00000020 	andeq	r0, r0, r0, lsr #32
    daec:	4f525245 	svcmi	0x00525245
    daf0:	66203a52 			; <UNDEFINED> instruction: 0x66203a52
    daf4:	656c6961 	strbvs	r6, [ip, #-2401]!	; 0x961
    daf8:	6f742064 	svcvs	0x00742064
    dafc:	6e657320 	cdpvs	3, 6, cr7, cr5, cr0, {1}
    db00:	4d452064 	stclmi	0, cr2, [r5, #-400]	; 0xfffffe70
    db04:	6320434d 	teqvs	r0, #872415233	; 0x34000001
    db08:	616d6d6f 	cmnvs	sp, pc, ror #26
    db0c:	000a646e 	andeq	r6, sl, lr, ror #8
    db10:	725f6473 	subsvc	r6, pc, #1929379840	; 0x73000000
    db14:	62646165 	rsbvs	r6, r4, #1073741849	; 0x40000019
    db18:	6b636f6c 	blvs	18e98d0 <__bss_end__+0x18db2a0>
    db1c:	61626c20 	cmnvs	r2, r0, lsr #24
    db20:	00000020 	andeq	r0, r0, r0, lsr #32
    db24:	6d756e20 	ldclvs	14, cr6, [r5, #-128]!	; 0xffffff80
    db28:	00000020 	andeq	r0, r0, r0, lsr #32
    db2c:	5252450d 	subspl	r4, r2, #54525952	; 0x3400000
    db30:	203a524f 	eorscs	r5, sl, pc, asr #4
    db34:	656d6954 	strbvs	r6, [sp, #-2388]!	; 0x954
    db38:	2074756f 	rsbscs	r7, r4, pc, ror #10
    db3c:	74696177 	strbtvc	r6, [r9], #-375	; 0x177
    db40:	20676e69 	rsbcs	r6, r7, r9, ror #28
    db44:	20726f66 	rsbscs	r6, r2, r6, ror #30
    db48:	64616572 	strbtvs	r6, [r1], #-1394	; 0x572
    db4c:	6f742079 	svcvs	0x00742079
    db50:	61657220 	cmnvs	r5, r0, lsr #4
    db54:	00000a64 	andeq	r0, r0, r4, ror #20
    db58:	775f6473 			; <UNDEFINED> instruction: 0x775f6473
    db5c:	65746972 	ldrbvs	r6, [r4, #-2418]!	; 0x972
    db60:	636f6c62 	cmnvs	pc, #25088	; 0x6200
    db64:	626c206b 	rsbvs	r2, ip, #107	; 0x6b
    db68:	00002061 	andeq	r2, r0, r1, rrx
    db6c:	5252450d 	subspl	r4, r2, #54525952	; 0x3400000
    db70:	203a524f 	eorscs	r5, sl, pc, asr #4
    db74:	656d6954 	strbvs	r6, [sp, #-2388]!	; 0x954
    db78:	2074756f 	rsbscs	r7, r4, pc, ror #10
    db7c:	74696177 	strbtvc	r6, [r9], #-375	; 0x177
    db80:	20676e69 	rsbcs	r6, r7, r9, ror #28
    db84:	20726f66 	rsbscs	r6, r2, r6, ror #30
    db88:	64616572 	strbtvs	r6, [r1], #-1394	; 0x572
    db8c:	6f742079 	svcvs	0x00742079
    db90:	69727720 	ldmdbvs	r2!, {r5, r8, r9, sl, ip, sp, lr}^
    db94:	000a6574 	andeq	r6, sl, r4, ror r5
    db98:	434d4d45 	movtmi	r4, #56645	; 0xdd45
    db9c:	5047203a 	subpl	r2, r7, sl, lsr r0
    dba0:	73204f49 	teqvc	r0, #292	; 0x124
    dba4:	75207465 	strvc	r7, [r0, #-1125]!	; 0x465
    dba8:	00000a70 	andeq	r0, r0, r0, ror sl
    dbac:	4f525245 	svcmi	0x00525245
    dbb0:	66203a52 			; <UNDEFINED> instruction: 0x66203a52
    dbb4:	656c6961 	strbvs	r6, [ip, #-2401]!	; 0x961
    dbb8:	6f742064 	svcvs	0x00742064
    dbbc:	73657220 	cmnvc	r5, #32, 4
    dbc0:	45207465 	strmi	r7, [r0, #-1125]!	; 0x465
    dbc4:	0a434d4d 	beq	10e1100 <__bss_end__+0x10d2ad0>
    dbc8:	00000000 	andeq	r0, r0, r0
    dbcc:	434d4d45 	movtmi	r4, #56645	; 0xdd45
    dbd0:	6572203a 	ldrbvs	r2, [r2, #-58]!	; 0x3a
    dbd4:	20746573 	rsbscs	r6, r4, r3, ror r5
    dbd8:	000a4b4f 	andeq	r4, sl, pc, asr #22
    dbdc:	4f525245 	svcmi	0x00525245
    dbe0:	74203a52 	strtvc	r3, [r0], #-2642	; 0xa52
    dbe4:	6f656d69 	svcvs	0x00656d69
    dbe8:	77207475 			; <UNDEFINED> instruction: 0x77207475
    dbec:	69746961 	ldmdbvs	r4!, {r0, r5, r6, r8, fp, sp, lr}^
    dbf0:	6620676e 	strtvs	r6, [r0], -lr, ror #14
    dbf4:	6920726f 	stmdbvs	r0!, {r0, r1, r2, r3, r5, r6, r9, ip, sp, lr}
    dbf8:	6269686e 	rsbvs	r6, r9, #7208960	; 0x6e0000
    dbfc:	66207469 	strtvs	r7, [r0], -r9, ror #8
    dc00:	0a67616c 	beq	19e61b8 <__bss_end__+0x19d7b88>
    dc04:	00000000 	andeq	r0, r0, r0
    dc08:	635f6473 	cmpvs	pc, #1929379840	; 0x73000000
    dc0c:	64206b6c 	strtvs	r6, [r0], #-2924	; 0xb6c
    dc10:	73697669 	cmnvc	r9, #110100480	; 0x6900000
    dc14:	0020726f 	eoreq	r7, r0, pc, ror #4
    dc18:	6873202c 	ldmdavs	r3!, {r2, r3, r5, sp}^
    dc1c:	20746669 	rsbscs	r6, r4, r9, ror #12
    dc20:	00000000 	andeq	r0, r0, r0
    dc24:	74696177 	strbtvc	r6, [r9], #-375	; 0x177
    dc28:	20676e69 	rsbcs	r6, r7, r9, ror #28
    dc2c:	67206f74 			; <UNDEFINED> instruction: 0x67206f74
    dc30:	73207465 	teqvc	r0, #1694498816	; 0x65000000
    dc34:	6c626174 	stfvse	f6, [r2], #-464	; 0xfffffe30
    dc38:	6c632065 	stclvs	0, cr2, [r3], #-404	; 0xfffffe6c
    dc3c:	206b636f 	rsbcs	r6, fp, pc, ror #6
    dc40:	00000000 	andeq	r0, r0, r0
    dc44:	4f525245 	svcmi	0x00525245
    dc48:	66203a52 			; <UNDEFINED> instruction: 0x66203a52
    dc4c:	656c6961 	strbvs	r6, [ip, #-2401]!	; 0x961
    dc50:	6f742064 	svcvs	0x00742064
    dc54:	74656720 	strbtvc	r6, [r5], #-1824	; 0x720
    dc58:	61747320 	cmnvs	r4, r0, lsr #6
    dc5c:	20656c62 	rsbcs	r6, r5, r2, ror #24
    dc60:	636f6c63 	cmnvs	pc, #25344	; 0x6300
    dc64:	00000a6b 	andeq	r0, r0, fp, ror #20
    dc68:	20746f67 	rsbscs	r6, r4, r7, ror #30
    dc6c:	62617473 	rsbvs	r7, r1, #1929379840	; 0x73000000
    dc70:	6320656c 	teqvs	r0, #108, 10	; 0x1b000000
    dc74:	6b636f6c 	blvs	18e9a2c <__bss_end__+0x18db3fc>
    dc78:	00000020 	andeq	r0, r0, r0, lsr #32
    dc7c:	434d4d45 	movtmi	r4, #56645	; 0xdd45
    dc80:	4d43203a 	stclmi	0, cr2, [r3, #-232]	; 0xffffff18
    dc84:	45535f44 	ldrbmi	r5, [r3, #-3908]	; 0xf44
    dc88:	4f5f444e 	svcmi	0x005f444e
    dc8c:	4f435f50 	svcmi	0x00435f50
    dc90:	7220444e 	eorvc	r4, r0, #1308622848	; 0x4e000000
    dc94:	72757465 	rsbsvc	r7, r5, #1694498816	; 0x65000000
    dc98:	2064656e 	rsbcs	r6, r4, lr, ror #10
    dc9c:	00000000 	andeq	r0, r0, r0
    dca0:	504d4f43 	subpl	r4, sp, r3, asr #30
    dca4:	4554454c 	ldrbmi	r4, [r4, #-1356]	; 0x54c
    dca8:	00000020 	andeq	r0, r0, r0, lsr #32
    dcac:	544c4f56 	strbpl	r4, [ip], #-3926	; 0xf56
    dcb0:	20454741 	subcs	r4, r5, r1, asr #14
    dcb4:	00000000 	andeq	r0, r0, r0
    dcb8:	20534343 	subscs	r4, r3, r3, asr #6
    dcbc:	00000000 	andeq	r0, r0, r0
    dcc0:	4f525245 	svcmi	0x00525245
    dcc4:	45203a52 	strmi	r3, [r0, #-2642]!	; 0xa52
    dcc8:	20434d4d 	subcs	r4, r3, sp, asr #26
    dccc:	444d4341 	strbmi	r4, [sp], #-833	; 0x341
    dcd0:	72203134 	eorvc	r3, r0, #52, 2
    dcd4:	72757465 	rsbsvc	r7, r5, #1694498816	; 0x65000000
    dcd8:	2064656e 	rsbcs	r6, r4, lr, ror #10
    dcdc:	6f727265 	svcvs	0x00727265
    dce0:	00000a72 	andeq	r0, r0, r2, ror sl
    dce4:	434d4d45 	movtmi	r4, #56645	; 0xdd45
    dce8:	4d43203a 	stclmi	0, cr2, [r3, #-232]	; 0xffffff18
    dcec:	45535f44 	ldrbmi	r5, [r3, #-3908]	; 0xf44
    dcf0:	525f444e 	subspl	r4, pc, #1308622848	; 0x4e000000
    dcf4:	415f4c45 	cmpmi	pc, r5, asr #24
    dcf8:	20524444 	subscs	r4, r2, r4, asr #8
    dcfc:	75746572 	ldrbvc	r6, [r4, #-1394]!	; 0x572
    dd00:	64656e72 	strbtvs	r6, [r5], #-3698	; 0xe72
    dd04:	00000020 	andeq	r0, r0, r0, lsr #32
    dd08:	434d4d45 	movtmi	r4, #56645	; 0xdd45
    dd0c:	7573203a 	ldrbvc	r2, [r3, #-58]!	; 0x3a
    dd10:	726f7070 	rsbvc	r7, pc, #112	; 0x70
    dd14:	00207374 	eoreq	r7, r0, r4, ror r3
    dd18:	5f544553 	svcpl	0x00544553
    dd1c:	434b4c42 	movtmi	r4, #48194	; 0xbc42
    dd20:	0020544e 	eoreq	r5, r0, lr, asr #8

0000dd24 <__FUNCTION__.3867>:
    dd24:	74696d65 	strbtvc	r6, [r9], #-3429	; 0xd65
    dd28:	00000000 	andeq	r0, r0, r0

0000dd2c <__FUNCTION__.3882>:
    dd2c:	705f6176 	subsvc	r6, pc, r6, ror r1	; <UNPREDICTABLE>
    dd30:	746e6972 	strbtvc	r6, [lr], #-2418	; 0x972
    dd34:	0000006b 	andeq	r0, r0, fp, rrx
    dd38:	494e4150 	stmdbmi	lr, {r4, r6, r8, lr}^
    dd3c:	73253a43 	teqvc	r5, #274432	; 0x43000
    dd40:	3a73253a 	bcc	1cd7230 <__bss_end__+0x1cc8c00>
    dd44:	303a6425 	eorscc	r6, sl, r5, lsr #8
    dd48:	0000000a 	andeq	r0, r0, sl
    dd4c:	34317363 	ldrtcc	r7, [r1], #-867	; 0x363
    dd50:	702d6530 	eorvc	r6, sp, r0, lsr r5
    dd54:	746e6972 	strbtvc	r6, [lr], #-2418	; 0x972
    dd58:	00632e66 	rsbeq	r2, r3, r6, ror #28
    dd5c:	33323130 	teqcc	r2, #48, 2
    dd60:	37363534 			; <UNDEFINED> instruction: 0x37363534
    dd64:	00003938 	andeq	r3, r0, r8, lsr r9
    dd68:	33323130 	teqcc	r2, #48, 2
    dd6c:	37363534 			; <UNDEFINED> instruction: 0x37363534
    dd70:	62613938 	rsbvs	r3, r1, #56, 18	; 0xe0000
    dd74:	66656463 	strbtvs	r6, [r5], -r3, ror #8
    dd78:	00000000 	andeq	r0, r0, r0
    dd7c:	00003130 	andeq	r3, r0, r0, lsr r1
    dd80:	494e4150 	stmdbmi	lr, {r4, r6, r8, lr}^
    dd84:	73253a43 	teqvc	r5, #274432	; 0x43000
    dd88:	3a73253a 	bcc	1cd7278 <__bss_end__+0x1cc8c48>
    dd8c:	773a6425 	ldrvc	r6, [sl, -r5, lsr #8]!
    dd90:	68746469 	ldmdavs	r4!, {r0, r3, r5, r6, sl, sp, lr}^
    dd94:	33203c20 	teqcc	r0, #32, 24	; 0x2000
    dd98:	00000a32 	andeq	r0, r0, r2, lsr sl
    dd9c:	494e4150 	stmdbmi	lr, {r4, r6, r8, lr}^
    dda0:	73253a43 	teqvc	r5, #274432	; 0x43000
    dda4:	3a73253a 	bcc	1cd7294 <__bss_end__+0x1cc8c64>
    dda8:	663a6425 	ldrtvs	r6, [sl], -r5, lsr #8
    ddac:	74616f6c 	strbtvc	r6, [r1], #-3948	; 0xf6c
    ddb0:	746f6e20 	strbtvc	r6, [pc], #-3616	; ddb8 <__FUNCTION__.3882+0x8c>
    ddb4:	616e6520 	cmnvs	lr, r0, lsr #10
    ddb8:	64656c62 	strbtvs	r6, [r5], #-3170	; 0xc62
    ddbc:	0a212121 	beq	856248 <__bss_end__+0x847c18>
    ddc0:	00000000 	andeq	r0, r0, r0
    ddc4:	494e4150 	stmdbmi	lr, {r4, r6, r8, lr}^
    ddc8:	73253a43 	teqvc	r5, #274432	; 0x43000
    ddcc:	3a73253a 	bcc	1cd72bc <__bss_end__+0x1cc8c8c>
    ddd0:	703a6425 	eorsvc	r6, sl, r5, lsr #8
    ddd4:	746e6972 	strbtvc	r6, [lr], #-2418	; 0x972
    ddd8:	6e203a6b 	vnmulvs.f32	s6, s0, s23
    dddc:	6820746f 	stmdavs	r0!, {r0, r1, r2, r3, r5, r6, sl, ip, sp, lr}
    dde0:	6c646e61 	stclvs	14, cr6, [r4], #-388	; 0xfffffe7c
    dde4:	20676e69 	rsbcs	r6, r7, r9, ror #28
    dde8:	63657073 	cmnvs	r5, #115	; 0x73
    ddec:	65696669 	strbvs	r6, [r9, #-1641]!	; 0x669
    ddf0:	25272072 	strcs	r2, [r7, #-114]!	; 0x72
    ddf4:	0a0a2763 	beq	297b88 <__bss_end__+0x289558>
    ddf8:	00000000 	andeq	r0, r0, r0
    ddfc:	00007825 	andeq	r7, r0, r5, lsr #16
    de00:	4e41503c 	mcrmi	0, 2, r5, cr1, cr12, {1}
    de04:	3a3e4349 	bcc	f9eb30 <__bss_end__+0xf90500>
    de08:	00000000 	andeq	r0, r0, r0
    de0c:	253a7325 	ldrcs	r7, [sl, #-805]!	; 0x325
    de10:	50203a64 	eorpl	r3, r0, r4, ror #20
    de14:	43494e41 	movtmi	r4, #40513	; 0x9e41
    de18:	4e415020 	cdpmi	0, 4, cr5, cr1, cr0, {1}
    de1c:	50204349 	eorpl	r4, r0, r9, asr #6
    de20:	43494e41 	movtmi	r4, #40513	; 0x9e41
    de24:	7325203a 	teqvc	r5, #58	; 0x3a
    de28:	0000000a 	andeq	r0, r0, sl

0000de2c <__FUNCTION__.3818>:
    de2c:	5f697072 	svcpl	0x00697072
    de30:	6f626572 	svcvs	0x00626572
    de34:	0000746f 	andeq	r7, r0, pc, ror #8
    de38:	494e4150 	stmdbmi	lr, {r4, r6, r8, lr}^
    de3c:	73253a43 	teqvc	r5, #274432	; 0x43000
    de40:	3a73253a 	bcc	1cd7330 <__bss_end__+0x1cc8d00>
    de44:	613a6425 	teqvs	sl, r5, lsr #8
    de48:	73755f74 	cmnvc	r5, #116, 30	; 0x1d0
    de4c:	6c5f7265 	lfmvs	f7, 2, [pc], {101}	; 0x65
    de50:	6c657665 	stclvs	6, cr7, [r5], #-404	; 0xfffffe6c
    de54:	000a2928 	andeq	r2, sl, r8, lsr #18
    de58:	34317363 	ldrtcc	r7, [r1], #-867	; 0x363
    de5c:	722d6530 	eorvc	r6, sp, #48, 10	; 0xc000000
    de60:	6f6f6265 	svcvs	0x006f6265
    de64:	00632e74 	rsbeq	r2, r3, r4, ror lr
    de68:	454e4f44 	strbmi	r4, [lr, #-3908]	; 0xf44
    de6c:	0a212121 	beq	8562f8 <__bss_end__+0x847cc8>
    de70:	00000000 	andeq	r0, r0, r0

0000de74 <__FUNCTION__.3823>:
    de74:	6c616d6b 	stclvs	13, cr6, [r1], #-428	; 0xfffffe54
    de78:	5f636f6c 	svcpl	0x00636f6c
    de7c:	5f746573 	svcpl	0x00746573
    de80:	72617473 	rsbvc	r7, r1, #1929379840	; 0x73000000
    de84:	00000074 	andeq	r0, r0, r4, ror r0

0000de88 <__FUNCTION__.3832>:
    de88:	6c616d6b 	stclvs	13, cr6, [r1], #-428	; 0xfffffe54
    de8c:	5f636f6c 	svcpl	0x00636f6c
    de90:	67696c61 	strbvs	r6, [r9, -r1, ror #24]!
    de94:	0064656e 	rsbeq	r6, r4, lr, ror #10
    de98:	494e4150 	stmdbmi	lr, {r4, r6, r8, lr}^
    de9c:	73253a43 	teqvc	r5, #274432	; 0x43000
    dea0:	3a73253a 	bcc	1cd7390 <__bss_end__+0x1cc8d60>
    dea4:	613a6425 	teqvs	sl, r5, lsr #8
    dea8:	20726464 	rsbscs	r6, r2, r4, ror #8
    deac:	6568203e 	strbvs	r2, [r8, #-62]!	; 0x3e
    deb0:	000a7061 	andeq	r7, sl, r1, rrx
    deb4:	34317363 	ldrtcc	r7, [r1], #-867	; 0x363
    deb8:	6b2d6530 	blvs	b67380 <__bss_end__+0xb58d50>
    debc:	6c6c616d 	stfvse	f6, [ip], #-436	; 0xfffffe4c
    dec0:	632e636f 	teqvs	lr, #-1140850687	; 0xbc000001
    dec4:	00000000 	andeq	r0, r0, r0
    dec8:	4f525245 	svcmi	0x00525245
    decc:	73253a52 	teqvc	r5, #335872	; 0x52000
    ded0:	3a73253a 	bcc	1cd73c0 <__bss_end__+0x1cc8d90>
    ded4:	203a6425 	eorscs	r6, sl, r5, lsr #8
    ded8:	534c4146 	movtpl	r4, #49478	; 0xc146
    dedc:	283c2845 	ldmdacs	ip!, {r0, r2, r6, fp, sp}
    dee0:	6c612828 	stclvs	8, cr2, [r1], #-160	; 0xffffff60
    dee4:	6d6e6769 	stclvs	7, cr6, [lr, #-420]!	; 0xfffffe5c
    dee8:	29746e65 	ldmdbcs	r4!, {r0, r2, r5, r6, r9, sl, fp, sp, lr}^
    deec:	61282d26 	teqvs	r8, r6, lsr #26
    def0:	6e67696c 	cdpvs	9, 6, cr6, cr7, cr12, {3}
    def4:	746e656d 	strbtvc	r6, [lr], #-1389	; 0x56d
    def8:	3d202929 	stccc	9, cr2, [r0, #-164]!	; 0xffffff5c
    defc:	6128203d 	teqvs	r8, sp, lsr r0
    df00:	6e67696c 	cdpvs	9, 6, cr6, cr7, cr12, {3}
    df04:	746e656d 	strbtvc	r6, [lr], #-1389	; 0x56d
    df08:	293e2929 	ldmdbcs	lr!, {r0, r3, r5, r8, fp, sp}
    df0c:	7361203a 	cmnvc	r1, #58	; 0x3a
    df10:	696d7573 	stmdbvs	sp!, {r0, r1, r4, r5, r6, r8, sl, ip, sp, lr}^
    df14:	7020676e 	eorvc	r6, r0, lr, ror #14
    df18:	7265776f 	rsbvc	r7, r5, #29097984	; 0x1bc0000
    df1c:	20666f20 	rsbcs	r6, r6, r0, lsr #30
    df20:	0a6f7774 	beq	1bebcf8 <__bss_end__+0x1bdd6c8>
    df24:	00000000 	andeq	r0, r0, r0
    df28:	4f525245 	svcmi	0x00525245
    df2c:	73253a52 	teqvc	r5, #335872	; 0x52000
    df30:	3a73253a 	bcc	1cd7420 <__bss_end__+0x1cc8df0>
    df34:	203a6425 	eorscs	r6, sl, r5, lsr #8
    df38:	534c4146 	movtpl	r4, #49478	; 0xc146
    df3c:	283c2845 	ldmdacs	ip!, {r0, r2, r6, fp, sp}
    df40:	29682828 	stmdbcs	r8!, {r3, r5, fp, sp}^
    df44:	28202620 	stmdacs	r0!, {r5, r9, sl, sp}
    df48:	70797428 	rsbsvc	r7, r9, r8, lsr #8
    df4c:	28666f65 	stmdacs	r6!, {r0, r2, r5, r6, r8, r9, sl, fp, sp, lr}^
    df50:	28292968 	stmdacs	r9!, {r3, r5, r6, r8, fp, sp}
    df54:	67696c61 	strbvs	r6, [r9, -r1, ror #24]!
    df58:	6e656d6e 	cdpvs	13, 6, cr6, cr5, cr14, {3}
    df5c:	2d202974 	stccs	9, cr2, [r0, #-464]!	; 0xfffffe30
    df60:	29293120 	stmdbcs	r9!, {r5, r8, ip, sp}
    df64:	203d3d20 	eorscs	r3, sp, r0, lsr #26
    df68:	293e2930 	ldmdbcs	lr!, {r4, r5, r8, fp, sp}
    df6c:	6d69203a 	stclvs	0, cr2, [r9, #-232]!	; 0xffffff18
    df70:	73736f70 	cmnvc	r3, #112, 30	; 0x1c0
    df74:	656c6269 	strbvs	r6, [ip, #-617]!	; 0x269
    df78:	0000000a 	andeq	r0, r0, sl

Disassembly of section .bss:

0000df7c <__bss_start__>:
	...

0000e17c <buf.4201>:
	...

0000e1fc <ret.3874>:
	...

0000e204 <__compound_literal.5>:
	...

0000e214 <buf.3909>:
	...

0000e614 <sd_ocr>:
    e614:	00000000 	andeq	r0, r0, r0

0000e618 <sd_err>:
    e618:	00000000 	andeq	r0, r0, r0

0000e61c <sd_rca>:
    e61c:	00000000 	andeq	r0, r0, r0

0000e620 <sd_scr>:
	...

0000e628 <sd_hv>:
	...

Disassembly of section .ARM.attributes:

00000000 <.ARM.attributes>:
   0:	00002a41 	andeq	r2, r0, r1, asr #20
   4:	61656100 	cmnvs	r5, r0, lsl #2
   8:	01006962 	tsteq	r0, r2, ror #18
   c:	00000020 	andeq	r0, r0, r0, lsr #32
  10:	4b5a3605 	blmi	168d82c <__bss_end__+0x167f1fc>
  14:	08070600 	stmdaeq	r7, {r9, sl}
  18:	12010901 	andne	r0, r1, #16384	; 0x4000
  1c:	15011404 	strne	r1, [r1, #-1028]	; 0x404
  20:	18031701 	stmdane	r3, {r0, r8, r9, sl, ip}
  24:	22011a01 	andcs	r1, r1, #4096	; 0x1000
  28:	Address 0x0000000000000028 is out of bounds.


Disassembly of section .comment:

00000000 <.comment>:
   0:	3a434347 	bcc	10d0d24 <__bss_end__+0x10c26f4>
   4:	4e472820 	cdpmi	8, 4, cr2, cr7, cr0, {1}
   8:	34202955 	strtcc	r2, [r0], #-2389	; 0x955
   c:	332e382e 	teqcc	lr, #3014656	; 0x2e0000
  10:	43434700 	movtmi	r4, #14080	; 0x3700
  14:	4728203a 			; <UNDEFINED> instruction: 0x4728203a
  18:	5420554e 	strtpl	r5, [r0], #-1358	; 0x54e
  1c:	736c6f6f 	cmnvc	ip, #444	; 0x1bc
  20:	726f6620 	rsbvc	r6, pc, #32, 12	; 0x2000000
  24:	6d724120 	ldfvse	f4, [r2, #-128]!	; 0xffffff80
  28:	626d4520 	rsbvs	r4, sp, #32, 10	; 0x8000000
  2c:	65646465 	strbvs	r6, [r4, #-1125]!	; 0x465
  30:	72502064 	subsvc	r2, r0, #100	; 0x64
  34:	7365636f 	cmnvc	r5, #-1140850687	; 0xbc000001
  38:	73726f73 	cmnvc	r2, #460	; 0x1cc
  3c:	322d3720 	eorcc	r3, sp, #32, 14	; 0x800000
  40:	2d383130 	ldfcss	f3, [r8, #-192]!	; 0xffffff40
  44:	752d3371 	strvc	r3, [sp, #-881]!	; 0x371
  48:	74616470 	strbtvc	r6, [r1], #-1136	; 0x470
  4c:	37202965 	strcc	r2, [r0, -r5, ror #18]!
  50:	312e332e 	teqcc	lr, lr, lsr #6
  54:	31303220 	teqcc	r0, r0, lsr #4
  58:	32363038 	eorscc	r3, r6, #56	; 0x38
  5c:	72282032 	eorvc	r2, r8, #50	; 0x32
  60:	61656c65 	cmnvs	r5, r5, ror #24
  64:	20296573 	eorcs	r6, r9, r3, ror r5
  68:	4d52415b 	ldfmie	f4, [r2, #-364]	; 0xfffffe94
  6c:	626d652f 	rsbvs	r6, sp, #197132288	; 0xbc00000
  70:	65646465 	strbvs	r6, [r4, #-1125]!	; 0x465
  74:	2d372d64 	ldccs	13, cr2, [r7, #-400]!	; 0xfffffe70
  78:	6e617262 	cdpvs	2, 6, cr7, cr1, cr2, {3}
  7c:	72206863 	eorvc	r6, r0, #6488064	; 0x630000
  80:	73697665 	cmnvc	r9, #105906176	; 0x6500000
  84:	206e6f69 	rsbcs	r6, lr, r9, ror #30
  88:	39313632 	ldmdbcc	r1!, {r1, r4, r5, r9, sl, ip, sp}
  8c:	005d3730 	subseq	r3, sp, r0, lsr r7
