
1hello-inf.elf:     file format elf32-littlearm


Disassembly of section .text:

00008000 <_start>:
    8000:	e3a0d302 	mov	sp, #134217728	; 0x8000000
    8004:	e3a0b000 	mov	fp, #0
    8008:	eb000000 	bl	8010 <notmain>
    800c:	eb000072 	bl	81dc <reboot>

00008010 <notmain>:
    8010:	e92d4008 	push	{r3, lr}
    8014:	eb000042 	bl	8124 <uart_init>
    8018:	e59f4008 	ldr	r4, [pc, #8]	; 8028 <notmain+0x18>
    801c:	e1a00004 	mov	r0, r4
    8020:	eb0000ed 	bl	83dc <printf>
    8024:	eafffffc 	b	801c <notmain+0xc>
    8028:	00008b38 	andeq	r8, r0, r8, lsr fp

0000802c <dev_barrier>:
    802c:	e92d4008 	push	{r3, lr}
    8030:	eb0000b3 	bl	8304 <dmb>
    8034:	eb0000b4 	bl	830c <dsb>
    8038:	e8bd8008 	pop	{r3, pc}

0000803c <init_gpio>:
    803c:	e92d4008 	push	{r3, lr}
    8040:	e3a0000e 	mov	r0, #14
    8044:	e3a01002 	mov	r1, #2
    8048:	eb000231 	bl	8914 <gpio_set_function>
    804c:	e3a0000f 	mov	r0, #15
    8050:	e3a01002 	mov	r1, #2
    8054:	eb00022e 	bl	8914 <gpio_set_function>
    8058:	e8bd8008 	pop	{r3, pc}

0000805c <aux_enable>:
    805c:	e92d4008 	push	{r3, lr}
    8060:	e59f300c 	ldr	r3, [pc, #12]	; 8074 <aux_enable+0x18>
    8064:	e5930000 	ldr	r0, [r3]
    8068:	e3a01001 	mov	r1, #1
    806c:	eb00008f 	bl	82b0 <put32>
    8070:	e8bd8008 	pop	{r3, pc}
    8074:	00008b34 	andeq	r8, r0, r4, lsr fp

00008078 <clear_txrx>:
    8078:	e92d4010 	push	{r4, lr}
    807c:	e59f4014 	ldr	r4, [pc, #20]	; 8098 <clear_txrx+0x20>
    8080:	e1a00004 	mov	r0, r4
    8084:	eb000091 	bl	82d0 <get32>
    8088:	e3c01003 	bic	r1, r0, #3
    808c:	e1a00004 	mov	r0, r4
    8090:	eb000086 	bl	82b0 <put32>
    8094:	e8bd8010 	pop	{r4, pc}
    8098:	20215060 	eorcs	r5, r1, r0, rrx

0000809c <set_txrx>:
    809c:	e92d4010 	push	{r4, lr}
    80a0:	e59f4014 	ldr	r4, [pc, #20]	; 80bc <set_txrx+0x20>
    80a4:	e1a00004 	mov	r0, r4
    80a8:	eb000088 	bl	82d0 <get32>
    80ac:	e3801003 	orr	r1, r0, #3
    80b0:	e1a00004 	mov	r0, r4
    80b4:	eb00007d 	bl	82b0 <put32>
    80b8:	e8bd8010 	pop	{r4, pc}
    80bc:	20215060 	eorcs	r5, r1, r0, rrx

000080c0 <set_baudrate>:
    80c0:	e92d4008 	push	{r3, lr}
    80c4:	e59f0008 	ldr	r0, [pc, #8]	; 80d4 <set_baudrate+0x14>
    80c8:	e59f1008 	ldr	r1, [pc, #8]	; 80d8 <set_baudrate+0x18>
    80cc:	eb000077 	bl	82b0 <put32>
    80d0:	e8bd8008 	pop	{r3, pc}
    80d4:	20215068 	eorcs	r5, r1, r8, rrx
    80d8:	0000010e 	andeq	r0, r0, lr, lsl #2

000080dc <set_bitmode>:
    80dc:	e92d4010 	push	{r4, lr}
    80e0:	e59f4014 	ldr	r4, [pc, #20]	; 80fc <set_bitmode+0x20>
    80e4:	e1a00004 	mov	r0, r4
    80e8:	eb000078 	bl	82d0 <get32>
    80ec:	e3801003 	orr	r1, r0, #3
    80f0:	e1a00004 	mov	r0, r4
    80f4:	eb00006d 	bl	82b0 <put32>
    80f8:	e8bd8010 	pop	{r4, pc}
    80fc:	2021504c 	eorcs	r5, r1, ip, asr #32

00008100 <clear_fifo_queues>:
    8100:	e92d4010 	push	{r4, lr}
    8104:	e59f4014 	ldr	r4, [pc, #20]	; 8120 <clear_fifo_queues+0x20>
    8108:	e1a00004 	mov	r0, r4
    810c:	eb00006f 	bl	82d0 <get32>
    8110:	e3801006 	orr	r1, r0, #6
    8114:	e1a00004 	mov	r0, r4
    8118:	eb000064 	bl	82b0 <put32>
    811c:	e8bd8010 	pop	{r4, pc}
    8120:	20215048 	eorcs	r5, r1, r8, asr #32

00008124 <uart_init>:
    8124:	e92d4008 	push	{r3, lr}
    8128:	ebffffbf 	bl	802c <dev_barrier>
    812c:	ebffffc2 	bl	803c <init_gpio>
    8130:	ebffffbd 	bl	802c <dev_barrier>
    8134:	ebffffc8 	bl	805c <aux_enable>
    8138:	ebffffbb 	bl	802c <dev_barrier>
    813c:	ebffffcd 	bl	8078 <clear_txrx>
    8140:	ebffffde 	bl	80c0 <set_baudrate>
    8144:	ebffffe4 	bl	80dc <set_bitmode>
    8148:	ebffffec 	bl	8100 <clear_fifo_queues>
    814c:	ebffffd2 	bl	809c <set_txrx>
    8150:	ebffffb5 	bl	802c <dev_barrier>
    8154:	e8bd8008 	pop	{r3, pc}

00008158 <rxReady>:
    8158:	e92d4008 	push	{r3, lr}
    815c:	e59f0008 	ldr	r0, [pc, #8]	; 816c <rxReady+0x14>
    8160:	eb00005a 	bl	82d0 <get32>
    8164:	e2000001 	and	r0, r0, #1
    8168:	e8bd8008 	pop	{r3, pc}
    816c:	20215054 	eorcs	r5, r1, r4, asr r0

00008170 <txEmpty>:
    8170:	e92d4008 	push	{r3, lr}
    8174:	e59f0010 	ldr	r0, [pc, #16]	; 818c <txEmpty+0x1c>
    8178:	eb000054 	bl	82d0 <get32>
    817c:	e3100020 	tst	r0, #32
    8180:	03a00000 	moveq	r0, #0
    8184:	13a00001 	movne	r0, #1
    8188:	e8bd8008 	pop	{r3, pc}
    818c:	20215054 	eorcs	r5, r1, r4, asr r0

00008190 <uart_getc>:
    8190:	e92d4008 	push	{r3, lr}
    8194:	ebffffef 	bl	8158 <rxReady>
    8198:	e3500000 	cmp	r0, #0
    819c:	0afffffc 	beq	8194 <uart_getc+0x4>
    81a0:	e59f0008 	ldr	r0, [pc, #8]	; 81b0 <uart_getc+0x20>
    81a4:	eb000049 	bl	82d0 <get32>
    81a8:	e6ef0070 	uxtb	r0, r0
    81ac:	e8bd8008 	pop	{r3, pc}
    81b0:	20215040 	eorcs	r5, r1, r0, asr #32

000081b4 <uart_putc>:
    81b4:	e92d4010 	push	{r4, lr}
    81b8:	e1a04000 	mov	r4, r0
    81bc:	ebffffeb 	bl	8170 <txEmpty>
    81c0:	e3500000 	cmp	r0, #0
    81c4:	0afffffc 	beq	81bc <uart_putc+0x8>
    81c8:	e59f0008 	ldr	r0, [pc, #8]	; 81d8 <uart_putc+0x24>
    81cc:	e6ef1074 	uxtb	r1, r4
    81d0:	eb000036 	bl	82b0 <put32>
    81d4:	e8bd8010 	pop	{r4, pc}
    81d8:	20215040 	eorcs	r5, r1, r0, asr #32

000081dc <reboot>:
    81dc:	e92d4008 	push	{r3, lr}
    81e0:	e3a04000 	mov	r4, #0
    81e4:	e59f5030 	ldr	r5, [pc, #48]	; 821c <reboot+0x40>
    81e8:	ea000002 	b	81f8 <reboot+0x1c>
    81ec:	e1a00004 	mov	r0, r4
    81f0:	eb00003c 	bl	82e8 <dummy>
    81f4:	e2844001 	add	r4, r4, #1
    81f8:	e1540005 	cmp	r4, r5
    81fc:	dafffffa 	ble	81ec <reboot+0x10>
    8200:	e59f0018 	ldr	r0, [pc, #24]	; 8220 <reboot+0x44>
    8204:	e59f1018 	ldr	r1, [pc, #24]	; 8224 <reboot+0x48>
    8208:	eb00002a 	bl	82b8 <PUT32>
    820c:	e59f0014 	ldr	r0, [pc, #20]	; 8228 <reboot+0x4c>
    8210:	e59f1014 	ldr	r1, [pc, #20]	; 822c <reboot+0x50>
    8214:	eb000027 	bl	82b8 <PUT32>
    8218:	eafffffe 	b	8218 <reboot+0x3c>
    821c:	0001869f 	muleq	r1, pc, r6	; <UNPREDICTABLE>
    8220:	20100024 	andscs	r0, r0, r4, lsr #32
    8224:	5a000001 	bpl	8230 <clean_reboot>
    8228:	2010001c 	andscs	r0, r0, ip, lsl r0
    822c:	5a000020 	bpl	82b4 <put32+0x4>

00008230 <clean_reboot>:
    8230:	e92d4008 	push	{r3, lr}
    8234:	e59f000c 	ldr	r0, [pc, #12]	; 8248 <clean_reboot+0x18>
    8238:	eb00018e 	bl	8878 <puts>
    823c:	e3a0001e 	mov	r0, #30
    8240:	eb000015 	bl	829c <delay_ms>
    8244:	ebffffe4 	bl	81dc <reboot>
    8248:	00008b48 	andeq	r8, r0, r8, asr #22

0000824c <delay>:
    824c:	ea000001 	b	8258 <delay+0xc>
    8250:	e2811000 	add	r1, r1, #0
    8254:	e1a00003 	mov	r0, r3
    8258:	e2403001 	sub	r3, r0, #1
    825c:	e3500000 	cmp	r0, #0
    8260:	1afffffa 	bne	8250 <delay+0x4>
    8264:	e12fff1e 	bx	lr

00008268 <timer_get_time>:
    8268:	e59f3004 	ldr	r3, [pc, #4]	; 8274 <timer_get_time+0xc>
    826c:	e5930004 	ldr	r0, [r3, #4]
    8270:	e12fff1e 	bx	lr
    8274:	20003000 	andcs	r3, r0, r0

00008278 <delay_us>:
    8278:	e92d4038 	push	{r3, r4, r5, lr}
    827c:	e1a05000 	mov	r5, r0
    8280:	ebfffff8 	bl	8268 <timer_get_time>
    8284:	e1a04000 	mov	r4, r0
    8288:	ebfffff6 	bl	8268 <timer_get_time>
    828c:	e0640000 	rsb	r0, r4, r0
    8290:	e1500005 	cmp	r0, r5
    8294:	3afffffb 	bcc	8288 <delay_us+0x10>
    8298:	e8bd8038 	pop	{r3, r4, r5, pc}

0000829c <delay_ms>:
    829c:	e92d4008 	push	{r3, lr}
    82a0:	e3a03ffa 	mov	r3, #1000	; 0x3e8
    82a4:	e0000093 	mul	r0, r3, r0
    82a8:	ebfffff2 	bl	8278 <delay_us>
    82ac:	e8bd8008 	pop	{r3, pc}

000082b0 <put32>:
    82b0:	e5801000 	str	r1, [r0]
    82b4:	e12fff1e 	bx	lr

000082b8 <PUT32>:
    82b8:	e5801000 	str	r1, [r0]
    82bc:	e12fff1e 	bx	lr

000082c0 <PUT16>:
    82c0:	e1c010b0 	strh	r1, [r0]
    82c4:	e12fff1e 	bx	lr

000082c8 <PUT8>:
    82c8:	e5c01000 	strb	r1, [r0]
    82cc:	e12fff1e 	bx	lr

000082d0 <get32>:
    82d0:	e5900000 	ldr	r0, [r0]
    82d4:	e12fff1e 	bx	lr

000082d8 <GET32>:
    82d8:	e5900000 	ldr	r0, [r0]
    82dc:	e12fff1e 	bx	lr

000082e0 <GETPC>:
    82e0:	e1a0000e 	mov	r0, lr
    82e4:	e12fff1e 	bx	lr

000082e8 <dummy>:
    82e8:	e12fff1e 	bx	lr

000082ec <mb>:
    82ec:	e3a00000 	mov	r0, #0
    82f0:	ee070f15 	mcr	15, 0, r0, cr7, cr5, {0}
    82f4:	ee070fd5 	mcr	15, 0, r0, cr7, cr5, {6}
    82f8:	ee070f9a 	mcr	15, 0, r0, cr7, cr10, {4}
    82fc:	ee070f95 	mcr	15, 0, r0, cr7, cr5, {4}
    8300:	e12fff1e 	bx	lr

00008304 <dmb>:
    8304:	ee070fba 	mcr	15, 0, r0, cr7, cr10, {5}
    8308:	e12fff1e 	bx	lr

0000830c <dsb>:
    830c:	ee070f9a 	mcr	15, 0, r0, cr7, cr10, {4}
    8310:	e12fff1e 	bx	lr

00008314 <isdigit>:
    8314:	e2400030 	sub	r0, r0, #48	; 0x30
    8318:	e6ef0070 	uxtb	r0, r0
    831c:	e3500009 	cmp	r0, #9
    8320:	83a00000 	movhi	r0, #0
    8324:	93a00001 	movls	r0, #1
    8328:	e12fff1e 	bx	lr

0000832c <pad>:
    832c:	e0611000 	rsb	r1, r1, r0
    8330:	e3a03020 	mov	r3, #32
    8334:	ea000002 	b	8344 <pad+0x18>
    8338:	e5c03000 	strb	r3, [r0]
    833c:	e2811001 	add	r1, r1, #1
    8340:	e2800001 	add	r0, r0, #1
    8344:	e1510002 	cmp	r1, r2
    8348:	bafffffa 	blt	8338 <pad+0xc>
    834c:	e3a03000 	mov	r3, #0
    8350:	e5c03000 	strb	r3, [r0]
    8354:	e12fff1e 	bx	lr

00008358 <reverse>:
    8358:	e063c002 	rsb	ip, r3, r2
    835c:	e28cc001 	add	ip, ip, #1
    8360:	e15c0001 	cmp	ip, r1
    8364:	c061100c 	rsbgt	r1, r1, ip
    8368:	c0833001 	addgt	r3, r3, r1
    836c:	e2422001 	sub	r2, r2, #1
    8370:	e1a01000 	mov	r1, r0
    8374:	ea000002 	b	8384 <reverse+0x2c>
    8378:	e452c001 	ldrb	ip, [r2], #-1
    837c:	e5c1c000 	strb	ip, [r1]
    8380:	e2811001 	add	r1, r1, #1
    8384:	e1520003 	cmp	r2, r3
    8388:	2afffffa 	bcs	8378 <reverse+0x20>
    838c:	e3a03000 	mov	r3, #0
    8390:	e5c13000 	strb	r3, [r1]
    8394:	e12fff1e 	bx	lr

00008398 <putchar>:
    8398:	e92d4008 	push	{r3, lr}
    839c:	ebffff84 	bl	81b4 <uart_putc>
    83a0:	e8bd8008 	pop	{r3, pc}

000083a4 <strcat>:
    83a4:	e1a03000 	mov	r3, r0
    83a8:	ea000000 	b	83b0 <strcat+0xc>
    83ac:	e1a0300c 	mov	r3, ip
    83b0:	e283c001 	add	ip, r3, #1
    83b4:	e5d32000 	ldrb	r2, [r3]
    83b8:	e3520000 	cmp	r2, #0
    83bc:	1afffffa 	bne	83ac <strcat+0x8>
    83c0:	e2433001 	sub	r3, r3, #1
    83c4:	e5d12000 	ldrb	r2, [r1]
    83c8:	e5e32001 	strb	r2, [r3, #1]!
    83cc:	e2811001 	add	r1, r1, #1
    83d0:	e3520000 	cmp	r2, #0
    83d4:	1afffffa 	bne	83c4 <strcat+0x20>
    83d8:	e12fff1e 	bx	lr

000083dc <printf>:
    83dc:	e92d000f 	push	{r0, r1, r2, r3}
    83e0:	e92d4070 	push	{r4, r5, r6, lr}
    83e4:	e24dd008 	sub	sp, sp, #8
    83e8:	e28d301c 	add	r3, sp, #28
    83ec:	e58d3004 	str	r3, [sp, #4]
    83f0:	e59f0040 	ldr	r0, [pc, #64]	; 8438 <printf+0x5c>
    83f4:	e3a01b01 	mov	r1, #1024	; 0x400
    83f8:	e59d2018 	ldr	r2, [sp, #24]
    83fc:	eb000074 	bl	85d4 <va_printf>
    8400:	e1a06000 	mov	r6, r0
    8404:	e3a04000 	mov	r4, #0
    8408:	e59f5028 	ldr	r5, [pc, #40]	; 8438 <printf+0x5c>
    840c:	ea000001 	b	8418 <printf+0x3c>
    8410:	ebffffe0 	bl	8398 <putchar>
    8414:	e2844001 	add	r4, r4, #1
    8418:	e7d50004 	ldrb	r0, [r5, r4]
    841c:	e3500000 	cmp	r0, #0
    8420:	1afffffa 	bne	8410 <printf+0x34>
    8424:	e1a00006 	mov	r0, r6
    8428:	e28dd008 	add	sp, sp, #8
    842c:	e8bd4070 	pop	{r4, r5, r6, lr}
    8430:	e28dd010 	add	sp, sp, #16
    8434:	e12fff1e 	bx	lr
    8438:	00008c60 	andeq	r8, r0, r0, ror #24

0000843c <emit>:
    843c:	e92d41f0 	push	{r4, r5, r6, r7, r8, lr}
    8440:	e24dd040 	sub	sp, sp, #64	; 0x40
    8444:	e1a05001 	mov	r5, r1
    8448:	e1a04002 	mov	r4, r2
    844c:	e59d2058 	ldr	r2, [sp, #88]	; 0x58
    8450:	e1520004 	cmp	r2, r4
    8454:	c2442001 	subgt	r2, r4, #1
    8458:	e1a0c003 	mov	ip, r3
    845c:	e2400002 	sub	r0, r0, #2
    8460:	e350000e 	cmp	r0, #14
    8464:	979ff100 	ldrls	pc, [pc, r0, lsl #2]
    8468:	ea000042 	b	8578 <emit+0x13c>
    846c:	00008550 	andeq	r8, r0, r0, asr r5
    8470:	00008578 	andeq	r8, r0, r8, ror r5
    8474:	00008578 	andeq	r8, r0, r8, ror r5
    8478:	00008578 	andeq	r8, r0, r8, ror r5
    847c:	00008578 	andeq	r8, r0, r8, ror r5
    8480:	00008578 	andeq	r8, r0, r8, ror r5
    8484:	00008544 	andeq	r8, r0, r4, asr #10
    8488:	00008578 	andeq	r8, r0, r8, ror r5
    848c:	000084a8 	andeq	r8, r0, r8, lsr #9
    8490:	00008578 	andeq	r8, r0, r8, ror r5
    8494:	00008578 	andeq	r8, r0, r8, ror r5
    8498:	00008578 	andeq	r8, r0, r8, ror r5
    849c:	00008578 	andeq	r8, r0, r8, ror r5
    84a0:	00008578 	andeq	r8, r0, r8, ror r5
    84a4:	0000851c 	andeq	r8, r0, ip, lsl r5
    84a8:	e59d105c 	ldr	r1, [sp, #92]	; 0x5c
    84ac:	e2911000 	adds	r1, r1, #0
    84b0:	13a01001 	movne	r1, #1
    84b4:	e0111fa3 	ands	r1, r1, r3, lsr #31
    84b8:	1263c000 	rsbne	ip, r3, #0
    84bc:	13a08001 	movne	r8, #1
    84c0:	03a08000 	moveq	r8, #0
    84c4:	e1a0100d 	mov	r1, sp
    84c8:	e59f70e8 	ldr	r7, [pc, #232]	; 85b8 <emit+0x17c>
    84cc:	e59f60e8 	ldr	r6, [pc, #232]	; 85bc <emit+0x180>
    84d0:	ea000000 	b	84d8 <emit+0x9c>
    84d4:	e1a01003 	mov	r1, r3
    84d8:	e2813001 	add	r3, r1, #1
    84dc:	e08e0c97 	umull	r0, lr, r7, ip
    84e0:	e1a0e1ae 	lsr	lr, lr, #3
    84e4:	e1a0000e 	mov	r0, lr
    84e8:	e08ee10e 	add	lr, lr, lr, lsl #2
    84ec:	e1a0e08e 	lsl	lr, lr, #1
    84f0:	e06ee00c 	rsb	lr, lr, ip
    84f4:	e7d6c00e 	ldrb	ip, [r6, lr]
    84f8:	e5c1c000 	strb	ip, [r1]
    84fc:	e1a0c000 	mov	ip, r0
    8500:	e3500000 	cmp	r0, #0
    8504:	1afffff2 	bne	84d4 <emit+0x98>
    8508:	e3580000 	cmp	r8, #0
    850c:	12813002 	addne	r3, r1, #2
    8510:	13a0002d 	movne	r0, #45	; 0x2d
    8514:	15c10001 	strbne	r0, [r1, #1]
    8518:	ea00001c 	b	8590 <emit+0x154>
    851c:	e1a0e00d 	mov	lr, sp
    8520:	e59f0098 	ldr	r0, [pc, #152]	; 85c0 <emit+0x184>
    8524:	e28e3001 	add	r3, lr, #1
    8528:	e20c100f 	and	r1, ip, #15
    852c:	e7d01001 	ldrb	r1, [r0, r1]
    8530:	e5ce1000 	strb	r1, [lr]
    8534:	e1a0e003 	mov	lr, r3
    8538:	e1b0c22c 	lsrs	ip, ip, #4
    853c:	1afffff8 	bne	8524 <emit+0xe8>
    8540:	ea000012 	b	8590 <emit+0x154>
    8544:	e5cd3000 	strb	r3, [sp]
    8548:	e28d3001 	add	r3, sp, #1
    854c:	ea00000f 	b	8590 <emit+0x154>
    8550:	e1a0e00d 	mov	lr, sp
    8554:	e59f0068 	ldr	r0, [pc, #104]	; 85c4 <emit+0x188>
    8558:	e28e3001 	add	r3, lr, #1
    855c:	e20c1001 	and	r1, ip, #1
    8560:	e7d01001 	ldrb	r1, [r0, r1]
    8564:	e5ce1000 	strb	r1, [lr]
    8568:	e1a0e003 	mov	lr, r3
    856c:	e1b0c0ac 	lsrs	ip, ip, #1
    8570:	1afffff8 	bne	8558 <emit+0x11c>
    8574:	ea000005 	b	8590 <emit+0x154>
    8578:	e59f0048 	ldr	r0, [pc, #72]	; 85c8 <emit+0x18c>
    857c:	e59f1048 	ldr	r1, [pc, #72]	; 85cc <emit+0x190>
    8580:	e59f2048 	ldr	r2, [pc, #72]	; 85d0 <emit+0x194>
    8584:	e3a0308a 	mov	r3, #138	; 0x8a
    8588:	ebffff93 	bl	83dc <printf>
    858c:	ebffff12 	bl	81dc <reboot>
    8590:	e1a00003 	mov	r0, r3
    8594:	e1a0100d 	mov	r1, sp
    8598:	ebffff63 	bl	832c <pad>
    859c:	e1a02000 	mov	r2, r0
    85a0:	e1a00005 	mov	r0, r5
    85a4:	e1a01004 	mov	r1, r4
    85a8:	e1a0300d 	mov	r3, sp
    85ac:	ebffff69 	bl	8358 <reverse>
    85b0:	e28dd040 	add	sp, sp, #64	; 0x40
    85b4:	e8bd81f0 	pop	{r4, r5, r6, r7, r8, pc}
    85b8:	cccccccd 	stclgt	12, cr12, [ip], {205}	; 0xcd
    85bc:	00008b94 	muleq	r0, r4, fp
    85c0:	00008ba0 	andeq	r8, r0, r0, lsr #23
    85c4:	00008bb4 			; <UNDEFINED> instruction: 0x00008bb4
    85c8:	00008b68 	andeq	r8, r0, r8, ror #22
    85cc:	00008b7c 	andeq	r8, r0, ip, ror fp
    85d0:	00008b54 	andeq	r8, r0, r4, asr fp

000085d4 <va_printf>:
    85d4:	e92d4ff0 	push	{r4, r5, r6, r7, r8, r9, sl, fp, lr}
    85d8:	e24dd08c 	sub	sp, sp, #140	; 0x8c
    85dc:	e1a0a000 	mov	sl, r0
    85e0:	e1a09003 	mov	r9, r3
    85e4:	e2411001 	sub	r1, r1, #1
    85e8:	e0808001 	add	r8, r0, r1
    85ec:	e3a03000 	mov	r3, #0
    85f0:	e5c03000 	strb	r3, [r0]
    85f4:	e1a04000 	mov	r4, r0
    85f8:	e1a0b003 	mov	fp, r3
    85fc:	ea000082 	b	880c <va_printf+0x238>
    8600:	e3530025 	cmp	r3, #37	; 0x25
    8604:	12822001 	addne	r2, r2, #1
    8608:	15c43000 	strbne	r3, [r4]
    860c:	12844001 	addne	r4, r4, #1
    8610:	1a00007d 	bne	880c <va_printf+0x238>
    8614:	e5d21001 	ldrb	r1, [r2, #1]
    8618:	e3510025 	cmp	r1, #37	; 0x25
    861c:	05c43000 	strbeq	r3, [r4]
    8620:	02822002 	addeq	r2, r2, #2
    8624:	02844001 	addeq	r4, r4, #1
    8628:	0a000077 	beq	880c <va_printf+0x238>
    862c:	e2826001 	add	r6, r2, #1
    8630:	e1a0700b 	mov	r7, fp
    8634:	ea000004 	b	864c <va_printf+0x78>
    8638:	e0877107 	add	r7, r7, r7, lsl #2
    863c:	e1a07087 	lsl	r7, r7, #1
    8640:	e0877005 	add	r7, r7, r5
    8644:	e2477030 	sub	r7, r7, #48	; 0x30
    8648:	e2866001 	add	r6, r6, #1
    864c:	e5d65000 	ldrb	r5, [r6]
    8650:	e1a00005 	mov	r0, r5
    8654:	ebffff2e 	bl	8314 <isdigit>
    8658:	e3500000 	cmp	r0, #0
    865c:	1afffff5 	bne	8638 <va_printf+0x64>
    8660:	e357001f 	cmp	r7, #31
    8664:	9a000005 	bls	8680 <va_printf+0xac>
    8668:	e59f01c8 	ldr	r0, [pc, #456]	; 8838 <va_printf+0x264>
    866c:	e59f11c8 	ldr	r1, [pc, #456]	; 883c <va_printf+0x268>
    8670:	e59f21c8 	ldr	r2, [pc, #456]	; 8840 <va_printf+0x26c>
    8674:	e3a030a6 	mov	r3, #166	; 0xa6
    8678:	ebffff57 	bl	83dc <printf>
    867c:	ebfffed6 	bl	81dc <reboot>
    8680:	e2453062 	sub	r3, r5, #98	; 0x62
    8684:	e3530016 	cmp	r3, #22
    8688:	979ff103 	ldrls	pc, [pc, r3, lsl #2]
    868c:	ea00004d 	b	87c8 <va_printf+0x1f4>
    8690:	00008774 	andeq	r8, r0, r4, ror r7
    8694:	000087a4 	andeq	r8, r0, r4, lsr #15
    8698:	00008704 	andeq	r8, r0, r4, lsl #14
    869c:	000087c8 	andeq	r8, r0, r8, asr #15
    86a0:	000086ec 	andeq	r8, r0, ip, ror #13
    86a4:	000087c8 	andeq	r8, r0, r8, asr #15
    86a8:	000087c8 	andeq	r8, r0, r8, asr #15
    86ac:	000087c8 	andeq	r8, r0, r8, asr #15
    86b0:	000087c8 	andeq	r8, r0, r8, asr #15
    86b4:	000087c8 	andeq	r8, r0, r8, asr #15
    86b8:	000087c8 	andeq	r8, r0, r8, asr #15
    86bc:	000087c8 	andeq	r8, r0, r8, asr #15
    86c0:	000087c8 	andeq	r8, r0, r8, asr #15
    86c4:	000087c8 	andeq	r8, r0, r8, asr #15
    86c8:	00008750 	andeq	r8, r0, r0, asr r7
    86cc:	000087c8 	andeq	r8, r0, r8, asr #15
    86d0:	000087c8 	andeq	r8, r0, r8, asr #15
    86d4:	00008798 	muleq	r0, r8, r7
    86d8:	000087c8 	andeq	r8, r0, r8, asr #15
    86dc:	0000872c 	andeq	r8, r0, ip, lsr #14
    86e0:	000087c8 	andeq	r8, r0, r8, asr #15
    86e4:	000087c8 	andeq	r8, r0, r8, asr #15
    86e8:	00008750 	andeq	r8, r0, r0, asr r7
    86ec:	e59f0150 	ldr	r0, [pc, #336]	; 8844 <va_printf+0x270>
    86f0:	e59f1144 	ldr	r1, [pc, #324]	; 883c <va_printf+0x268>
    86f4:	e59f2144 	ldr	r2, [pc, #324]	; 8840 <va_printf+0x26c>
    86f8:	e3a030ac 	mov	r3, #172	; 0xac
    86fc:	ebffff36 	bl	83dc <printf>
    8700:	ebfffeb5 	bl	81dc <reboot>
    8704:	e5993000 	ldr	r3, [r9]
    8708:	e2899004 	add	r9, r9, #4
    870c:	e58d7000 	str	r7, [sp]
    8710:	e3a02001 	mov	r2, #1
    8714:	e58d2004 	str	r2, [sp, #4]
    8718:	e3a0000a 	mov	r0, #10
    871c:	e28d1008 	add	r1, sp, #8
    8720:	e3a02080 	mov	r2, #128	; 0x80
    8724:	ebffff44 	bl	843c <emit>
    8728:	ea00002d 	b	87e4 <va_printf+0x210>
    872c:	e5993000 	ldr	r3, [r9]
    8730:	e2899004 	add	r9, r9, #4
    8734:	e58d7000 	str	r7, [sp]
    8738:	e58db004 	str	fp, [sp, #4]
    873c:	e3a0000a 	mov	r0, #10
    8740:	e28d1008 	add	r1, sp, #8
    8744:	e3a02080 	mov	r2, #128	; 0x80
    8748:	ebffff3b 	bl	843c <emit>
    874c:	ea000024 	b	87e4 <va_printf+0x210>
    8750:	e5993000 	ldr	r3, [r9]
    8754:	e2899004 	add	r9, r9, #4
    8758:	e58d7000 	str	r7, [sp]
    875c:	e58db004 	str	fp, [sp, #4]
    8760:	e3a00010 	mov	r0, #16
    8764:	e28d1008 	add	r1, sp, #8
    8768:	e3a02080 	mov	r2, #128	; 0x80
    876c:	ebffff32 	bl	843c <emit>
    8770:	ea00001b 	b	87e4 <va_printf+0x210>
    8774:	e5993000 	ldr	r3, [r9]
    8778:	e2899004 	add	r9, r9, #4
    877c:	e58d7000 	str	r7, [sp]
    8780:	e58db004 	str	fp, [sp, #4]
    8784:	e3a00002 	mov	r0, #2
    8788:	e28d1008 	add	r1, sp, #8
    878c:	e3a02080 	mov	r2, #128	; 0x80
    8790:	ebffff29 	bl	843c <emit>
    8794:	ea000012 	b	87e4 <va_printf+0x210>
    8798:	e5990000 	ldr	r0, [r9]
    879c:	e2899004 	add	r9, r9, #4
    87a0:	ea00000f 	b	87e4 <va_printf+0x210>
    87a4:	e5993000 	ldr	r3, [r9]
    87a8:	e2899004 	add	r9, r9, #4
    87ac:	e58d7000 	str	r7, [sp]
    87b0:	e58db004 	str	fp, [sp, #4]
    87b4:	e3a00008 	mov	r0, #8
    87b8:	e08d1000 	add	r1, sp, r0
    87bc:	e3a02080 	mov	r2, #128	; 0x80
    87c0:	ebffff1d 	bl	843c <emit>
    87c4:	ea000006 	b	87e4 <va_printf+0x210>
    87c8:	e58d5000 	str	r5, [sp]
    87cc:	e59f0074 	ldr	r0, [pc, #116]	; 8848 <va_printf+0x274>
    87d0:	e59f1064 	ldr	r1, [pc, #100]	; 883c <va_printf+0x268>
    87d4:	e59f2064 	ldr	r2, [pc, #100]	; 8840 <va_printf+0x26c>
    87d8:	e3a030cd 	mov	r3, #205	; 0xcd
    87dc:	ebfffefe 	bl	83dc <printf>
    87e0:	ebfffe7d 	bl	81dc <reboot>
    87e4:	e2862001 	add	r2, r6, #1
    87e8:	ea000002 	b	87f8 <va_printf+0x224>
    87ec:	e2800001 	add	r0, r0, #1
    87f0:	e5c43000 	strb	r3, [r4]
    87f4:	e2844001 	add	r4, r4, #1
    87f8:	e1540008 	cmp	r4, r8
    87fc:	2a000002 	bcs	880c <va_printf+0x238>
    8800:	e5d03000 	ldrb	r3, [r0]
    8804:	e3530000 	cmp	r3, #0
    8808:	1afffff7 	bne	87ec <va_printf+0x218>
    880c:	e5d23000 	ldrb	r3, [r2]
    8810:	e3530000 	cmp	r3, #0
    8814:	0a000001 	beq	8820 <va_printf+0x24c>
    8818:	e1540008 	cmp	r4, r8
    881c:	3affff77 	bcc	8600 <va_printf+0x2c>
    8820:	e2840001 	add	r0, r4, #1
    8824:	e3a03000 	mov	r3, #0
    8828:	e5c43000 	strb	r3, [r4]
    882c:	e06a0000 	rsb	r0, sl, r0
    8830:	e28dd08c 	add	sp, sp, #140	; 0x8c
    8834:	e8bd8ff0 	pop	{r4, r5, r6, r7, r8, r9, sl, fp, pc}
    8838:	00008bb8 			; <UNDEFINED> instruction: 0x00008bb8
    883c:	00008b7c 	andeq	r8, r0, ip, ror fp
    8840:	00008b5c 	andeq	r8, r0, ip, asr fp
    8844:	00008bd4 	ldrdeq	r8, [r0], -r4
    8848:	00008bfc 	strdeq	r8, [r0], -ip

0000884c <snprintf>:
    884c:	e92d000c 	push	{r2, r3}
    8850:	e52de004 	push	{lr}		; (str lr, [sp, #-4]!)
    8854:	e24dd00c 	sub	sp, sp, #12
    8858:	e28d3014 	add	r3, sp, #20
    885c:	e58d3004 	str	r3, [sp, #4]
    8860:	e59d2010 	ldr	r2, [sp, #16]
    8864:	ebffff5a 	bl	85d4 <va_printf>
    8868:	e28dd00c 	add	sp, sp, #12
    886c:	e49de004 	pop	{lr}		; (ldr lr, [sp], #4)
    8870:	e28dd008 	add	sp, sp, #8
    8874:	e12fff1e 	bx	lr

00008878 <puts>:
    8878:	e92d4010 	push	{r4, lr}
    887c:	e1a04000 	mov	r4, r0
    8880:	ea000001 	b	888c <puts+0x14>
    8884:	ebfffec3 	bl	8398 <putchar>
    8888:	e2844001 	add	r4, r4, #1
    888c:	e5d40000 	ldrb	r0, [r4]
    8890:	e3500000 	cmp	r0, #0
    8894:	1afffffa 	bne	8884 <puts+0xc>
    8898:	e8bd8010 	pop	{r4, pc}

0000889c <panic>:
    889c:	e92d4008 	push	{r3, lr}
    88a0:	e1a06000 	mov	r6, r0
    88a4:	e1a05001 	mov	r5, r1
    88a8:	e1a04002 	mov	r4, r2
    88ac:	e59f0018 	ldr	r0, [pc, #24]	; 88cc <panic+0x30>
    88b0:	ebfffff0 	bl	8878 <puts>
    88b4:	e59f0014 	ldr	r0, [pc, #20]	; 88d0 <panic+0x34>
    88b8:	e1a01006 	mov	r1, r6
    88bc:	e1a02005 	mov	r2, r5
    88c0:	e1a03004 	mov	r3, r4
    88c4:	ebfffec4 	bl	83dc <printf>
    88c8:	ebfffe43 	bl	81dc <reboot>
    88cc:	00008c34 	andeq	r8, r0, r4, lsr ip
    88d0:	00008c40 	andeq	r8, r0, r0, asr #24
    88d4:	6f697067 	svcvs	0x00697067
    88d8:	696e695f 	stmdbvs	lr!, {r0, r1, r2, r3, r4, r6, r8, fp, sp, lr}^
    88dc:	00000074 	andeq	r0, r0, r4, ror r0
    88e0:	ff00000c 			; <UNDEFINED> instruction: 0xff00000c

000088e4 <gpio_init>:
    88e4:	e1a0c00d 	mov	ip, sp
    88e8:	e92dd800 	push	{fp, ip, lr, pc}
    88ec:	e24cb004 	sub	fp, ip, #4
    88f0:	e24bd00c 	sub	sp, fp, #12
    88f4:	e89d6800 	ldm	sp, {fp, sp, lr}
    88f8:	e12fff1e 	bx	lr
    88fc:	6f697067 	svcvs	0x00697067
    8900:	7465735f 	strbtvc	r7, [r5], #-863	; 0x35f
    8904:	6e75665f 	mrcvs	6, 3, r6, cr5, cr15, {2}
    8908:	6f697463 	svcvs	0x00697463
    890c:	0000006e 	andeq	r0, r0, lr, rrx
    8910:	ff000014 			; <UNDEFINED> instruction: 0xff000014

00008914 <gpio_set_function>:
    8914:	e1a0c00d 	mov	ip, sp
    8918:	e92dd800 	push	{fp, ip, lr, pc}
    891c:	e24cb004 	sub	fp, ip, #4
    8920:	e3500035 	cmp	r0, #53	; 0x35
    8924:	8a00000f 	bhi	8968 <gpio_set_function+0x54>
    8928:	e3510007 	cmp	r1, #7
    892c:	8a00000d 	bhi	8968 <gpio_set_function+0x54>
    8930:	e59fc03c 	ldr	ip, [pc, #60]	; 8974 <gpio_set_function+0x60>
    8934:	e0832c90 	umull	r2, r3, r0, ip
    8938:	e1a021a3 	lsr	r2, r3, #3
    893c:	e082c102 	add	ip, r2, r2, lsl #2
    8940:	e1a0308c 	lsl	r3, ip, #1
    8944:	e0403003 	sub	r3, r0, r3
    8948:	e0833083 	add	r3, r3, r3, lsl #1
    894c:	e59fc024 	ldr	ip, [pc, #36]	; 8978 <gpio_set_function+0x64>
    8950:	e79c0102 	ldr	r0, [ip, r2, lsl #2]
    8954:	e3a0e007 	mov	lr, #7
    8958:	e1c0031e 	bic	r0, r0, lr, lsl r3
    895c:	e001100e 	and	r1, r1, lr
    8960:	e1803311 	orr	r3, r0, r1, lsl r3
    8964:	e78c3102 	str	r3, [ip, r2, lsl #2]
    8968:	e24bd00c 	sub	sp, fp, #12
    896c:	e89d6800 	ldm	sp, {fp, sp, lr}
    8970:	e12fff1e 	bx	lr
    8974:	cccccccd 	stclgt	12, cr12, [ip], {205}	; 0xcd
    8978:	20200000 	eorcs	r0, r0, r0
    897c:	6f697067 	svcvs	0x00697067
    8980:	7465675f 	strbtvc	r6, [r5], #-1887	; 0x75f
    8984:	6e75665f 	mrcvs	6, 3, r6, cr5, cr15, {2}
    8988:	6f697463 	svcvs	0x00697463
    898c:	0000006e 	andeq	r0, r0, lr, rrx
    8990:	ff000014 			; <UNDEFINED> instruction: 0xff000014

00008994 <gpio_get_function>:
    8994:	e1a0c00d 	mov	ip, sp
    8998:	e92dd800 	push	{fp, ip, lr, pc}
    899c:	e24cb004 	sub	fp, ip, #4
    89a0:	e3500035 	cmp	r0, #53	; 0x35
    89a4:	8a00000d 	bhi	89e0 <gpio_get_function+0x4c>
    89a8:	e59f1038 	ldr	r1, [pc, #56]	; 89e8 <gpio_get_function+0x54>
    89ac:	e0832190 	umull	r2, r3, r0, r1
    89b0:	e1a021a3 	lsr	r2, r3, #3
    89b4:	e0821102 	add	r1, r2, r2, lsl #2
    89b8:	e1a03081 	lsl	r3, r1, #1
    89bc:	e0403003 	sub	r3, r0, r3
    89c0:	e0833083 	add	r3, r3, r3, lsl #1
    89c4:	e59f1020 	ldr	r1, [pc, #32]	; 89ec <gpio_get_function+0x58>
    89c8:	e7910102 	ldr	r0, [r1, r2, lsl #2]
    89cc:	e1a03330 	lsr	r3, r0, r3
    89d0:	e2030007 	and	r0, r3, #7
    89d4:	e24bd00c 	sub	sp, fp, #12
    89d8:	e89d6800 	ldm	sp, {fp, sp, lr}
    89dc:	e12fff1e 	bx	lr
    89e0:	e3e00000 	mvn	r0, #0
    89e4:	eafffffa 	b	89d4 <gpio_get_function+0x40>
    89e8:	cccccccd 	stclgt	12, cr12, [ip], {205}	; 0xcd
    89ec:	20200000 	eorcs	r0, r0, r0
    89f0:	6f697067 	svcvs	0x00697067
    89f4:	7465735f 	strbtvc	r7, [r5], #-863	; 0x35f
    89f8:	706e695f 	rsbvc	r6, lr, pc, asr r9
    89fc:	00007475 	andeq	r7, r0, r5, ror r4
    8a00:	ff000010 			; <UNDEFINED> instruction: 0xff000010

00008a04 <gpio_set_input>:
    8a04:	e1a0c00d 	mov	ip, sp
    8a08:	e92dd800 	push	{fp, ip, lr, pc}
    8a0c:	e24cb004 	sub	fp, ip, #4
    8a10:	e3a01000 	mov	r1, #0
    8a14:	ebffffbe 	bl	8914 <gpio_set_function>
    8a18:	e24bd00c 	sub	sp, fp, #12
    8a1c:	e89d6800 	ldm	sp, {fp, sp, lr}
    8a20:	e12fff1e 	bx	lr
    8a24:	6f697067 	svcvs	0x00697067
    8a28:	7465735f 	strbtvc	r7, [r5], #-863	; 0x35f
    8a2c:	74756f5f 	ldrbtvc	r6, [r5], #-3935	; 0xf5f
    8a30:	00747570 	rsbseq	r7, r4, r0, ror r5
    8a34:	ff000010 			; <UNDEFINED> instruction: 0xff000010

00008a38 <gpio_set_output>:
    8a38:	e1a0c00d 	mov	ip, sp
    8a3c:	e92dd800 	push	{fp, ip, lr, pc}
    8a40:	e24cb004 	sub	fp, ip, #4
    8a44:	e3a01001 	mov	r1, #1
    8a48:	ebffffb1 	bl	8914 <gpio_set_function>
    8a4c:	e24bd00c 	sub	sp, fp, #12
    8a50:	e89d6800 	ldm	sp, {fp, sp, lr}
    8a54:	e12fff1e 	bx	lr
    8a58:	6f697067 	svcvs	0x00697067
    8a5c:	6972775f 	ldmdbvs	r2!, {r0, r1, r2, r3, r4, r6, r8, r9, sl, ip, sp, lr}^
    8a60:	00006574 	andeq	r6, r0, r4, ror r5
    8a64:	ff00000c 			; <UNDEFINED> instruction: 0xff00000c

00008a68 <gpio_write>:
    8a68:	e1a0c00d 	mov	ip, sp
    8a6c:	e92dd800 	push	{fp, ip, lr, pc}
    8a70:	e24cb004 	sub	fp, ip, #4
    8a74:	e3500035 	cmp	r0, #53	; 0x35
    8a78:	8a000008 	bhi	8aa0 <gpio_write+0x38>
    8a7c:	e1a032a0 	lsr	r3, r0, #5
    8a80:	e200001f 	and	r0, r0, #31
    8a84:	e3510000 	cmp	r1, #0
    8a88:	1a000007 	bne	8aac <gpio_write+0x44>
    8a8c:	e3a02001 	mov	r2, #1
    8a90:	e1a00012 	lsl	r0, r2, r0
    8a94:	e283300a 	add	r3, r3, #10
    8a98:	e59f202c 	ldr	r2, [pc, #44]	; 8acc <gpio_write+0x64>
    8a9c:	e7820103 	str	r0, [r2, r3, lsl #2]
    8aa0:	e24bd00c 	sub	sp, fp, #12
    8aa4:	e89d6800 	ldm	sp, {fp, sp, lr}
    8aa8:	e12fff1e 	bx	lr
    8aac:	e3a02001 	mov	r2, #1
    8ab0:	e1a00012 	lsl	r0, r2, r0
    8ab4:	e2833006 	add	r3, r3, #6
    8ab8:	e1a03103 	lsl	r3, r3, #2
    8abc:	e2833202 	add	r3, r3, #536870912	; 0x20000000
    8ac0:	e2833602 	add	r3, r3, #2097152	; 0x200000
    8ac4:	e5830004 	str	r0, [r3, #4]
    8ac8:	eafffff4 	b	8aa0 <gpio_write+0x38>
    8acc:	20200000 	eorcs	r0, r0, r0
    8ad0:	6f697067 	svcvs	0x00697067
    8ad4:	6165725f 	cmnvs	r5, pc, asr r2
    8ad8:	00000064 	andeq	r0, r0, r4, rrx
    8adc:	ff00000c 			; <UNDEFINED> instruction: 0xff00000c

00008ae0 <gpio_read>:
    8ae0:	e1a0c00d 	mov	ip, sp
    8ae4:	e92dd800 	push	{fp, ip, lr, pc}
    8ae8:	e24cb004 	sub	fp, ip, #4
    8aec:	e3500035 	cmp	r0, #53	; 0x35
    8af0:	8a00000d 	bhi	8b2c <gpio_read+0x4c>
    8af4:	e1a032a0 	lsr	r3, r0, #5
    8af8:	e200001f 	and	r0, r0, #31
    8afc:	e283300c 	add	r3, r3, #12
    8b00:	e1a03103 	lsl	r3, r3, #2
    8b04:	e2833202 	add	r3, r3, #536870912	; 0x20000000
    8b08:	e2833602 	add	r3, r3, #2097152	; 0x200000
    8b0c:	e5933004 	ldr	r3, [r3, #4]
    8b10:	e3a02001 	mov	r2, #1
    8b14:	e0133012 	ands	r3, r3, r2, lsl r0
    8b18:	11a00002 	movne	r0, r2
    8b1c:	03a00000 	moveq	r0, #0
    8b20:	e24bd00c 	sub	sp, fp, #12
    8b24:	e89d6800 	ldm	sp, {fp, sp, lr}
    8b28:	e12fff1e 	bx	lr
    8b2c:	e3e00000 	mvn	r0, #0
    8b30:	eafffffa 	b	8b20 <gpio_read+0x40>

Disassembly of section .data:

00008b34 <aux_enables>:
    8b34:	20215004 	eorcs	r5, r1, r4

Disassembly of section .rodata:

00008b38 <__FUNCTION__.3714-0x1c>:
    8b38:	6c6c6568 	cfstr64vs	mvdx6, [ip], #-416	; 0xfffffe60
    8b3c:	6f77206f 	svcvs	0x0077206f
    8b40:	0a646c72 	beq	1923d10 <__bss_end__+0x191acb0>
    8b44:	00000000 	andeq	r0, r0, r0
    8b48:	454e4f44 	strbmi	r4, [lr, #-3908]	; 0xf44
    8b4c:	0a212121 	beq	850fd8 <__bss_end__+0x847f78>
    8b50:	00000000 	andeq	r0, r0, r0

00008b54 <__FUNCTION__.3714>:
    8b54:	74696d65 	strbtvc	r6, [r9], #-3429	; 0xd65
    8b58:	00000000 	andeq	r0, r0, r0

00008b5c <__FUNCTION__.3729>:
    8b5c:	705f6176 	subsvc	r6, pc, r6, ror r1	; <UNPREDICTABLE>
    8b60:	746e6972 	strbtvc	r6, [lr], #-2418	; 0x972
    8b64:	00000066 	andeq	r0, r0, r6, rrx
    8b68:	494e4150 	stmdbmi	lr, {r4, r6, r8, lr}^
    8b6c:	73253a43 	teqvc	r5, #274432	; 0x43000
    8b70:	3a73253a 	bcc	1cd2060 <__bss_end__+0x1cc9000>
    8b74:	303a6425 	eorscc	r6, sl, r5, lsr #8
    8b78:	0000000a 	andeq	r0, r0, sl
    8b7c:	7062696c 	rsbvc	r6, r2, ip, ror #18
    8b80:	75732e69 	ldrbvc	r2, [r3, #-3689]!	; 0xe69
    8b84:	726f7070 	rsbvc	r7, pc, #112	; 0x70
    8b88:	72702f74 	rsbsvc	r2, r0, #116, 30	; 0x1d0
    8b8c:	66746e69 	ldrbtvs	r6, [r4], -r9, ror #28
    8b90:	0000632e 	andeq	r6, r0, lr, lsr #6
    8b94:	33323130 	teqcc	r2, #48, 2
    8b98:	37363534 			; <UNDEFINED> instruction: 0x37363534
    8b9c:	00003938 	andeq	r3, r0, r8, lsr r9
    8ba0:	33323130 	teqcc	r2, #48, 2
    8ba4:	37363534 			; <UNDEFINED> instruction: 0x37363534
    8ba8:	62613938 	rsbvs	r3, r1, #56, 18	; 0xe0000
    8bac:	66656463 	strbtvs	r6, [r5], -r3, ror #8
    8bb0:	00000000 	andeq	r0, r0, r0
    8bb4:	00003130 	andeq	r3, r0, r0, lsr r1
    8bb8:	494e4150 	stmdbmi	lr, {r4, r6, r8, lr}^
    8bbc:	73253a43 	teqvc	r5, #274432	; 0x43000
    8bc0:	3a73253a 	bcc	1cd20b0 <__bss_end__+0x1cc9050>
    8bc4:	773a6425 	ldrvc	r6, [sl, -r5, lsr #8]!
    8bc8:	68746469 	ldmdavs	r4!, {r0, r3, r5, r6, sl, sp, lr}^
    8bcc:	33203c20 	teqcc	r0, #32, 24	; 0x2000
    8bd0:	00000a32 	andeq	r0, r0, r2, lsr sl
    8bd4:	494e4150 	stmdbmi	lr, {r4, r6, r8, lr}^
    8bd8:	73253a43 	teqvc	r5, #274432	; 0x43000
    8bdc:	3a73253a 	bcc	1cd20cc <__bss_end__+0x1cc906c>
    8be0:	663a6425 	ldrtvs	r6, [sl], -r5, lsr #8
    8be4:	74616f6c 	strbtvc	r6, [r1], #-3948	; 0xf6c
    8be8:	746f6e20 	strbtvc	r6, [pc], #-3616	; 8bf0 <__FUNCTION__.3729+0x94>
    8bec:	616e6520 	cmnvs	lr, r0, lsr #10
    8bf0:	64656c62 	strbtvs	r6, [r5], #-3170	; 0xc62
    8bf4:	0a212121 	beq	851080 <__bss_end__+0x848020>
    8bf8:	00000000 	andeq	r0, r0, r0
    8bfc:	494e4150 	stmdbmi	lr, {r4, r6, r8, lr}^
    8c00:	73253a43 	teqvc	r5, #274432	; 0x43000
    8c04:	3a73253a 	bcc	1cd20f4 <__bss_end__+0x1cc9094>
    8c08:	703a6425 	eorsvc	r6, sl, r5, lsr #8
    8c0c:	746e6972 	strbtvc	r6, [lr], #-2418	; 0x972
    8c10:	6e203a66 	vnmulvs.f32	s6, s0, s13
    8c14:	6820746f 	stmdavs	r0!, {r0, r1, r2, r3, r5, r6, sl, ip, sp, lr}
    8c18:	6c646e61 	stclvs	14, cr6, [r4], #-388	; 0xfffffe7c
    8c1c:	20676e69 	rsbcs	r6, r7, r9, ror #28
    8c20:	63657073 	cmnvs	r5, #115	; 0x73
    8c24:	65696669 	strbvs	r6, [r9, #-1641]!	; 0x669
    8c28:	25272072 	strcs	r2, [r7, #-114]!	; 0x72
    8c2c:	0a0a2763 	beq	2929c0 <__bss_end__+0x289960>
    8c30:	00000000 	andeq	r0, r0, r0
    8c34:	4e41503c 	mcrmi	0, 2, r5, cr1, cr12, {1}
    8c38:	3a3e4349 	bcc	f99964 <__bss_end__+0xf90904>
    8c3c:	00000000 	andeq	r0, r0, r0
    8c40:	253a7325 	ldrcs	r7, [sl, #-805]!	; 0x325
    8c44:	50203a64 	eorpl	r3, r0, r4, ror #20
    8c48:	43494e41 	movtmi	r4, #40513	; 0x9e41
    8c4c:	4e415020 	cdpmi	0, 4, cr5, cr1, cr0, {1}
    8c50:	50204349 	eorpl	r4, r0, r9, asr #6
    8c54:	43494e41 	movtmi	r4, #40513	; 0x9e41
    8c58:	7325203a 	teqvc	r5, #58	; 0x3a
    8c5c:	0000000a 	andeq	r0, r0, sl

Disassembly of section .bss:

00008c60 <__bss_start__>:
	...

Disassembly of section .ARM.attributes:

00000000 <.ARM.attributes>:
   0:	00002641 	andeq	r2, r0, r1, asr #12
   4:	61656100 	cmnvs	r5, r0, lsl #2
   8:	01006962 	tsteq	r0, r2, ror #18
   c:	0000001c 	andeq	r0, r0, ip, lsl r0
  10:	06003605 	streq	r3, [r0], -r5, lsl #12
  14:	09010806 	stmdbeq	r1, {r1, r2, fp}
  18:	14041201 	strne	r1, [r4], #-513	; 0x201
  1c:	17011501 	strne	r1, [r1, -r1, lsl #10]
  20:	1a011803 	bne	46034 <__bss_end__+0x3cfd4>
  24:	Address 0x0000000000000024 is out of bounds.


Disassembly of section .comment:

00000000 <.comment>:
   0:	3a434347 	bcc	10d0d24 <__bss_end__+0x10c7cc4>
   4:	4e472820 	cdpmi	8, 4, cr2, cr7, cr0, {1}
   8:	34202955 	strtcc	r2, [r0], #-2389	; 0x955
   c:	332e382e 	teqcc	lr, #3014656	; 0x2e0000
  10:	43434700 	movtmi	r4, #14080	; 0x3700
  14:	4728203a 			; <UNDEFINED> instruction: 0x4728203a
  18:	5420554e 	strtpl	r5, [r0], #-1358	; 0x54e
  1c:	736c6f6f 	cmnvc	ip, #444	; 0x1bc
  20:	726f6620 	rsbvc	r6, pc, #32, 12	; 0x2000000
  24:	6d724120 	ldfvse	f4, [r2, #-128]!	; 0xffffff80
  28:	626d4520 	rsbvs	r4, sp, #32, 10	; 0x8000000
  2c:	65646465 	strbvs	r6, [r4, #-1125]!	; 0x465
  30:	72502064 	subsvc	r2, r0, #100	; 0x64
  34:	7365636f 	cmnvc	r5, #-1140850687	; 0xbc000001
  38:	73726f73 	cmnvc	r2, #460	; 0x1cc
  3c:	322d3720 	eorcc	r3, sp, #32, 14	; 0x800000
  40:	2d373130 	ldfcss	f3, [r7, #-192]!	; 0xffffff40
  44:	6d2d3471 	cfstrsvs	mvf3, [sp, #-452]!	; 0xfffffe3c
  48:	726f6a61 	rsbvc	r6, pc, #397312	; 0x61000
  4c:	2e372029 	cdpcs	0, 3, cr2, cr7, cr9, {1}
  50:	20312e32 	eorscs	r2, r1, r2, lsr lr
  54:	37313032 			; <UNDEFINED> instruction: 0x37313032
  58:	34303930 	ldrtcc	r3, [r0], #-2352	; 0x930
  5c:	65722820 	ldrbvs	r2, [r2, #-2080]!	; 0x820
  60:	7361656c 	cmnvc	r1, #108, 10	; 0x1b000000
  64:	5b202965 	blpl	80a600 <__bss_end__+0x8015a0>
  68:	2f4d5241 	svccs	0x004d5241
  6c:	65626d65 	strbvs	r6, [r2, #-3429]!	; 0xd65
  70:	64656464 	strbtvs	r6, [r5], #-1124	; 0x464
  74:	622d372d 	eorvs	r3, sp, #11796480	; 0xb40000
  78:	636e6172 	cmnvs	lr, #-2147483620	; 0x8000001c
  7c:	65722068 	ldrbvs	r2, [r2, #-104]!	; 0x68
  80:	69736976 	ldmdbvs	r3!, {r1, r2, r4, r5, r6, r8, fp, sp, lr}^
  84:	32206e6f 	eorcc	r6, r0, #1776	; 0x6f0
  88:	30323535 	eorscc	r3, r2, r5, lsr r5
  8c:	Address 0x000000000000008c is out of bounds.


Disassembly of section .debug_info:

00000000 <.debug_info>:
   0:	00000530 	andeq	r0, r0, r0, lsr r5
   4:	00000004 	andeq	r0, r0, r4
   8:	01040000 	mrseq	r0, (UNDEF: 4)
   c:	000000fe 	strdeq	r0, [r0], -lr
  10:	0004360c 	andeq	r3, r4, ip, lsl #12
  14:	d4002e00 	strle	r2, [r0], #-3584	; 0xe00
  18:	60000088 	andvs	r0, r0, r8, lsl #1
  1c:	00000002 	andeq	r0, r0, r2
  20:	02000000 	andeq	r0, r0, #0
  24:	01810107 	orreq	r0, r1, r7, lsl #2
  28:	18020000 	stmdane	r2, {}	; <UNPREDICTABLE>
  2c:	00000181 	andeq	r0, r0, r1, lsl #3
  30:	00030003 	andeq	r0, r3, r3
  34:	91030000 	mrsls	r0, (UNDEF: 3)
  38:	00000003 	andeq	r0, r0, r3
  3c:	00039b03 	andeq	r9, r3, r3, lsl #22
  40:	a5030100 	strge	r0, [r3, #-256]	; 0x100
  44:	02000003 	andeq	r0, r0, #3
  48:	0003af03 	andeq	sl, r3, r3, lsl #30
  4c:	b9030300 	stmdblt	r3, {r8, r9}
  50:	04000003 	streq	r0, [r0], #-3
  54:	0003c303 	andeq	ip, r3, r3, lsl #6
  58:	cd030500 	cfstr32gt	mvfx0, [r3, #-0]
  5c:	06000003 	streq	r0, [r0], -r3
  60:	0003d703 	andeq	sp, r3, r3, lsl #14
  64:	e1030700 	tst	r3, r0, lsl #14
  68:	08000003 	stmdaeq	r0, {r0, r1}
  6c:	0003eb03 	andeq	lr, r3, r3, lsl #22
  70:	3d030900 	stccc	9, cr0, [r3, #-0]
  74:	0a000002 	beq	84 <_start-0x7f7c>
  78:	00024803 	andeq	r4, r2, r3, lsl #16
  7c:	53030b00 	movwpl	r0, #15104	; 0x3b00
  80:	0c000002 	stceq	0, cr0, [r0], {2}
  84:	00025e03 	andeq	r5, r2, r3, lsl #28
  88:	69030d00 	stmdbvs	r3, {r8, sl, fp}
  8c:	0e000002 	cdpeq	0, 0, cr0, cr0, cr2, {0}
  90:	00027403 	andeq	r7, r2, r3, lsl #8
  94:	7f030f00 	svcvc	0x00030f00
  98:	10000002 	andne	r0, r0, r2
  9c:	00028a03 	andeq	r8, r2, r3, lsl #20
  a0:	95031100 	strls	r1, [r3, #-256]	; 0x100
  a4:	12000002 	andne	r0, r0, #2
  a8:	0002a003 	andeq	sl, r2, r3
  ac:	ff031300 			; <UNDEFINED> instruction: 0xff031300
  b0:	14000003 	strne	r0, [r0], #-3
  b4:	00040a03 	andeq	r0, r4, r3, lsl #20
  b8:	15031500 	strne	r1, [r3, #-1280]	; 0x500
  bc:	16000004 	strne	r0, [r0], -r4
  c0:	00042003 	andeq	r2, r4, r3
  c4:	2b031700 	blcs	c5ccc <__bss_end__+0xbcc6c>
  c8:	18000004 	stmdane	r0, {r2}
  cc:	0002ba03 	andeq	fp, r2, r3, lsl #20
  d0:	3d031900 	stccc	9, cr1, [r3, #-0]
  d4:	1a000004 	bne	ec <_start-0x7f14>
  d8:	00044803 	andeq	r4, r4, r3, lsl #16
  dc:	53031b00 	movwpl	r1, #15104	; 0x3b00
  e0:	1c000004 	stcne	0, cr0, [r0], {4}
  e4:	00045e03 	andeq	r5, r4, r3, lsl #28
  e8:	3f031d00 	svccc	0x00031d00
  ec:	1e000000 	cdpne	0, 0, cr0, cr0, cr0, {0}
  f0:	00004a03 	andeq	r4, r0, r3, lsl #20
  f4:	55031f00 	strpl	r1, [r3, #-3840]	; 0xf00
  f8:	20000000 	andcs	r0, r0, r0
  fc:	00006003 	andeq	r6, r0, r3
 100:	6b032100 	blvs	c8508 <__bss_end__+0xbf4a8>
 104:	22000000 	andcs	r0, r0, #0
 108:	00007603 	andeq	r7, r0, r3, lsl #12
 10c:	81032300 	mrshi	r2, SP_svc
 110:	24000000 	strcs	r0, [r0], #-0
 114:	00008c03 	andeq	r8, r0, r3, lsl #24
 118:	97032500 	strls	r2, [r3, -r0, lsl #10]
 11c:	26000000 	strcs	r0, [r0], -r0
 120:	0000a203 	andeq	sl, r0, r3, lsl #4
 124:	73032700 	movwvc	r2, #14080	; 0x3700
 128:	28000001 	stmdacs	r0, {r0}
 12c:	00017e03 	andeq	r7, r1, r3, lsl #28
 130:	89032900 	stmdbhi	r3, {r8, fp, sp}
 134:	2a000001 	bcs	140 <_start-0x7ec0>
 138:	00019403 	andeq	r9, r1, r3, lsl #8
 13c:	9f032b00 	svcls	0x00032b00
 140:	2c000001 	stccs	0, cr0, [r0], {1}
 144:	0001aa03 	andeq	sl, r1, r3, lsl #20
 148:	b5032d00 	strlt	r2, [r3, #-3328]	; 0xd00
 14c:	2e000001 	cdpcs	0, 0, cr0, cr0, cr1, {0}
 150:	0001c003 	andeq	ip, r1, r3
 154:	cb032f00 	blgt	cbd5c <__bss_end__+0xc2cfc>
 158:	30000001 	andcc	r0, r0, r1
 15c:	0001d603 	andeq	sp, r1, r3, lsl #12
 160:	c5033100 	strgt	r3, [r3, #-256]	; 0x100
 164:	32000002 	andcc	r0, r0, #2
 168:	0002d003 	andeq	sp, r2, r3
 16c:	db033300 	blle	ccd74 <__bss_end__+0xc3d14>
 170:	34000002 	strcc	r0, [r0], #-2
 174:	0002e603 	andeq	lr, r2, r3, lsl #12
 178:	cb033500 	blgt	cd580 <__bss_end__+0xc4520>
 17c:	35000000 	strcc	r0, [r0, #-0]
 180:	08010400 	stmdaeq	r1, {sl}
 184:	000001e1 	andeq	r0, r0, r1, ror #3
 188:	81010702 	tsthi	r1, r2, lsl #14
 18c:	02000001 	andeq	r0, r0, #1
 190:	0001c65d 	andeq	ip, r1, sp, asr r6
 194:	01ef0300 	mvneq	r0, r0, lsl #6
 198:	03000000 	movweq	r0, #0
 19c:	0000001e 	andeq	r0, r0, lr, lsl r0
 1a0:	02f10301 	rscseq	r0, r1, #67108864	; 0x4000000
 1a4:	03040000 	movweq	r0, #16384	; 0x4000
 1a8:	00000000 	andeq	r0, r0, r0
 1ac:	030f0305 	movweq	r0, #62213	; 0xf305
 1b0:	03060000 	movweq	r0, #24576	; 0x6000
 1b4:	00000328 	andeq	r0, r0, r8, lsr #6
 1b8:	00ad0307 	adceq	r0, sp, r7, lsl #6
 1bc:	03030000 	movweq	r0, #12288	; 0x3000
 1c0:	000000bc 	strheq	r0, [r0], -ip
 1c4:	01040002 	tsteq	r4, r2
 1c8:	0001e306 	andeq	lr, r1, r6, lsl #6
 1cc:	05020400 	streq	r0, [r2, #-1024]	; 0x400
 1d0:	00000014 	andeq	r0, r0, r4, lsl r0
 1d4:	f5050404 			; <UNDEFINED> instruction: 0xf5050404
 1d8:	04000000 	streq	r0, [r0], #-0
 1dc:	00f00508 	rscseq	r0, r0, r8, lsl #10
 1e0:	02040000 	andeq	r0, r4, #0
 1e4:	00022507 	andeq	r2, r2, r7, lsl #10
 1e8:	02160500 	andseq	r0, r6, #0, 10
 1ec:	34040000 	strcc	r0, [r4], #-0
 1f0:	000001f4 	strdeq	r0, [r0], -r4
 1f4:	04070404 	streq	r0, [r7], #-1028	; 0x404
 1f8:	04000002 	streq	r0, [r0], #-2
 1fc:	01ff0708 	mvnseq	r0, r8, lsl #14
 200:	04060000 	streq	r0, [r6], #-0
 204:	746e6905 	strbtvc	r6, [lr], #-2309	; 0x905
 208:	07040400 	streq	r0, [r4, -r0, lsl #8]
 20c:	00000209 	andeq	r0, r0, r9, lsl #4
 210:	00022007 	andeq	r2, r2, r7
 214:	0703a000 	streq	sl, [r3, -r0]
 218:	0000033d 	andeq	r0, r0, sp, lsr r3
 21c:	00014d08 	andeq	r4, r1, r8, lsl #26
 220:	42080300 	andmi	r0, r8, #0, 6
 224:	00000003 	andeq	r0, r0, r3
 228:	00016908 	andeq	r6, r1, r8, lsl #18
 22c:	e9090300 	stmdb	r9, {r8, r9}
 230:	18000001 	stmdane	r0, {r0}
 234:	74657309 	strbtvc	r7, [r5], #-777	; 0x309
 238:	520a0300 	andpl	r0, sl, #0, 6
 23c:	1c000003 	stcne	0, cr0, [r0], {3}
 240:	00031e08 	andeq	r1, r3, r8, lsl #28
 244:	e90b0300 	stmdb	fp, {r8, r9}
 248:	24000001 	strcs	r0, [r0], #-1
 24c:	726c6309 	rsbvc	r6, ip, #603979776	; 0x24000000
 250:	520c0300 	andpl	r0, ip, #0, 6
 254:	28000003 	stmdacs	r0, {r0, r1}
 258:	00033708 	andeq	r3, r3, r8, lsl #14
 25c:	e90d0300 	stmdb	sp, {r8, r9}
 260:	30000001 	andcc	r0, r0, r1
 264:	76656c09 	strbtvc	r6, [r5], -r9, lsl #24
 268:	520e0300 	andpl	r0, lr, #0, 6
 26c:	34000003 	strcc	r0, [r0], #-3
 270:	00034108 	andeq	r4, r3, r8, lsl #2
 274:	e90f0300 	stmdb	pc, {r8, r9}	; <UNPREDICTABLE>
 278:	3c000001 	stccc	0, cr0, [r0], {1}
 27c:	73646509 	cmnvc	r4, #37748736	; 0x2400000
 280:	52100300 	andspl	r0, r0, #0, 6
 284:	40000003 	andmi	r0, r0, r3
 288:	00034b08 	andeq	r4, r3, r8, lsl #22
 28c:	e9110300 	ldmdb	r1, {r8, r9}
 290:	48000001 	stmdami	r0, {r0}
 294:	6e657209 	cdpvs	2, 6, cr7, cr5, cr9, {0}
 298:	52120300 	andspl	r0, r2, #0, 6
 29c:	4c000003 	stcmi	0, cr0, [r0], {3}
 2a0:	00035508 	andeq	r5, r3, r8, lsl #10
 2a4:	e9130300 	ldmdb	r3, {r8, r9}
 2a8:	54000001 	strpl	r0, [r0], #-1
 2ac:	6e656609 	cdpvs	6, 6, cr6, cr5, cr9, {0}
 2b0:	52140300 	andspl	r0, r4, #0, 6
 2b4:	58000003 	stmdapl	r0, {r0, r1}
 2b8:	00035f08 	andeq	r5, r3, r8, lsl #30
 2bc:	e9150300 	ldmdb	r5, {r8, r9}
 2c0:	60000001 	andvs	r0, r0, r1
 2c4:	6e656809 	cdpvs	8, 6, cr6, cr5, cr9, {0}
 2c8:	52160300 	andspl	r0, r6, #0, 6
 2cc:	64000003 	strvs	r0, [r0], #-3
 2d0:	00036908 	andeq	r6, r3, r8, lsl #18
 2d4:	e9170300 	ldmdb	r7, {r8, r9}
 2d8:	6c000001 	stcvs	0, cr0, [r0], {1}
 2dc:	6e656c09 	cdpvs	12, 6, cr6, cr5, cr9, {0}
 2e0:	52180300 	andspl	r0, r8, #0, 6
 2e4:	70000003 	andvc	r0, r0, r3
 2e8:	00037308 	andeq	r7, r3, r8, lsl #6
 2ec:	e9190300 	ldmdb	r9, {r8, r9}
 2f0:	78000001 	stmdavc	r0, {r0}
 2f4:	00000f08 	andeq	r0, r0, r8, lsl #30
 2f8:	521a0300 	andspl	r0, sl, #0, 6
 2fc:	7c000003 	stcvc	0, cr0, [r0], {3}
 300:	00037d08 	andeq	r7, r3, r8, lsl #26
 304:	e91b0300 	ldmdb	fp, {r8, r9}
 308:	84000001 	strhi	r0, [r0], #-1
 30c:	00016408 	andeq	r6, r1, r8, lsl #8
 310:	521c0300 	andspl	r0, ip, #0, 6
 314:	88000003 	stmdahi	r0, {r0, r1}
 318:	00038708 	andeq	r8, r3, r8, lsl #14
 31c:	e91d0300 	ldmdb	sp, {r8, r9}
 320:	90000001 	andls	r0, r0, r1
 324:	64757009 	ldrbtvs	r7, [r5], #-9
 328:	e91e0300 	ldmdb	lr, {r8, r9}
 32c:	94000001 	strls	r0, [r0], #-1
 330:	0000e408 	andeq	lr, r0, r8, lsl #8
 334:	521f0300 	andspl	r0, pc, #0, 6
 338:	98000003 	stmdals	r0, {r0, r1}
 33c:	02100a00 	andseq	r0, r0, #0, 20
 340:	e90b0000 	stmdb	fp, {}	; <UNPREDICTABLE>
 344:	52000001 	andpl	r0, r0, #1
 348:	0c000003 	stceq	0, cr0, [r0], {3}
 34c:	00000209 	andeq	r0, r0, r9, lsl #4
 350:	e90b0005 	stmdb	fp, {r0, r2}
 354:	62000001 	andvs	r0, r0, #1
 358:	0c000003 	stceq	0, cr0, [r0], {3}
 35c:	00000209 	andeq	r0, r0, r9, lsl #4
 360:	1f0d0001 	svcne	0x000d0001
 364:	03000002 	movweq	r0, #2
 368:	00037722 	andeq	r7, r3, r2, lsr #14
 36c:	20000000 	andcs	r0, r0, r0
 370:	3d040e20 	stccc	14, cr0, [r4, #-128]	; 0xffffff80
 374:	0f000003 	svceq	0x00000003
 378:	00000371 	andeq	r0, r0, r1, ror r3
 37c:	00047b10 	andeq	r7, r4, r0, lsl fp
 380:	09570100 	ldmdbeq	r7, {r8}^
 384:	e0000002 	and	r0, r0, r2
 388:	5400008a 	strpl	r0, [r0], #-138	; 0x8a
 38c:	01000000 	mrseq	r0, (UNDEF: 0)
 390:	0003c39c 	muleq	r3, ip, r3
 394:	69701100 	ldmdbvs	r0!, {r8, ip}^
 398:	5701006e 	strpl	r0, [r1, -lr, rrx]
 39c:	00000209 	andeq	r0, r0, r9, lsl #4
 3a0:	00000000 	andeq	r0, r0, r0
 3a4:	00023812 	andeq	r3, r2, r2, lsl r8
 3a8:	095d0100 	ldmdbeq	sp, {r8}^
 3ac:	3a000002 	bcc	3bc <_start-0x7c44>
 3b0:	12000000 	andne	r0, r0, #0
 3b4:	00000147 	andeq	r0, r0, r7, asr #2
 3b8:	02095e01 	andeq	r5, r9, #1, 28
 3bc:	006a0000 	rsbeq	r0, sl, r0
 3c0:	13000000 	movwne	r0, #0
 3c4:	000000d9 	ldrdeq	r0, [r0], -r9
 3c8:	8a684701 	bhi	1a11fd4 <__bss_end__+0x1a08f74>
 3cc:	00680000 	rsbeq	r0, r8, r0
 3d0:	9c010000 	stcls	0, cr0, [r1], {-0}
 3d4:	00000413 	andeq	r0, r0, r3, lsl r4
 3d8:	6e697011 	mcrvs	0, 3, r7, cr9, cr1, {0}
 3dc:	09470100 	stmdbeq	r7, {r8}^
 3e0:	8d000002 	stchi	0, cr0, [r0, #-8]
 3e4:	14000000 	strne	r0, [r0], #-0
 3e8:	006c6176 	rsbeq	r6, ip, r6, ror r1
 3ec:	02094701 	andeq	r4, r9, #262144	; 0x40000
 3f0:	51010000 	mrspl	r0, (UNDEF: 1)
 3f4:	00023812 	andeq	r3, r2, r2, lsl r8
 3f8:	094d0100 	stmdbeq	sp, {r8}^
 3fc:	ae000002 	cdpge	0, 0, cr0, cr0, cr2, {0}
 400:	12000000 	andne	r0, r0, #0
 404:	00000147 	andeq	r0, r0, r7, asr #2
 408:	02094e01 	andeq	r4, r9, #1, 28
 40c:	00f60000 	rscseq	r0, r6, r0
 410:	13000000 	movwne	r0, #0
 414:	0000002f 	andeq	r0, r0, pc, lsr #32
 418:	8a384201 	bhi	e10c24 <__bss_end__+0xe07bc4>
 41c:	00200000 	eoreq	r0, r0, r0
 420:	9c010000 	stcls	0, cr0, [r1], {-0}
 424:	0000044e 	andeq	r0, r0, lr, asr #8
 428:	6e697011 	mcrvs	0, 3, r7, cr9, cr1, {0}
 42c:	09420100 	stmdbeq	r2, {r8}^
 430:	34000002 	strcc	r0, [r0], #-2
 434:	15000001 	strne	r0, [r0, #-1]
 438:	00008a4c 	andeq	r8, r0, ip, asr #20
 43c:	000004d0 	ldrdeq	r0, [r0], -r0	; <UNPREDICTABLE>
 440:	03500116 	cmpeq	r0, #-2147483643	; 0x80000005
 444:	165001f3 			; <UNDEFINED> instruction: 0x165001f3
 448:	31015101 	tstcc	r1, r1, lsl #2
 44c:	ab130000 	blge	4c0454 <__bss_end__+0x4b73f4>
 450:	01000002 	tsteq	r0, r2
 454:	008a043d 	addeq	r0, sl, sp, lsr r4
 458:	00002000 	andeq	r2, r0, r0
 45c:	899c0100 	ldmibhi	ip, {r8}
 460:	11000004 	tstne	r0, r4
 464:	006e6970 	rsbeq	r6, lr, r0, ror r9
 468:	02093d01 	andeq	r3, r9, #1, 26	; 0x40
 46c:	01550000 	cmpeq	r5, r0
 470:	18150000 	ldmdane	r5, {}	; <UNPREDICTABLE>
 474:	d000008a 	andle	r0, r0, sl, lsl #1
 478:	16000004 	strne	r0, [r0], -r4
 47c:	f3035001 	vhadd.u8	d5, d3, d1
 480:	01165001 	tsteq	r6, r1
 484:	00300151 	eorseq	r0, r0, r1, asr r1
 488:	04691000 	strbteq	r1, [r9], #-0
 48c:	31010000 	mrscc	r0, (UNDEF: 1)
 490:	00000209 	andeq	r0, r0, r9, lsl #4
 494:	00008994 	muleq	r0, r4, r9
 498:	0000005c 	andeq	r0, r0, ip, asr r0
 49c:	04d09c01 	ldrbeq	r9, [r0], #3073	; 0xc01
 4a0:	70110000 	andsvc	r0, r1, r0
 4a4:	01006e69 	tsteq	r0, r9, ror #28
 4a8:	00020931 	andeq	r0, r2, r1, lsr r9
 4ac:	00017600 	andeq	r7, r1, r0, lsl #12
 4b0:	02381200 	eorseq	r1, r8, #0, 4
 4b4:	37010000 	strcc	r0, [r1, -r0]
 4b8:	00000209 	andeq	r0, r0, r9, lsl #4
 4bc:	000001b0 			; <UNDEFINED> instruction: 0x000001b0
 4c0:	00014712 	andeq	r4, r1, r2, lsl r7
 4c4:	09380100 	ldmdbeq	r8!, {r8}
 4c8:	c3000002 	movwgt	r0, #2
 4cc:	00000001 	andeq	r0, r0, r1
 4d0:	00015213 	andeq	r5, r1, r3, lsl r2
 4d4:	14220100 	strtne	r0, [r2], #-256	; 0x100
 4d8:	68000089 	stmdavs	r0, {r0, r3, r7}
 4dc:	01000000 	mrseq	r0, (UNDEF: 0)
 4e0:	0005229c 	muleq	r5, ip, r2
 4e4:	69701100 	ldmdbvs	r0!, {r8, ip}^
 4e8:	2201006e 	andcs	r0, r1, #110	; 0x6e
 4ec:	00000209 	andeq	r0, r0, r9, lsl #4
 4f0:	000001f0 	strdeq	r0, [r0], -r0	; <UNPREDICTABLE>
 4f4:	0000eb17 	andeq	lr, r0, r7, lsl fp
 4f8:	09220100 	stmdbeq	r2!, {r8}
 4fc:	11000002 	tstne	r0, r2
 500:	12000002 	andne	r0, r0, #2
 504:	00000238 	andeq	r0, r0, r8, lsr r2
 508:	02092b01 	andeq	r2, r9, #1024	; 0x400
 50c:	02320000 	eorseq	r0, r2, #0
 510:	47120000 	ldrmi	r0, [r2, -r0]
 514:	01000001 	tsteq	r0, r1
 518:	0002092c 	andeq	r0, r2, ip, lsr #18
 51c:	00024500 	andeq	r4, r2, r0, lsl #10
 520:	f5180000 			; <UNDEFINED> instruction: 0xf5180000
 524:	01000003 	tsteq	r0, r3
 528:	0088e420 	addeq	lr, r8, r0, lsr #8
 52c:	00001800 	andeq	r1, r0, r0, lsl #16
 530:	009c0100 	addseq	r0, ip, r0, lsl #2

Disassembly of section .debug_abbrev:

00000000 <.debug_abbrev>:
   0:	25011101 	strcs	r1, [r1, #-257]	; 0x101
   4:	030b130e 	movweq	r1, #45838	; 0xb30e
   8:	11081b0e 	tstne	r8, lr, lsl #22
   c:	10061201 	andne	r1, r6, r1, lsl #4
  10:	02000017 	andeq	r0, r0, #23
  14:	0b3e0104 	bleq	f8042c <__bss_end__+0xf773cc>
  18:	13490b0b 	movtne	r0, #39691	; 0x9b0b
  1c:	0b3b0b3a 	bleq	ec2d0c <__bss_end__+0xeb9cac>
  20:	00001301 	andeq	r1, r0, r1, lsl #6
  24:	03002803 	movweq	r2, #2051	; 0x803
  28:	000b1c0e 	andeq	r1, fp, lr, lsl #24
  2c:	00240400 	eoreq	r0, r4, r0, lsl #8
  30:	0b3e0b0b 	bleq	f82c64 <__bss_end__+0xf79c04>
  34:	00000e03 	andeq	r0, r0, r3, lsl #28
  38:	03001605 	movweq	r1, #1541	; 0x605
  3c:	3b0b3a0e 	blcc	2ce87c <__bss_end__+0x2c581c>
  40:	0013490b 	andseq	r4, r3, fp, lsl #18
  44:	00240600 	eoreq	r0, r4, r0, lsl #12
  48:	0b3e0b0b 	bleq	f82c7c <__bss_end__+0xf79c1c>
  4c:	00000803 	andeq	r0, r0, r3, lsl #16
  50:	03011307 	movweq	r1, #4871	; 0x1307
  54:	3a0b0b0e 	bcc	2c2c94 <__bss_end__+0x2b9c34>
  58:	010b3b0b 	tsteq	fp, fp, lsl #22
  5c:	08000013 	stmdaeq	r0, {r0, r1, r4}
  60:	0e03000d 	cdpeq	0, 0, cr0, cr3, cr13, {0}
  64:	0b3b0b3a 	bleq	ec2d54 <__bss_end__+0xeb9cf4>
  68:	0b381349 	bleq	e04d94 <__bss_end__+0xdfbd34>
  6c:	0d090000 	stceq	0, cr0, [r9, #-0]
  70:	3a080300 	bcc	200c78 <__bss_end__+0x1f7c18>
  74:	490b3b0b 	stmdbmi	fp, {r0, r1, r3, r8, r9, fp, ip, sp}
  78:	000b3813 	andeq	r3, fp, r3, lsl r8
  7c:	00350a00 	eorseq	r0, r5, r0, lsl #20
  80:	00001349 	andeq	r1, r0, r9, asr #6
  84:	4901010b 	stmdbmi	r1, {r0, r1, r3, r8}
  88:	00130113 	andseq	r0, r3, r3, lsl r1
  8c:	00210c00 	eoreq	r0, r1, r0, lsl #24
  90:	0b2f1349 	bleq	bc4dbc <__bss_end__+0xbbbd5c>
  94:	340d0000 	strcc	r0, [sp], #-0
  98:	3a0e0300 	bcc	380ca0 <__bss_end__+0x377c40>
  9c:	490b3b0b 	stmdbmi	fp, {r0, r1, r3, r8, r9, fp, ip, sp}
  a0:	00061c13 	andeq	r1, r6, r3, lsl ip
  a4:	000f0e00 	andeq	r0, pc, r0, lsl #28
  a8:	13490b0b 	movtne	r0, #39691	; 0x9b0b
  ac:	260f0000 	strcs	r0, [pc], -r0
  b0:	00134900 	andseq	r4, r3, r0, lsl #18
  b4:	012e1000 	teqeq	lr, r0
  b8:	0e03193f 	mcreq	9, 0, r1, cr3, cr15, {1}
  bc:	0b3b0b3a 	bleq	ec2dac <__bss_end__+0xeb9d4c>
  c0:	13491927 	movtne	r1, #39207	; 0x9927
  c4:	06120111 			; <UNDEFINED> instruction: 0x06120111
  c8:	42971840 	addsmi	r1, r7, #64, 16	; 0x400000
  cc:	00130119 	andseq	r0, r3, r9, lsl r1
  d0:	00051100 	andeq	r1, r5, r0, lsl #2
  d4:	0b3a0803 	bleq	e820e8 <__bss_end__+0xe79088>
  d8:	13490b3b 	movtne	r0, #39739	; 0x9b3b
  dc:	00001702 	andeq	r1, r0, r2, lsl #14
  e0:	03003412 	movweq	r3, #1042	; 0x412
  e4:	3b0b3a0e 	blcc	2ce924 <__bss_end__+0x2c58c4>
  e8:	0213490b 	andseq	r4, r3, #180224	; 0x2c000
  ec:	13000017 	movwne	r0, #23
  f0:	193f012e 	ldmdbne	pc!, {r1, r2, r3, r5, r8}	; <UNPREDICTABLE>
  f4:	0b3a0e03 	bleq	e83908 <__bss_end__+0xe7a8a8>
  f8:	19270b3b 	stmdbne	r7!, {r0, r1, r3, r4, r5, r8, r9, fp}
  fc:	06120111 			; <UNDEFINED> instruction: 0x06120111
 100:	42971840 	addsmi	r1, r7, #64, 16	; 0x400000
 104:	00130119 	andseq	r0, r3, r9, lsl r1
 108:	00051400 	andeq	r1, r5, r0, lsl #8
 10c:	0b3a0803 	bleq	e82120 <__bss_end__+0xe790c0>
 110:	13490b3b 	movtne	r0, #39739	; 0x9b3b
 114:	00001802 	andeq	r1, r0, r2, lsl #16
 118:	01828915 	orreq	r8, r2, r5, lsl r9
 11c:	31011101 	tstcc	r1, r1, lsl #2
 120:	16000013 			; <UNDEFINED> instruction: 0x16000013
 124:	0001828a 	andeq	r8, r1, sl, lsl #5
 128:	42911802 	addsmi	r1, r1, #131072	; 0x20000
 12c:	17000018 	smladne	r0, r8, r0, r0
 130:	0e030005 	cdpeq	0, 0, cr0, cr3, cr5, {0}
 134:	0b3b0b3a 	bleq	ec2e24 <__bss_end__+0xeb9dc4>
 138:	17021349 	strne	r1, [r2, -r9, asr #6]
 13c:	2e180000 	cdpcs	0, 1, cr0, cr8, cr0, {0}
 140:	03193f00 	tsteq	r9, #0, 30
 144:	3b0b3a0e 	blcc	2ce984 <__bss_end__+0x2c5924>
 148:	1119270b 	tstne	r9, fp, lsl #14
 14c:	40061201 	andmi	r1, r6, r1, lsl #4
 150:	19429718 	stmdbne	r2, {r3, r4, r8, r9, sl, ip, pc}^
 154:	Address 0x0000000000000154 is out of bounds.


Disassembly of section .debug_loc:

00000000 <.debug_loc>:
   0:	0000020c 	andeq	r0, r0, ip, lsl #4
   4:	00000228 	andeq	r0, r0, r8, lsr #4
   8:	28500001 	ldmdacs	r0, {r0}^
   c:	58000002 	stmdapl	r0, {r1}
  10:	04000002 	streq	r0, [r0], #-2
  14:	5001f300 	andpl	pc, r1, r0, lsl #6
  18:	0002589f 	muleq	r2, pc, r8	; <UNPREDICTABLE>
  1c:	00025c00 	andeq	r5, r2, r0, lsl #24
  20:	50000100 	andpl	r0, r0, r0, lsl #2
  24:	0000025c 	andeq	r0, r0, ip, asr r2
  28:	00000260 	andeq	r0, r0, r0, ror #4
  2c:	01f30004 	mvnseq	r0, r4
  30:	00009f50 	andeq	r9, r0, r0, asr pc
  34:	00000000 	andeq	r0, r0, r0
  38:	02240000 	eoreq	r0, r4, #0
  3c:	022c0000 	eoreq	r0, ip, #0
  40:	00010000 	andeq	r0, r1, r0
  44:	00022c53 	andeq	r2, r2, r3, asr ip
  48:	00023000 	andeq	r3, r2, r0
  4c:	73000300 	movwvc	r0, #768	; 0x300
  50:	02309f74 	eorseq	r9, r0, #116, 30	; 0x1d0
  54:	024c0000 	subeq	r0, ip, #0
  58:	00060000 	andeq	r0, r6, r0
  5c:	355001f3 	ldrbcc	r0, [r0, #-499]	; 0x1f3
  60:	00009f25 	andeq	r9, r0, r5, lsr #30
  64:	00000000 	andeq	r0, r0, r0
  68:	02280000 	eoreq	r0, r8, #0
  6c:	02480000 	subeq	r0, r8, #0
  70:	00010000 	andeq	r0, r1, r0
  74:	00024850 	andeq	r4, r2, r0, asr r8
  78:	00024c00 	andeq	r4, r2, r0, lsl #24
  7c:	f3000600 	vmax.u8	d0, d0, d0
  80:	1a4f5001 	bne	13d408c <__bss_end__+0x13cb02c>
  84:	0000009f 	muleq	r0, pc, r0	; <UNPREDICTABLE>
  88:	00000000 	andeq	r0, r0, r0
  8c:	00019400 	andeq	r9, r1, r0, lsl #8
  90:	0001b000 	andeq	fp, r1, r0
  94:	50000100 	andpl	r0, r0, r0, lsl #2
  98:	000001b0 			; <UNDEFINED> instruction: 0x000001b0
  9c:	000001fc 	strdeq	r0, [r0], -ip
  a0:	01f30004 	mvnseq	r0, r4
  a4:	00009f50 	andeq	r9, r0, r0, asr pc
  a8:	00000000 	andeq	r0, r0, r0
  ac:	01ac0000 			; <UNDEFINED> instruction: 0x01ac0000
  b0:	01c40000 	biceq	r0, r4, r0
  b4:	00010000 	andeq	r0, r1, r0
  b8:	0001c453 	andeq	ip, r1, r3, asr r4
  bc:	0001cc00 	andeq	ip, r1, r0, lsl #24
  c0:	73000300 	movwvc	r0, #768	; 0x300
  c4:	01d89f76 	bicseq	r9, r8, r6, ror pc
  c8:	01e40000 	mvneq	r0, r0
  cc:	00010000 	andeq	r0, r1, r0
  d0:	0001e453 	andeq	lr, r1, r3, asr r4
  d4:	0001e800 	andeq	lr, r1, r0, lsl #16
  d8:	73000300 	movwvc	r0, #768	; 0x300
  dc:	01e89f7a 	mvneq	r9, sl, ror pc
  e0:	01fc0000 	mvnseq	r0, r0
  e4:	00060000 	andeq	r0, r6, r0
  e8:	355001f3 	ldrbcc	r0, [r0, #-499]	; 0x1f3
  ec:	00009f25 	andeq	r9, r0, r5, lsr #30
  f0:	00000000 	andeq	r0, r0, r0
  f4:	01b00000 	movseq	r0, r0
  f8:	01c00000 	biceq	r0, r0, r0
  fc:	00010000 	andeq	r0, r1, r0
 100:	0001c050 	andeq	ip, r1, r0, asr r0
 104:	0001cc00 	andeq	ip, r1, r0, lsl #24
 108:	f3000600 	vmax.u8	d0, d0, d0
 10c:	1a4f5001 	bne	13d4118 <__bss_end__+0x13cb0b8>
 110:	0001d89f 	muleq	r1, pc, r8	; <UNPREDICTABLE>
 114:	0001e000 	andeq	lr, r1, r0
 118:	50000100 	andpl	r0, r0, r0, lsl #2
 11c:	000001e0 	andeq	r0, r0, r0, ror #3
 120:	000001fc 	strdeq	r0, [r0], -ip
 124:	01f30006 	mvnseq	r0, r6
 128:	9f1a4f50 	svcls	0x001a4f50
	...
 134:	00000164 	andeq	r0, r0, r4, ror #2
 138:	00000177 	andeq	r0, r0, r7, ror r1
 13c:	77500001 	ldrbvc	r0, [r0, -r1]
 140:	84000001 	strhi	r0, [r0], #-1
 144:	04000001 	streq	r0, [r0], #-1
 148:	5001f300 	andpl	pc, r1, r0, lsl #6
 14c:	0000009f 	muleq	r0, pc, r0	; <UNPREDICTABLE>
 150:	00000000 	andeq	r0, r0, r0
 154:	00013000 	andeq	r3, r1, r0
 158:	00014300 	andeq	r4, r1, r0, lsl #6
 15c:	50000100 	andpl	r0, r0, r0, lsl #2
 160:	00000143 	andeq	r0, r0, r3, asr #2
 164:	00000150 	andeq	r0, r0, r0, asr r1
 168:	01f30004 	mvnseq	r0, r4
 16c:	00009f50 	andeq	r9, r0, r0, asr pc
 170:	00000000 	andeq	r0, r0, r0
 174:	00c00000 	sbceq	r0, r0, r0
 178:	00f80000 	rscseq	r0, r8, r0
 17c:	00010000 	andeq	r0, r1, r0
 180:	0000f850 	andeq	pc, r0, r0, asr r8	; <UNPREDICTABLE>
 184:	00010c00 	andeq	r0, r1, r0, lsl #24
 188:	f3000400 	vshl.u8	d0, d0, d0
 18c:	0c9f5001 	ldceq	0, cr5, [pc], {1}
 190:	10000001 	andne	r0, r0, r1
 194:	01000001 	tsteq	r0, r1
 198:	01105000 	tsteq	r0, r0
 19c:	011c0000 	tsteq	ip, r0
 1a0:	00040000 	andeq	r0, r4, r0
 1a4:	9f5001f3 	svcls	0x005001f3
	...
 1b0:	000000e0 	andeq	r0, r0, r0, ror #1
 1b4:	00000100 	andeq	r0, r0, r0, lsl #2
 1b8:	00520001 	subseq	r0, r2, r1
 1bc:	00000000 	andeq	r0, r0, r0
 1c0:	f0000000 			; <UNDEFINED> instruction: 0xf0000000
 1c4:	fc000000 	stc2	0, cr0, [r0], {-0}
 1c8:	01000000 	mrseq	r0, (UNDEF: 0)
 1cc:	00fc5300 	rscseq	r5, ip, r0, lsl #6
 1d0:	01000000 	mrseq	r0, (UNDEF: 0)
 1d4:	00100000 	andseq	r0, r0, r0
 1d8:	725001f3 	subsvc	r0, r0, #-1073741764	; 0xc000003c
 1dc:	72243200 	eorvc	r3, r4, #0, 4
 1e0:	24312200 	ldrtcs	r2, [r1], #-512	; 0x200
 1e4:	9f1e331c 	svcls	0x001e331c
	...
 1f0:	00000040 	andeq	r0, r0, r0, asr #32
 1f4:	00000080 	andeq	r0, r0, r0, lsl #1
 1f8:	80500001 	subshi	r0, r0, r1
 1fc:	a8000000 	stmdage	r0, {}	; <UNPREDICTABLE>
 200:	04000000 	streq	r0, [r0], #-0
 204:	5001f300 	andpl	pc, r1, r0, lsl #6
 208:	0000009f 	muleq	r0, pc, r0	; <UNPREDICTABLE>
 20c:	00000000 	andeq	r0, r0, r0
 210:	00004000 	andeq	r4, r0, r0
 214:	00008c00 	andeq	r8, r0, r0, lsl #24
 218:	51000100 	mrspl	r0, (UNDEF: 16)
 21c:	0000008c 	andeq	r0, r0, ip, lsl #1
 220:	000000a8 	andeq	r0, r0, r8, lsr #1
 224:	01f30004 	mvnseq	r0, r4
 228:	00009f51 	andeq	r9, r0, r1, asr pc
 22c:	00000000 	andeq	r0, r0, r0
 230:	00680000 	rsbeq	r0, r8, r0
 234:	00940000 	addseq	r0, r4, r0
 238:	00010000 	andeq	r0, r1, r0
 23c:	00000052 	andeq	r0, r0, r2, asr r0
 240:	00000000 	andeq	r0, r0, r0
 244:	00007800 	andeq	r7, r0, r0, lsl #16
 248:	00009000 	andeq	r9, r0, r0
 24c:	53000100 	movwpl	r0, #256	; 0x100
 250:	00000090 	muleq	r0, r0, r0
 254:	00000094 	muleq	r0, r4, r0
 258:	01f30010 	mvnseq	r0, r0, lsl r0
 25c:	32007250 	andcc	r7, r0, #80, 4
 260:	22007224 	andcs	r7, r0, #36, 4	; 0x40000002
 264:	331c2431 	tstcc	ip, #822083584	; 0x31000000
 268:	00009f1e 	andeq	r9, r0, lr, lsl pc
 26c:	00000000 	andeq	r0, r0, r0
	...

Disassembly of section .debug_aranges:

00000000 <.debug_aranges>:
   0:	0000001c 	andeq	r0, r0, ip, lsl r0
   4:	00000002 	andeq	r0, r0, r2
   8:	00040000 	andeq	r0, r4, r0
   c:	00000000 	andeq	r0, r0, r0
  10:	000088d4 	ldrdeq	r8, [r0], -r4
  14:	00000260 	andeq	r0, r0, r0, ror #4
	...

Disassembly of section .debug_line:

00000000 <.debug_line>:
   0:	000000b7 	strheq	r0, [r0], -r7
   4:	00730002 	rsbseq	r0, r3, r2
   8:	01020000 	mrseq	r0, (UNDEF: 2)
   c:	000d0efb 	strdeq	r0, [sp], -fp
  10:	01010101 	tsteq	r1, r1, lsl #2
  14:	01000000 	mrseq	r0, (UNDEF: 0)
  18:	2f010000 	svccs	0x00010000
  1c:	2f727375 	svccs	0x00727375
  20:	2f62696c 	svccs	0x0062696c
  24:	2f636367 	svccs	0x00636367
  28:	2d6d7261 	sfmcs	f7, 2, [sp, #-388]!	; 0xfffffe7c
  2c:	656e6f6e 	strbvs	r6, [lr, #-3950]!	; 0xf6e
  30:	6261652d 	rsbvs	r6, r1, #188743680	; 0xb400000
  34:	2e372f69 	cdpcs	15, 3, cr2, cr7, cr9, {3}
  38:	2f312e32 	svccs	0x00312e32
  3c:	6c636e69 	stclvs	14, cr6, [r3], #-420	; 0xfffffe5c
  40:	00656475 	rsbeq	r6, r5, r5, ror r4
  44:	69706700 	ldmdbvs	r0!, {r8, r9, sl, sp, lr}^
  48:	00632e6f 	rsbeq	r2, r3, pc, ror #28
  4c:	67000000 	strvs	r0, [r0, -r0]
  50:	2e6f6970 	mcrcs	9, 3, r6, cr15, cr0, {3}
  54:	00000068 	andeq	r0, r0, r8, rrx
  58:	70675f00 	rsbvc	r5, r7, r0, lsl #30
  5c:	705f6f69 	subsvc	r6, pc, r9, ror #30
  60:	61766972 	cmnvs	r6, r2, ror r9
  64:	682e6574 	stmdavs	lr!, {r2, r4, r5, r6, r8, sl, sp, lr}
  68:	00000000 	andeq	r0, r0, r0
  6c:	69647473 	stmdbvs	r4!, {r0, r1, r4, r5, r6, sl, ip, sp, lr}^
  70:	672d746e 	strvs	r7, [sp, -lr, ror #8]!
  74:	682e6363 	stmdavs	lr!, {r0, r1, r5, r6, r8, r9, sp, lr}
  78:	00000100 	andeq	r0, r0, r0, lsl #2
  7c:	02050000 	andeq	r0, r5, #0
  80:	000088e4 	andeq	r8, r0, r4, ror #17
  84:	66011f03 	strvs	r1, [r1], -r3, lsl #30
  88:	4d672308 	stclmi	3, cr2, [r7, #-32]!	; 0xffffffe0
  8c:	d784674e 	strle	r6, [r4, lr, asr #14]
  90:	4e675b08 	vmulmi.f64	d21, d7, d8
  94:	03838467 	orreq	r8, r3, #1728053248	; 0x67000000
  98:	0a036679 	beq	d9a84 <__bss_end__+0xd0a24>
  9c:	4b672008 	blmi	19c80c4 <__bss_end__+0x19bf064>
  a0:	d94b67f5 	stmdble	fp, {r0, r2, r4, r5, r6, r7, r8, r9, sl, sp, lr}^
  a4:	302f4e67 	eorcc	r4, pc, r7, ror #28
  a8:	0862a04d 	stmdaeq	r2!, {r0, r2, r3, r6, sp, pc}^
  ac:	2f4e6797 	svccs	0x004e6797
  b0:	03210830 	teqeq	r1, #48, 16	; 0x300000
  b4:	04026679 	streq	r6, [r2], #-1657	; 0x679
  b8:	Address 0x00000000000000b8 is out of bounds.


Disassembly of section .debug_str:

00000000 <.debug_str>:
   0:	4f495047 	svcmi	0x00495047
   4:	4e55465f 	mrcmi	6, 2, r4, cr5, cr15, {2}
   8:	4c415f43 	mcrrmi	15, 4, r5, r1, cr3
   c:	61003154 	tstvs	r0, r4, asr r1
  10:	006e6572 	rsbeq	r6, lr, r2, ror r5
  14:	726f6873 	rsbvc	r6, pc, #7536640	; 0x730000
  18:	6e692074 	mcrvs	0, 3, r2, cr9, cr4, {3}
  1c:	50470074 	subpl	r0, r7, r4, ror r0
  20:	465f4f49 	ldrbmi	r4, [pc], -r9, asr #30
  24:	5f434e55 	svcpl	0x00434e55
  28:	5054554f 	subspl	r5, r4, pc, asr #10
  2c:	67005455 	smlsdvs	r0, r5, r4, r5
  30:	5f6f6970 	svcpl	0x006f6970
  34:	5f746573 	svcpl	0x00746573
  38:	7074756f 	rsbsvc	r7, r4, pc, ror #10
  3c:	47007475 	smlsdxmi	r0, r5, r4, r7
  40:	5f4f4950 	svcpl	0x004f4950
  44:	334e4950 	movtcc	r4, #59728	; 0xe950
  48:	50470030 	subpl	r0, r7, r0, lsr r0
  4c:	505f4f49 	subspl	r4, pc, r9, asr #30
  50:	31334e49 	teqcc	r3, r9, asr #28
  54:	49504700 	ldmdbmi	r0, {r8, r9, sl, lr}^
  58:	49505f4f 	ldmdbmi	r0, {r0, r1, r2, r3, r6, r8, r9, sl, fp, ip, lr}^
  5c:	0032334e 	eorseq	r3, r2, lr, asr #6
  60:	4f495047 	svcmi	0x00495047
  64:	4e49505f 	mcrmi	0, 2, r5, cr9, cr15, {2}
  68:	47003333 	smladxmi	r0, r3, r3, r3
  6c:	5f4f4950 	svcpl	0x004f4950
  70:	334e4950 	movtcc	r4, #59728	; 0xe950
  74:	50470034 	subpl	r0, r7, r4, lsr r0
  78:	505f4f49 	subspl	r4, pc, r9, asr #30
  7c:	35334e49 	ldrcc	r4, [r3, #-3657]!	; 0xe49
  80:	49504700 	ldmdbmi	r0, {r8, r9, sl, lr}^
  84:	49505f4f 	ldmdbmi	r0, {r0, r1, r2, r3, r6, r8, r9, sl, fp, ip, lr}^
  88:	0036334e 	eorseq	r3, r6, lr, asr #6
  8c:	4f495047 	svcmi	0x00495047
  90:	4e49505f 	mcrmi	0, 2, r5, cr9, cr15, {2}
  94:	47003733 	smladxmi	r0, r3, r7, r3
  98:	5f4f4950 	svcpl	0x004f4950
  9c:	334e4950 	movtcc	r4, #59728	; 0xe950
  a0:	50470038 	subpl	r0, r7, r8, lsr r0
  a4:	505f4f49 	subspl	r4, pc, r9, asr #30
  a8:	39334e49 	ldmdbcc	r3!, {r0, r3, r6, r9, sl, fp, lr}
  ac:	49504700 	ldmdbmi	r0, {r8, r9, sl, lr}^
  b0:	55465f4f 	strbpl	r5, [r6, #-3919]	; 0xf4f
  b4:	415f434e 	cmpmi	pc, lr, asr #6
  b8:	0034544c 	eorseq	r5, r4, ip, asr #8
  bc:	4f495047 	svcmi	0x00495047
  c0:	4e55465f 	mrcmi	6, 2, r4, cr5, cr15, {2}
  c4:	4c415f43 	mcrrmi	15, 4, r5, r1, cr3
  c8:	47003554 	smlsdmi	r0, r4, r5, r3
  cc:	5f4f4950 	svcpl	0x004f4950
  d0:	5f4e4950 	svcpl	0x004e4950
  d4:	5453414c 	ldrbpl	r4, [r3], #-332	; 0x14c
  d8:	69706700 	ldmdbvs	r0!, {r8, r9, sl, sp, lr}^
  dc:	72775f6f 	rsbsvc	r5, r7, #444	; 0x1bc
  e0:	00657469 	rsbeq	r7, r5, r9, ror #8
  e4:	63647570 	cmnvs	r4, #112, 10	; 0x1c000000
  e8:	66006b6c 	strvs	r6, [r0], -ip, ror #22
  ec:	00636e75 	rsbeq	r6, r3, r5, ror lr
  f0:	676e6f6c 	strbvs	r6, [lr, -ip, ror #30]!
  f4:	6e6f6c20 	cdpvs	12, 6, cr6, cr15, cr0, {1}
  f8:	6e692067 	cdpvs	0, 6, cr2, cr9, cr7, {3}
  fc:	4e470074 	mcrmi	0, 2, r0, cr7, cr4, {3}
 100:	39432055 	stmdbcc	r3, {r0, r2, r4, r6, sp}^
 104:	2e372039 	mrccs	0, 1, r2, cr7, cr9, {1}
 108:	20312e32 	eorscs	r2, r1, r2, lsr lr
 10c:	37313032 			; <UNDEFINED> instruction: 0x37313032
 110:	34303930 	ldrtcc	r3, [r0], #-2352	; 0x930
 114:	65722820 	ldrbvs	r2, [r2, #-2080]!	; 0x820
 118:	7361656c 	cmnvc	r1, #108, 10	; 0x1b000000
 11c:	5b202965 	blpl	80a6b8 <__bss_end__+0x801658>
 120:	2f4d5241 	svccs	0x004d5241
 124:	65626d65 	strbvs	r6, [r2, #-3429]!	; 0xd65
 128:	64656464 	strbtvs	r6, [r5], #-1124	; 0x464
 12c:	622d372d 	eorvs	r3, sp, #11796480	; 0xb40000
 130:	636e6172 	cmnvs	lr, #-2147483620	; 0x8000001c
 134:	65722068 	ldrbvs	r2, [r2, #-104]!	; 0x68
 138:	69736976 	ldmdbvs	r3!, {r1, r2, r4, r5, r6, r8, fp, sp, lr}^
 13c:	32206e6f 	eorcc	r6, r0, #1776	; 0x6f0
 140:	30323535 	eorscc	r3, r2, r5, lsr r5
 144:	73005d34 	movwvc	r5, #3380	; 0xd34
 148:	74666968 	strbtvc	r6, [r6], #-2408	; 0x968
 14c:	65736600 	ldrbvs	r6, [r3, #-1536]!	; 0x600
 150:	7067006c 	rsbvc	r0, r7, ip, rrx
 154:	735f6f69 	cmpvc	pc, #420	; 0x1a4
 158:	665f7465 	ldrbvs	r7, [pc], -r5, ror #8
 15c:	74636e75 	strbtvc	r6, [r3], #-3701	; 0xe75
 160:	006e6f69 	rsbeq	r6, lr, r9, ror #30
 164:	6e656661 	cdpvs	6, 6, cr6, cr5, cr1, {3}
 168:	73657200 	cmnvc	r5, #0, 4
 16c:	65767265 	ldrbvs	r7, [r6, #-613]!	; 0x265
 170:	47004164 	strmi	r4, [r0, -r4, ror #2]
 174:	5f4f4950 	svcpl	0x004f4950
 178:	344e4950 	strbcc	r4, [lr], #-2384	; 0x950
 17c:	50470030 	subpl	r0, r7, r0, lsr r0
 180:	505f4f49 	subspl	r4, pc, r9, asr #30
 184:	31344e49 	teqcc	r4, r9, asr #28
 188:	49504700 	ldmdbmi	r0, {r8, r9, sl, lr}^
 18c:	49505f4f 	ldmdbmi	r0, {r0, r1, r2, r3, r6, r8, r9, sl, fp, ip, lr}^
 190:	0032344e 	eorseq	r3, r2, lr, asr #8
 194:	4f495047 	svcmi	0x00495047
 198:	4e49505f 	mcrmi	0, 2, r5, cr9, cr15, {2}
 19c:	47003334 	smladxmi	r0, r4, r3, r3
 1a0:	5f4f4950 	svcpl	0x004f4950
 1a4:	344e4950 	strbcc	r4, [lr], #-2384	; 0x950
 1a8:	50470034 	subpl	r0, r7, r4, lsr r0
 1ac:	505f4f49 	subspl	r4, pc, r9, asr #30
 1b0:	35344e49 	ldrcc	r4, [r4, #-3657]!	; 0xe49
 1b4:	49504700 	ldmdbmi	r0, {r8, r9, sl, lr}^
 1b8:	49505f4f 	ldmdbmi	r0, {r0, r1, r2, r3, r6, r8, r9, sl, fp, ip, lr}^
 1bc:	0036344e 	eorseq	r3, r6, lr, asr #8
 1c0:	4f495047 	svcmi	0x00495047
 1c4:	4e49505f 	mcrmi	0, 2, r5, cr9, cr15, {2}
 1c8:	47003734 	smladxmi	r0, r4, r7, r3
 1cc:	5f4f4950 	svcpl	0x004f4950
 1d0:	344e4950 	strbcc	r4, [lr], #-2384	; 0x950
 1d4:	50470038 	subpl	r0, r7, r8, lsr r0
 1d8:	505f4f49 	subspl	r4, pc, r9, asr #30
 1dc:	39344e49 	ldmdbcc	r4!, {r0, r3, r6, r9, sl, fp, lr}
 1e0:	736e7500 	cmnvc	lr, #0, 10
 1e4:	656e6769 	strbvs	r6, [lr, #-1897]!	; 0x769
 1e8:	68632064 	stmdavs	r3!, {r2, r5, r6, sp}^
 1ec:	47007261 	strmi	r7, [r0, -r1, ror #4]
 1f0:	5f4f4950 	svcpl	0x004f4950
 1f4:	434e5546 	movtmi	r5, #58694	; 0xe546
 1f8:	504e495f 	subpl	r4, lr, pc, asr r9
 1fc:	6c005455 	cfstrsvs	mvf5, [r0], {85}	; 0x55
 200:	20676e6f 	rsbcs	r6, r7, pc, ror #28
 204:	676e6f6c 	strbvs	r6, [lr, -ip, ror #30]!
 208:	736e7520 	cmnvc	lr, #32, 10	; 0x8000000
 20c:	656e6769 	strbvs	r6, [lr, #-1897]!	; 0x769
 210:	6e692064 	cdpvs	0, 6, cr2, cr9, cr4, {3}
 214:	69750074 	ldmdbvs	r5!, {r2, r4, r5, r6}^
 218:	3233746e 	eorscc	r7, r3, #1845493760	; 0x6e000000
 21c:	5f00745f 	svcpl	0x0000745f
 220:	6f697067 	svcvs	0x00697067
 224:	6f687300 	svcvs	0x00687300
 228:	75207472 	strvc	r7, [r0, #-1138]!	; 0x472
 22c:	6769736e 	strbvs	r7, [r9, -lr, ror #6]!
 230:	2064656e 	rsbcs	r6, r4, lr, ror #10
 234:	00746e69 	rsbseq	r6, r4, r9, ror #28
 238:	6b6e6162 	blvs	1b987c8 <__bss_end__+0x1b8f768>
 23c:	49504700 	ldmdbmi	r0, {r8, r9, sl, lr}^
 240:	49505f4f 	ldmdbmi	r0, {r0, r1, r2, r3, r6, r8, r9, sl, fp, ip, lr}^
 244:	0030314e 	eorseq	r3, r0, lr, asr #2
 248:	4f495047 	svcmi	0x00495047
 24c:	4e49505f 	mcrmi	0, 2, r5, cr9, cr15, {2}
 250:	47003131 	smladxmi	r0, r1, r1, r3
 254:	5f4f4950 	svcpl	0x004f4950
 258:	314e4950 	cmpcc	lr, r0, asr r9
 25c:	50470032 	subpl	r0, r7, r2, lsr r0
 260:	505f4f49 	subspl	r4, pc, r9, asr #30
 264:	33314e49 	teqcc	r1, #1168	; 0x490
 268:	49504700 	ldmdbmi	r0, {r8, r9, sl, lr}^
 26c:	49505f4f 	ldmdbmi	r0, {r0, r1, r2, r3, r6, r8, r9, sl, fp, ip, lr}^
 270:	0034314e 	eorseq	r3, r4, lr, asr #2
 274:	4f495047 	svcmi	0x00495047
 278:	4e49505f 	mcrmi	0, 2, r5, cr9, cr15, {2}
 27c:	47003531 	smladxmi	r0, r1, r5, r3
 280:	5f4f4950 	svcpl	0x004f4950
 284:	314e4950 	cmpcc	lr, r0, asr r9
 288:	50470036 	subpl	r0, r7, r6, lsr r0
 28c:	505f4f49 	subspl	r4, pc, r9, asr #30
 290:	37314e49 	ldrcc	r4, [r1, -r9, asr #28]!
 294:	49504700 	ldmdbmi	r0, {r8, r9, sl, lr}^
 298:	49505f4f 	ldmdbmi	r0, {r0, r1, r2, r3, r6, r8, r9, sl, fp, ip, lr}^
 29c:	0038314e 	eorseq	r3, r8, lr, asr #2
 2a0:	4f495047 	svcmi	0x00495047
 2a4:	4e49505f 	mcrmi	0, 2, r5, cr9, cr15, {2}
 2a8:	67003931 	smladxvs	r0, r1, r9, r3
 2ac:	5f6f6970 	svcpl	0x006f6970
 2b0:	5f746573 	svcpl	0x00746573
 2b4:	75706e69 	ldrbvc	r6, [r0, #-3689]!	; 0xe69
 2b8:	50470074 	subpl	r0, r7, r4, ror r0
 2bc:	505f4f49 	subspl	r4, pc, r9, asr #30
 2c0:	35324e49 	ldrcc	r4, [r2, #-3657]!	; 0xe49
 2c4:	49504700 	ldmdbmi	r0, {r8, r9, sl, lr}^
 2c8:	49505f4f 	ldmdbmi	r0, {r0, r1, r2, r3, r6, r8, r9, sl, fp, ip, lr}^
 2cc:	0030354e 	eorseq	r3, r0, lr, asr #10
 2d0:	4f495047 	svcmi	0x00495047
 2d4:	4e49505f 	mcrmi	0, 2, r5, cr9, cr15, {2}
 2d8:	47003135 	smladxmi	r0, r5, r1, r3
 2dc:	5f4f4950 	svcpl	0x004f4950
 2e0:	354e4950 	strbcc	r4, [lr, #-2384]	; 0x950
 2e4:	50470032 	subpl	r0, r7, r2, lsr r0
 2e8:	505f4f49 	subspl	r4, pc, r9, asr #30
 2ec:	33354e49 	teqcc	r5, #1168	; 0x490
 2f0:	49504700 	ldmdbmi	r0, {r8, r9, sl, lr}^
 2f4:	55465f4f 	strbpl	r5, [r6, #-3919]	; 0xf4f
 2f8:	415f434e 	cmpmi	pc, lr, asr #6
 2fc:	0030544c 	eorseq	r5, r0, ip, asr #8
 300:	4f495047 	svcmi	0x00495047
 304:	4e49505f 	mcrmi	0, 2, r5, cr9, cr15, {2}
 308:	5249465f 	subpl	r4, r9, #99614720	; 0x5f00000
 30c:	47005453 	smlsdmi	r0, r3, r4, r5
 310:	5f4f4950 	svcpl	0x004f4950
 314:	434e5546 	movtmi	r5, #58694	; 0xe546
 318:	544c415f 	strbpl	r4, [ip], #-351	; 0x15f
 31c:	65720032 	ldrbvs	r0, [r2, #-50]!	; 0x32
 320:	76726573 			; <UNDEFINED> instruction: 0x76726573
 324:	00426465 	subeq	r6, r2, r5, ror #8
 328:	4f495047 	svcmi	0x00495047
 32c:	4e55465f 	mrcmi	6, 2, r4, cr5, cr15, {2}
 330:	4c415f43 	mcrrmi	15, 4, r5, r1, cr3
 334:	72003354 	andvc	r3, r0, #84, 6	; 0x50000001
 338:	72657365 	rsbvc	r7, r5, #-1811939327	; 0x94000001
 33c:	43646576 	cmnmi	r4, #494927872	; 0x1d800000
 340:	73657200 	cmnvc	r5, #0, 4
 344:	65767265 	ldrbvs	r7, [r6, #-613]!	; 0x265
 348:	72004464 	andvc	r4, r0, #100, 8	; 0x64000000
 34c:	72657365 	rsbvc	r7, r5, #-1811939327	; 0x94000001
 350:	45646576 	strbmi	r6, [r4, #-1398]!	; 0x576
 354:	73657200 	cmnvc	r5, #0, 4
 358:	65767265 	ldrbvs	r7, [r6, #-613]!	; 0x265
 35c:	72004664 	andvc	r4, r0, #100, 12	; 0x6400000
 360:	72657365 	rsbvc	r7, r5, #-1811939327	; 0x94000001
 364:	47646576 			; <UNDEFINED> instruction: 0x47646576
 368:	73657200 	cmnvc	r5, #0, 4
 36c:	65767265 	ldrbvs	r7, [r6, #-613]!	; 0x265
 370:	72004864 	andvc	r4, r0, #100, 16	; 0x640000
 374:	72657365 	rsbvc	r7, r5, #-1811939327	; 0x94000001
 378:	49646576 	stmdbmi	r4!, {r1, r2, r4, r5, r6, r8, sl, sp, lr}^
 37c:	73657200 	cmnvc	r5, #0, 4
 380:	65767265 	ldrbvs	r7, [r6, #-613]!	; 0x265
 384:	72004a64 	andvc	r4, r0, #100, 20	; 0x64000
 388:	72657365 	rsbvc	r7, r5, #-1811939327	; 0x94000001
 38c:	4b646576 	blmi	191996c <__bss_end__+0x191090c>
 390:	49504700 	ldmdbmi	r0, {r8, r9, sl, lr}^
 394:	49505f4f 	ldmdbmi	r0, {r0, r1, r2, r3, r6, r8, r9, sl, fp, ip, lr}^
 398:	4700304e 	strmi	r3, [r0, -lr, asr #32]
 39c:	5f4f4950 	svcpl	0x004f4950
 3a0:	314e4950 	cmpcc	lr, r0, asr r9
 3a4:	49504700 	ldmdbmi	r0, {r8, r9, sl, lr}^
 3a8:	49505f4f 	ldmdbmi	r0, {r0, r1, r2, r3, r6, r8, r9, sl, fp, ip, lr}^
 3ac:	4700324e 	strmi	r3, [r0, -lr, asr #4]
 3b0:	5f4f4950 	svcpl	0x004f4950
 3b4:	334e4950 	movtcc	r4, #59728	; 0xe950
 3b8:	49504700 	ldmdbmi	r0, {r8, r9, sl, lr}^
 3bc:	49505f4f 	ldmdbmi	r0, {r0, r1, r2, r3, r6, r8, r9, sl, fp, ip, lr}^
 3c0:	4700344e 	strmi	r3, [r0, -lr, asr #8]
 3c4:	5f4f4950 	svcpl	0x004f4950
 3c8:	354e4950 	strbcc	r4, [lr, #-2384]	; 0x950
 3cc:	49504700 	ldmdbmi	r0, {r8, r9, sl, lr}^
 3d0:	49505f4f 	ldmdbmi	r0, {r0, r1, r2, r3, r6, r8, r9, sl, fp, ip, lr}^
 3d4:	4700364e 	strmi	r3, [r0, -lr, asr #12]
 3d8:	5f4f4950 	svcpl	0x004f4950
 3dc:	374e4950 	smlsldcc	r4, lr, r0, r9
 3e0:	49504700 	ldmdbmi	r0, {r8, r9, sl, lr}^
 3e4:	49505f4f 	ldmdbmi	r0, {r0, r1, r2, r3, r6, r8, r9, sl, fp, ip, lr}^
 3e8:	4700384e 	strmi	r3, [r0, -lr, asr #16]
 3ec:	5f4f4950 	svcpl	0x004f4950
 3f0:	394e4950 	stmdbcc	lr, {r4, r6, r8, fp, lr}^
 3f4:	69706700 	ldmdbvs	r0!, {r8, r9, sl, sp, lr}^
 3f8:	6e695f6f 	cdpvs	15, 6, cr5, cr9, cr15, {3}
 3fc:	47007469 	strmi	r7, [r0, -r9, ror #8]
 400:	5f4f4950 	svcpl	0x004f4950
 404:	324e4950 	subcc	r4, lr, #80, 18	; 0x140000
 408:	50470030 	subpl	r0, r7, r0, lsr r0
 40c:	505f4f49 	subspl	r4, pc, r9, asr #30
 410:	31324e49 	teqcc	r2, r9, asr #28
 414:	49504700 	ldmdbmi	r0, {r8, r9, sl, lr}^
 418:	49505f4f 	ldmdbmi	r0, {r0, r1, r2, r3, r6, r8, r9, sl, fp, ip, lr}^
 41c:	0032324e 	eorseq	r3, r2, lr, asr #4
 420:	4f495047 	svcmi	0x00495047
 424:	4e49505f 	mcrmi	0, 2, r5, cr9, cr15, {2}
 428:	47003332 	smladxmi	r0, r2, r3, r3
 42c:	5f4f4950 	svcpl	0x004f4950
 430:	324e4950 	subcc	r4, lr, #80, 18	; 0x140000
 434:	70670034 	rsbvc	r0, r7, r4, lsr r0
 438:	632e6f69 	teqvs	lr, #420	; 0x1a4
 43c:	49504700 	ldmdbmi	r0, {r8, r9, sl, lr}^
 440:	49505f4f 	ldmdbmi	r0, {r0, r1, r2, r3, r6, r8, r9, sl, fp, ip, lr}^
 444:	0036324e 	eorseq	r3, r6, lr, asr #4
 448:	4f495047 	svcmi	0x00495047
 44c:	4e49505f 	mcrmi	0, 2, r5, cr9, cr15, {2}
 450:	47003732 	smladxmi	r0, r2, r7, r3
 454:	5f4f4950 	svcpl	0x004f4950
 458:	324e4950 	subcc	r4, lr, #80, 18	; 0x140000
 45c:	50470038 	subpl	r0, r7, r8, lsr r0
 460:	505f4f49 	subspl	r4, pc, r9, asr #30
 464:	39324e49 	ldmdbcc	r2!, {r0, r3, r6, r9, sl, fp, lr}
 468:	69706700 	ldmdbvs	r0!, {r8, r9, sl, sp, lr}^
 46c:	65675f6f 	strbvs	r5, [r7, #-3951]!	; 0xf6f
 470:	75665f74 	strbvc	r5, [r6, #-3956]!	; 0xf74
 474:	6974636e 	ldmdbvs	r4!, {r1, r2, r3, r5, r6, r8, r9, sp, lr}^
 478:	67006e6f 	strvs	r6, [r0, -pc, ror #28]
 47c:	5f6f6970 	svcpl	0x006f6970
 480:	64616572 	strbtvs	r6, [r1], #-1394	; 0x572
	...

Disassembly of section .debug_frame:

00000000 <.debug_frame>:
   0:	0000000c 	andeq	r0, r0, ip
   4:	ffffffff 			; <UNDEFINED> instruction: 0xffffffff
   8:	7c020001 	stcvc	0, cr0, [r2], {1}
   c:	000d0c0e 	andeq	r0, sp, lr, lsl #24
  10:	00000024 	andeq	r0, r0, r4, lsr #32
  14:	00000000 	andeq	r0, r0, r0
  18:	000088e4 	andeq	r8, r0, r4, ror #17
  1c:	00000018 	andeq	r0, r0, r8, lsl r0
  20:	420c0d42 	andmi	r0, ip, #4224	; 0x1080
  24:	038d048b 	orreq	r0, sp, #-1962934272	; 0x8b000000
  28:	0c42028e 	sfmeq	f0, 2, [r2], {142}	; 0x8e
  2c:	0c42040b 	cfstrdeq	mvd0, [r2], {11}
  30:	ce42100d 	cdpgt	0, 4, cr1, cr2, cr13, {0}
  34:	040ecbcd 	streq	ip, [lr], #-3021	; 0xbcd
  38:	00000024 	andeq	r0, r0, r4, lsr #32
  3c:	00000000 	andeq	r0, r0, r0
  40:	00008914 	andeq	r8, r0, r4, lsl r9
  44:	00000068 	andeq	r0, r0, r8, rrx
  48:	420c0d42 	andmi	r0, ip, #4224	; 0x1080
  4c:	038d048b 	orreq	r0, sp, #-1962934272	; 0x8b000000
  50:	0c42028e 	sfmeq	f0, 2, [r2], {142}	; 0x8e
  54:	0c66040b 	cfstrdeq	mvd0, [r6], #-44	; 0xffffffd4
  58:	ce42100d 	cdpgt	0, 4, cr1, cr2, cr13, {0}
  5c:	040ecbcd 	streq	ip, [lr], #-3021	; 0xbcd
  60:	00000028 	andeq	r0, r0, r8, lsr #32
  64:	00000000 	andeq	r0, r0, r0
  68:	00008994 	muleq	r0, r4, r9
  6c:	0000005c 	andeq	r0, r0, ip, asr r0
  70:	420c0d42 	andmi	r0, ip, #4224	; 0x1080
  74:	038d048b 	orreq	r0, sp, #-1962934272	; 0x8b000000
  78:	0c42028e 	sfmeq	f0, 2, [r2], {142}	; 0x8e
  7c:	0a5c040b 	beq	17010b0 <__bss_end__+0x16f8050>
  80:	42100d0c 	andsmi	r0, r0, #12, 26	; 0x300
  84:	0ecbcdce 	cdpeq	13, 12, cr12, cr11, cr14, {6}
  88:	000b4204 	andeq	r4, fp, r4, lsl #4
  8c:	00000024 	andeq	r0, r0, r4, lsr #32
  90:	00000000 	andeq	r0, r0, r0
  94:	00008a04 	andeq	r8, r0, r4, lsl #20
  98:	00000020 	andeq	r0, r0, r0, lsr #32
  9c:	420c0d42 	andmi	r0, ip, #4224	; 0x1080
  a0:	038d048b 	orreq	r0, sp, #-1962934272	; 0x8b000000
  a4:	0c42028e 	sfmeq	f0, 2, [r2], {142}	; 0x8e
  a8:	0c46040b 	cfstrdeq	mvd0, [r6], {11}
  ac:	ce42100d 	cdpgt	0, 4, cr1, cr2, cr13, {0}
  b0:	040ecbcd 	streq	ip, [lr], #-3021	; 0xbcd
  b4:	00000024 	andeq	r0, r0, r4, lsr #32
  b8:	00000000 	andeq	r0, r0, r0
  bc:	00008a38 	andeq	r8, r0, r8, lsr sl
  c0:	00000020 	andeq	r0, r0, r0, lsr #32
  c4:	420c0d42 	andmi	r0, ip, #4224	; 0x1080
  c8:	038d048b 	orreq	r0, sp, #-1962934272	; 0x8b000000
  cc:	0c42028e 	sfmeq	f0, 2, [r2], {142}	; 0x8e
  d0:	0c46040b 	cfstrdeq	mvd0, [r6], {11}
  d4:	ce42100d 	cdpgt	0, 4, cr1, cr2, cr13, {0}
  d8:	040ecbcd 	streq	ip, [lr], #-3021	; 0xbcd
  dc:	00000028 	andeq	r0, r0, r8, lsr #32
  e0:	00000000 	andeq	r0, r0, r0
  e4:	00008a68 	andeq	r8, r0, r8, ror #20
  e8:	00000068 	andeq	r0, r0, r8, rrx
  ec:	420c0d42 	andmi	r0, ip, #4224	; 0x1080
  f0:	038d048b 	orreq	r0, sp, #-1962934272	; 0x8b000000
  f4:	0c42028e 	sfmeq	f0, 2, [r2], {142}	; 0x8e
  f8:	0a58040b 	beq	160112c <__bss_end__+0x15f80cc>
  fc:	42100d0c 	andsmi	r0, r0, #12, 26	; 0x300
 100:	0ecbcdce 	cdpeq	13, 12, cr12, cr11, cr14, {6}
 104:	000b4204 	andeq	r4, fp, r4, lsl #4
 108:	00000028 	andeq	r0, r0, r8, lsr #32
 10c:	00000000 	andeq	r0, r0, r0
 110:	00008ae0 	andeq	r8, r0, r0, ror #21
 114:	00000054 	andeq	r0, r0, r4, asr r0
 118:	420c0d42 	andmi	r0, ip, #4224	; 0x1080
 11c:	038d048b 	orreq	r0, sp, #-1962934272	; 0x8b000000
 120:	0c42028e 	sfmeq	f0, 2, [r2], {142}	; 0x8e
 124:	0a5c040b 	beq	1701158 <__bss_end__+0x16f80f8>
 128:	42100d0c 	andsmi	r0, r0, #12, 26	; 0x300
 12c:	0ecbcdce 	cdpeq	13, 12, cr12, cr11, cr14, {6}
 130:	000b4204 	andeq	r4, fp, r4, lsl #4
