
gprof.elf:     file format elf32-littlearm


Disassembly of section .text:

00008000 <_start>:
    8000:	e3a0d302 	mov	sp, #134217728	; 0x8000000
    8004:	e3a0b000 	mov	fp, #0
    8008:	eb0000f8 	bl	83f0 <_cstart>
    800c:	eb0002a5 	bl	8aa8 <rpi_reboot>

00008010 <kmalloc>:
    8010:	e59f2018 	ldr	r2, [pc, #24]	; 8030 <kmalloc+0x20>
    8014:	e5923000 	ldr	r3, [r2]
    8018:	e2800007 	add	r0, r0, #7
    801c:	e3c01007 	bic	r1, r0, #7
    8020:	e0831001 	add	r1, r3, r1
    8024:	e5821000 	str	r1, [r2]
    8028:	e1a00003 	mov	r0, r3
    802c:	e12fff1e 	bx	lr
    8030:	00009180 	andeq	r9, r0, r0, lsl #3

00008034 <kmalloc_init>:
    8034:	e92d4010 	push	{r4, lr}
    8038:	e59f4014 	ldr	r4, [pc, #20]	; 8054 <kmalloc_init+0x20>
    803c:	e59f0014 	ldr	r0, [pc, #20]	; 8058 <kmalloc_init+0x24>
    8040:	e1a01004 	mov	r1, r4
    8044:	eb000127 	bl	84e8 <printk>
    8048:	e59f300c 	ldr	r3, [pc, #12]	; 805c <kmalloc_init+0x28>
    804c:	e5834000 	str	r4, [r3]
    8050:	e8bd8010 	pop	{r4, pc}
    8054:	00009598 	muleq	r0, r8, r5
    8058:	00008ea8 	andeq	r8, r0, r8, lsr #29
    805c:	00009180 	andeq	r9, r0, r0, lsl #3

00008060 <int_handler>:
    8060:	e92d4038 	push	{r3, r4, r5, lr}
    8064:	e1a04000 	mov	r4, r0
    8068:	eb0000f4 	bl	8440 <RPI_GetIRQController>
    806c:	e5903000 	ldr	r3, [r0]
    8070:	e3130001 	tst	r3, #1
    8074:	08bd8038 	popeq	{r3, r4, r5, pc}
    8078:	eb0000f9 	bl	8464 <RPI_GetArmTimer>
    807c:	e3a03001 	mov	r3, #1
    8080:	e580300c 	str	r3, [r0, #12]
    8084:	e59f3074 	ldr	r3, [pc, #116]	; 8100 <int_handler+0xa0>
    8088:	e5932004 	ldr	r2, [r3, #4]
    808c:	e2822001 	add	r2, r2, #1
    8090:	e5832004 	str	r2, [r3, #4]
    8094:	e3540902 	cmp	r4, #32768	; 0x8000
    8098:	3a000002 	bcc	80a8 <int_handler+0x48>
    809c:	e59f3060 	ldr	r3, [pc, #96]	; 8104 <int_handler+0xa4>
    80a0:	e1540003 	cmp	r4, r3
    80a4:	3a000005 	bcc	80c0 <int_handler+0x60>
    80a8:	e59f0058 	ldr	r0, [pc, #88]	; 8108 <int_handler+0xa8>
    80ac:	e59f1058 	ldr	r1, [pc, #88]	; 810c <int_handler+0xac>
    80b0:	e59f2058 	ldr	r2, [pc, #88]	; 8110 <int_handler+0xb0>
    80b4:	e3a03046 	mov	r3, #70	; 0x46
    80b8:	eb00010a 	bl	84e8 <printk>
    80bc:	eb000279 	bl	8aa8 <rpi_reboot>
    80c0:	e59f5038 	ldr	r5, [pc, #56]	; 8100 <int_handler+0xa0>
    80c4:	e2444902 	sub	r4, r4, #32768	; 0x8000
    80c8:	e1a04124 	lsr	r4, r4, #2
    80cc:	e5953008 	ldr	r3, [r5, #8]
    80d0:	e7932104 	ldr	r2, [r3, r4, lsl #2]
    80d4:	e2822001 	add	r2, r2, #1
    80d8:	e7832104 	str	r2, [r3, r4, lsl #2]
    80dc:	eb000296 	bl	8b3c <timer_get_time>
    80e0:	e595300c 	ldr	r3, [r5, #12]
    80e4:	e3530000 	cmp	r3, #0
    80e8:	10632000 	rsbne	r2, r3, r0
    80ec:	03a02000 	moveq	r2, #0
    80f0:	e59f3008 	ldr	r3, [pc, #8]	; 8100 <int_handler+0xa0>
    80f4:	e5832010 	str	r2, [r3, #16]
    80f8:	e583000c 	str	r0, [r3, #12]
    80fc:	e8bd8038 	pop	{r3, r4, r5, pc}
    8100:	00009180 	andeq	r9, r0, r0, lsl #3
    8104:	00009180 	andeq	r9, r0, r0, lsl #3
    8108:	00008eb8 			; <UNDEFINED> instruction: 0x00008eb8
    810c:	00008ef0 	strdeq	r8, [r0], -r0
    8110:	00008e9c 	muleq	r0, ip, lr

00008114 <notmain>:
    8114:	e92d4ff0 	push	{r4, r5, r6, r7, r8, r9, sl, fp, lr}
    8118:	e24dd00c 	sub	sp, sp, #12
    811c:	eb0002e9 	bl	8cc8 <uart_init>
    8120:	e59f00dc 	ldr	r0, [pc, #220]	; 8204 <notmain+0xf0>
    8124:	eb0000ef 	bl	84e8 <printk>
    8128:	eb00006b 	bl	82dc <install_int_handlers>
    812c:	e59f00d4 	ldr	r0, [pc, #212]	; 8208 <notmain+0xf4>
    8130:	eb0000ec 	bl	84e8 <printk>
    8134:	e3a00010 	mov	r0, #16
    8138:	eb0000d0 	bl	8480 <timer_interrupt_init>
    813c:	ebffffbc 	bl	8034 <kmalloc_init>
    8140:	e59f80c4 	ldr	r8, [pc, #196]	; 820c <notmain+0xf8>
    8144:	e1a08128 	lsr	r8, r8, #2
    8148:	e1a00108 	lsl	r0, r8, #2
    814c:	ebffffaf 	bl	8010 <kmalloc>
    8150:	e59f30b8 	ldr	r3, [pc, #184]	; 8210 <notmain+0xfc>
    8154:	e5830008 	str	r0, [r3, #8]
    8158:	e59f00b4 	ldr	r0, [pc, #180]	; 8214 <notmain+0x100>
    815c:	eb0000e1 	bl	84e8 <printk>
    8160:	eb000030 	bl	8228 <system_enable_interrupts>
    8164:	e59f00ac 	ldr	r0, [pc, #172]	; 8218 <notmain+0x104>
    8168:	eb0000de 	bl	84e8 <printk>
    816c:	e3a07000 	mov	r7, #0
    8170:	e59f5098 	ldr	r5, [pc, #152]	; 8210 <notmain+0xfc>
    8174:	e59fa0a0 	ldr	sl, [pc, #160]	; 821c <notmain+0x108>
    8178:	e59f90a0 	ldr	r9, [pc, #160]	; 8220 <notmain+0x10c>
    817c:	e59fb0a0 	ldr	fp, [pc, #160]	; 8224 <notmain+0x110>
    8180:	ea00001b 	b	81f4 <notmain+0xe0>
    8184:	e5952004 	ldr	r2, [r5, #4]
    8188:	e5953010 	ldr	r3, [r5, #16]
    818c:	e5951010 	ldr	r1, [r5, #16]
    8190:	e58d1000 	str	r1, [sp]
    8194:	e1a0000a 	mov	r0, sl
    8198:	e1a01007 	mov	r1, r7
    819c:	eb0000d1 	bl	84e8 <printk>
    81a0:	e2877001 	add	r7, r7, #1
    81a4:	e0832799 	umull	r2, r3, r9, r7
    81a8:	e1a031a3 	lsr	r3, r3, #3
    81ac:	e0833103 	add	r3, r3, r3, lsl #2
    81b0:	e1570083 	cmp	r7, r3, lsl #1
    81b4:	1a00000e 	bne	81f4 <notmain+0xe0>
    81b8:	e3580000 	cmp	r8, #0
    81bc:	0a00000c 	beq	81f4 <notmain+0xe0>
    81c0:	e3a06902 	mov	r6, #32768	; 0x8000
    81c4:	e3a04000 	mov	r4, #0
    81c8:	e5953008 	ldr	r3, [r5, #8]
    81cc:	e7932104 	ldr	r2, [r3, r4, lsl #2]
    81d0:	e3520002 	cmp	r2, #2
    81d4:	9a000002 	bls	81e4 <notmain+0xd0>
    81d8:	e1a0000b 	mov	r0, fp
    81dc:	e1a01006 	mov	r1, r6
    81e0:	eb0000c0 	bl	84e8 <printk>
    81e4:	e2844001 	add	r4, r4, #1
    81e8:	e2866004 	add	r6, r6, #4
    81ec:	e1540008 	cmp	r4, r8
    81f0:	1afffff4 	bne	81c8 <notmain+0xb4>
    81f4:	e5953004 	ldr	r3, [r5, #4]
    81f8:	e35300c7 	cmp	r3, #199	; 0xc7
    81fc:	9affffe0 	bls	8184 <notmain+0x70>
    8200:	eb000246 	bl	8b20 <clean_reboot>
    8204:	00008ef8 	strdeq	r8, [r0], -r8	; <UNPREDICTABLE>
    8208:	00008f14 	andeq	r8, r0, r4, lsl pc
    820c:	00001180 	andeq	r1, r0, r0, lsl #3
    8210:	00009180 	andeq	r9, r0, r0, lsl #3
    8214:	00008f34 	andeq	r8, r0, r4, lsr pc
    8218:	00008f54 	andeq	r8, r0, r4, asr pc
    821c:	00008f60 	andeq	r8, r0, r0, ror #30
    8220:	cccccccd 	stclgt	12, cr12, [ip], {205}	; 0xcd
    8224:	00008f88 	andeq	r8, r0, r8, lsl #31

00008228 <system_enable_interrupts>:
    8228:	e10f0000 	mrs	r0, CPSR
    822c:	e3c00080 	bic	r0, r0, #128	; 0x80
    8230:	e121f000 	msr	CPSR_c, r0
    8234:	e12fff1e 	bx	lr

00008238 <system_disable_interrupts>:
    8238:	e10f0000 	mrs	r0, CPSR
    823c:	e3800080 	orr	r0, r0, #128	; 0x80
    8240:	e121f000 	msr	CPSR_c, r0
    8244:	e12fff1e 	bx	lr

00008248 <_interrupt_table>:
    8248:	e59ff030 	ldr	pc, [pc, #48]	; 8280 <_reset_asm>
    824c:	e59ff030 	ldr	pc, [pc, #48]	; 8284 <_undefined_instruction_asm>
    8250:	e59ff030 	ldr	pc, [pc, #48]	; 8288 <_software_interrupt_asm>
    8254:	e59ff030 	ldr	pc, [pc, #48]	; 828c <_prefetch_abort_asm>
    8258:	e59ff030 	ldr	pc, [pc, #48]	; 8290 <_data_abort_asm>
    825c:	e59ff01c 	ldr	pc, [pc, #28]	; 8280 <_reset_asm>
    8260:	e59ff02c 	ldr	pc, [pc, #44]	; 8294 <_interrupt_asm>

00008264 <fast_interrupt_asm>:
    8264:	e24ee004 	sub	lr, lr, #4
    8268:	e52de004 	push	{lr}		; (str lr, [sp, #-4]!)
    826c:	e92d1fff 	push	{r0, r1, r2, r3, r4, r5, r6, r7, r8, r9, sl, fp, ip}
    8270:	e1a0000e 	mov	r0, lr
    8274:	eb00002d 	bl	8330 <fast_interrupt_vector>
    8278:	e8bd1fff 	pop	{r0, r1, r2, r3, r4, r5, r6, r7, r8, r9, sl, fp, ip}
    827c:	e8fd8000 	ldm	sp!, {pc}^

00008280 <_reset_asm>:
    8280:	000082b4 			; <UNDEFINED> instruction: 0x000082b4

00008284 <_undefined_instruction_asm>:
    8284:	000082bc 			; <UNDEFINED> instruction: 0x000082bc

00008288 <_software_interrupt_asm>:
    8288:	000082c4 	andeq	r8, r0, r4, asr #5

0000828c <_prefetch_abort_asm>:
    828c:	000082cc 	andeq	r8, r0, ip, asr #5

00008290 <_data_abort_asm>:
    8290:	000082d4 	ldrdeq	r8, [r0], -r4

00008294 <_interrupt_asm>:
    8294:	00008298 	muleq	r0, r8, r2

00008298 <_interrupt_table_end>:
    8298:	e3a0d409 	mov	sp, #150994944	; 0x9000000
    829c:	e24ee004 	sub	lr, lr, #4
    82a0:	e92d5fff 	push	{r0, r1, r2, r3, r4, r5, r6, r7, r8, r9, sl, fp, ip, lr}
    82a4:	e1a0000e 	mov	r0, lr
    82a8:	eb00001d 	bl	8324 <interrupt_vector>
    82ac:	e8bd5fff 	pop	{r0, r1, r2, r3, r4, r5, r6, r7, r8, r9, sl, fp, ip, lr}
    82b0:	e1b0f00e 	movs	pc, lr

000082b4 <reset_asm>:
    82b4:	e24ee004 	sub	lr, lr, #4
    82b8:	eb00002c 	bl	8370 <reset_vector>

000082bc <undefined_instruction_asm>:
    82bc:	e24ee004 	sub	lr, lr, #4
    82c0:	eb000032 	bl	8390 <undefined_instruction_vector>

000082c4 <software_interrupt_asm>:
    82c4:	e24ee004 	sub	lr, lr, #4
    82c8:	eb000020 	bl	8350 <software_interrupt_vector>

000082cc <prefetch_abort_asm>:
    82cc:	e24ee004 	sub	lr, lr, #4
    82d0:	eb000036 	bl	83b0 <prefetch_abort_vector>

000082d4 <data_abort_asm>:
    82d4:	e24ee004 	sub	lr, lr, #4
    82d8:	eb00003c 	bl	83d0 <data_abort_vector>

000082dc <install_int_handlers>:
    82dc:	e59f3038 	ldr	r3, [pc, #56]	; 831c <install_int_handlers+0x40>
    82e0:	e59f0038 	ldr	r0, [pc, #56]	; 8320 <install_int_handlers+0x44>
    82e4:	e0630000 	rsb	r0, r3, r0
    82e8:	e1b00140 	asrs	r0, r0, #2
    82ec:	012fff1e 	bxeq	lr
    82f0:	e3a02000 	mov	r2, #0
    82f4:	e1a03002 	mov	r3, r2
    82f8:	e59fc01c 	ldr	ip, [pc, #28]	; 831c <install_int_handlers+0x40>
    82fc:	e1a01102 	lsl	r1, r2, #2
    8300:	e79c2102 	ldr	r2, [ip, r2, lsl #2]
    8304:	e5812000 	str	r2, [r1]
    8308:	e2833001 	add	r3, r3, #1
    830c:	e1a02003 	mov	r2, r3
    8310:	e1530000 	cmp	r3, r0
    8314:	1afffff8 	bne	82fc <install_int_handlers+0x20>
    8318:	e12fff1e 	bx	lr
    831c:	00008248 	andeq	r8, r0, r8, asr #4
    8320:	00008298 	muleq	r0, r8, r2

00008324 <interrupt_vector>:
    8324:	e92d4008 	push	{r3, lr}
    8328:	ebffff4c 	bl	8060 <int_handler>
    832c:	e8bd8008 	pop	{r3, pc}

00008330 <fast_interrupt_vector>:
    8330:	e92d4008 	push	{r3, lr}
    8334:	e1a02000 	mov	r2, r0
    8338:	e59f0008 	ldr	r0, [pc, #8]	; 8348 <fast_interrupt_vector+0x18>
    833c:	e59f1008 	ldr	r1, [pc, #8]	; 834c <fast_interrupt_vector+0x1c>
    8340:	eb0001bf 	bl	8a44 <panic>
    8344:	e8bd8008 	pop	{r3, pc}
    8348:	00008fac 	andeq	r8, r0, ip, lsr #31
    834c:	00008fd8 	ldrdeq	r8, [r0], -r8	; <UNPREDICTABLE>

00008350 <software_interrupt_vector>:
    8350:	e92d4008 	push	{r3, lr}
    8354:	e1a02000 	mov	r2, r0
    8358:	e59f0008 	ldr	r0, [pc, #8]	; 8368 <software_interrupt_vector+0x18>
    835c:	e59f1008 	ldr	r1, [pc, #8]	; 836c <software_interrupt_vector+0x1c>
    8360:	eb0001b7 	bl	8a44 <panic>
    8364:	e8bd8008 	pop	{r3, pc}
    8368:	00008fac 	andeq	r8, r0, ip, lsr #31
    836c:	00008fe0 	andeq	r8, r0, r0, ror #31

00008370 <reset_vector>:
    8370:	e92d4008 	push	{r3, lr}
    8374:	e1a02000 	mov	r2, r0
    8378:	e59f0008 	ldr	r0, [pc, #8]	; 8388 <reset_vector+0x18>
    837c:	e59f1008 	ldr	r1, [pc, #8]	; 838c <reset_vector+0x1c>
    8380:	eb0001af 	bl	8a44 <panic>
    8384:	e8bd8008 	pop	{r3, pc}
    8388:	00008fac 	andeq	r8, r0, ip, lsr #31
    838c:	00008ff0 	strdeq	r8, [r0], -r0

00008390 <undefined_instruction_vector>:
    8390:	e92d4008 	push	{r3, lr}
    8394:	e1a02000 	mov	r2, r0
    8398:	e59f0008 	ldr	r0, [pc, #8]	; 83a8 <undefined_instruction_vector+0x18>
    839c:	e59f1008 	ldr	r1, [pc, #8]	; 83ac <undefined_instruction_vector+0x1c>
    83a0:	eb0001a7 	bl	8a44 <panic>
    83a4:	e8bd8008 	pop	{r3, pc}
    83a8:	00008fac 	andeq	r8, r0, ip, lsr #31
    83ac:	00009000 	andeq	r9, r0, r0

000083b0 <prefetch_abort_vector>:
    83b0:	e92d4008 	push	{r3, lr}
    83b4:	e1a02000 	mov	r2, r0
    83b8:	e59f0008 	ldr	r0, [pc, #8]	; 83c8 <prefetch_abort_vector+0x18>
    83bc:	e59f1008 	ldr	r1, [pc, #8]	; 83cc <prefetch_abort_vector+0x1c>
    83c0:	eb00019f 	bl	8a44 <panic>
    83c4:	e8bd8008 	pop	{r3, pc}
    83c8:	00008fac 	andeq	r8, r0, ip, lsr #31
    83cc:	00009018 	andeq	r9, r0, r8, lsl r0

000083d0 <data_abort_vector>:
    83d0:	e92d4008 	push	{r3, lr}
    83d4:	e1a02000 	mov	r2, r0
    83d8:	e59f0008 	ldr	r0, [pc, #8]	; 83e8 <data_abort_vector+0x18>
    83dc:	e59f1008 	ldr	r1, [pc, #8]	; 83ec <data_abort_vector+0x1c>
    83e0:	eb000197 	bl	8a44 <panic>
    83e4:	e8bd8008 	pop	{r3, pc}
    83e8:	00008fac 	andeq	r8, r0, ip, lsr #31
    83ec:	00009028 	andeq	r9, r0, r8, lsr #32

000083f0 <_cstart>:
    83f0:	e92d4008 	push	{r3, lr}
    83f4:	e59f3038 	ldr	r3, [pc, #56]	; 8434 <_cstart+0x44>
    83f8:	e59f2038 	ldr	r2, [pc, #56]	; 8438 <_cstart+0x48>
    83fc:	e1520003 	cmp	r2, r3
    8400:	2a000009 	bcs	842c <_cstart+0x3c>
    8404:	e2423004 	sub	r3, r2, #4
    8408:	e59f102c 	ldr	r1, [pc, #44]	; 843c <_cstart+0x4c>
    840c:	e0631001 	rsb	r1, r3, r1
    8410:	e3c11003 	bic	r1, r1, #3
    8414:	e2832004 	add	r2, r3, #4
    8418:	e0811002 	add	r1, r1, r2
    841c:	e3a02000 	mov	r2, #0
    8420:	e5a32004 	str	r2, [r3, #4]!
    8424:	e1530001 	cmp	r3, r1
    8428:	1afffffc 	bne	8420 <_cstart+0x30>
    842c:	ebffff38 	bl	8114 <notmain>
    8430:	e8bd8008 	pop	{r3, pc}
    8434:	00009598 	muleq	r0, r8, r5
    8438:	00009180 	andeq	r9, r0, r0, lsl #3
    843c:	00009593 	muleq	r0, r3, r5

00008440 <RPI_GetIRQController>:
    8440:	e92d4008 	push	{r3, lr}
    8444:	eb0001d5 	bl	8ba0 <dmb>
    8448:	eb0001d6 	bl	8ba8 <dsb>
    844c:	e59f3004 	ldr	r3, [pc, #4]	; 8458 <RPI_GetIRQController+0x18>
    8450:	e5930000 	ldr	r0, [r3]
    8454:	e8bd8008 	pop	{r3, pc}
    8458:	00008e94 	muleq	r0, r4, lr

0000845c <rpi_extract_basic_int>:
    845c:	e6ef0070 	uxtb	r0, r0
    8460:	e12fff1e 	bx	lr

00008464 <RPI_GetArmTimer>:
    8464:	e92d4008 	push	{r3, lr}
    8468:	eb0001cc 	bl	8ba0 <dmb>
    846c:	eb0001cd 	bl	8ba8 <dsb>
    8470:	e59f3004 	ldr	r3, [pc, #4]	; 847c <RPI_GetArmTimer+0x18>
    8474:	e5930004 	ldr	r0, [r3, #4]
    8478:	e8bd8008 	pop	{r3, pc}
    847c:	00008e94 	muleq	r0, r4, lr

00008480 <timer_interrupt_init>:
    8480:	e92d4010 	push	{r4, lr}
    8484:	e1a04000 	mov	r4, r0
    8488:	e59f003c 	ldr	r0, [pc, #60]	; 84cc <timer_interrupt_init+0x4c>
    848c:	e3e01000 	mvn	r1, #0
    8490:	eb0001c8 	bl	8bb8 <PUT32>
    8494:	e59f0034 	ldr	r0, [pc, #52]	; 84d0 <timer_interrupt_init+0x50>
    8498:	e3e01000 	mvn	r1, #0
    849c:	eb0001c5 	bl	8bb8 <PUT32>
    84a0:	eb0001be 	bl	8ba0 <dmb>
    84a4:	eb0001bf 	bl	8ba8 <dsb>
    84a8:	ebffffe4 	bl	8440 <RPI_GetIRQController>
    84ac:	e3a03001 	mov	r3, #1
    84b0:	e5803018 	str	r3, [r0, #24]
    84b4:	ebffffea 	bl	8464 <RPI_GetArmTimer>
    84b8:	e5804000 	str	r4, [r0]
    84bc:	ebffffe8 	bl	8464 <RPI_GetArmTimer>
    84c0:	e3a030aa 	mov	r3, #170	; 0xaa
    84c4:	e5803008 	str	r3, [r0, #8]
    84c8:	e8bd8010 	pop	{r4, pc}
    84cc:	2000b21c 	andcs	fp, r0, ip, lsl r2
    84d0:	2000b220 	andcs	fp, r0, r0, lsr #4

000084d4 <rpi_putchar>:
    84d4:	e92d4010 	push	{r4, lr}
    84d8:	e1a04000 	mov	r4, r0
    84dc:	eb000218 	bl	8d44 <uart_putc>
    84e0:	e1a00004 	mov	r0, r4
    84e4:	e8bd8010 	pop	{r4, pc}

000084e8 <printk>:
    84e8:	e92d000f 	push	{r0, r1, r2, r3}
    84ec:	e92d4030 	push	{r4, r5, lr}
    84f0:	e24dd00c 	sub	sp, sp, #12
    84f4:	e28d301c 	add	r3, sp, #28
    84f8:	e58d3004 	str	r3, [sp, #4]
    84fc:	e59f4040 	ldr	r4, [pc, #64]	; 8544 <printk+0x5c>
    8500:	e1a00004 	mov	r0, r4
    8504:	e3a01b01 	mov	r1, #1024	; 0x400
    8508:	e59d2018 	ldr	r2, [sp, #24]
    850c:	eb00008c 	bl	8744 <va_printk>
    8510:	e1a05000 	mov	r5, r0
    8514:	e5d40000 	ldrb	r0, [r4]
    8518:	e3500000 	cmp	r0, #0
    851c:	0a000003 	beq	8530 <printk+0x48>
    8520:	eb000207 	bl	8d44 <uart_putc>
    8524:	e5f40001 	ldrb	r0, [r4, #1]!
    8528:	e3500000 	cmp	r0, #0
    852c:	1afffffb 	bne	8520 <printk+0x38>
    8530:	e1a00005 	mov	r0, r5
    8534:	e28dd00c 	add	sp, sp, #12
    8538:	e8bd4030 	pop	{r4, r5, lr}
    853c:	e28dd010 	add	sp, sp, #16
    8540:	e12fff1e 	bx	lr
    8544:	00009194 	muleq	r0, r4, r1

00008548 <emit>:
    8548:	e92d43f0 	push	{r4, r5, r6, r7, r8, r9, lr}
    854c:	e24dd044 	sub	sp, sp, #68	; 0x44
    8550:	e59d5060 	ldr	r5, [sp, #96]	; 0x60
    8554:	e1550002 	cmp	r5, r2
    8558:	c2425001 	subgt	r5, r2, #1
    855c:	e1a0c003 	mov	ip, r3
    8560:	e2400002 	sub	r0, r0, #2
    8564:	e350000e 	cmp	r0, #14
    8568:	979ff100 	ldrls	pc, [pc, r0, lsl #2]
    856c:	ea00003f 	b	8670 <emit+0x128>
    8570:	00008648 	andeq	r8, r0, r8, asr #12
    8574:	00008670 	andeq	r8, r0, r0, ror r6
    8578:	00008670 	andeq	r8, r0, r0, ror r6
    857c:	00008670 	andeq	r8, r0, r0, ror r6
    8580:	00008670 	andeq	r8, r0, r0, ror r6
    8584:	00008670 	andeq	r8, r0, r0, ror r6
    8588:	0000863c 	andeq	r8, r0, ip, lsr r6
    858c:	00008670 	andeq	r8, r0, r0, ror r6
    8590:	000085ac 	andeq	r8, r0, ip, lsr #11
    8594:	00008670 	andeq	r8, r0, r0, ror r6
    8598:	00008670 	andeq	r8, r0, r0, ror r6
    859c:	00008670 	andeq	r8, r0, r0, ror r6
    85a0:	00008670 	andeq	r8, r0, r0, ror r6
    85a4:	00008670 	andeq	r8, r0, r0, ror r6
    85a8:	00008614 	andeq	r8, r0, r4, lsl r6
    85ac:	e59d0064 	ldr	r0, [sp, #100]	; 0x64
    85b0:	e2900000 	adds	r0, r0, #0
    85b4:	13a00001 	movne	r0, #1
    85b8:	e0100fa3 	ands	r0, r0, r3, lsr #31
    85bc:	1263c000 	rsbne	ip, r3, #0
    85c0:	13a09001 	movne	r9, #1
    85c4:	03a09000 	moveq	r9, #0
    85c8:	e1a0000d 	mov	r0, sp
    85cc:	e59f8154 	ldr	r8, [pc, #340]	; 8728 <emit+0x1e0>
    85d0:	e59f7154 	ldr	r7, [pc, #340]	; 872c <emit+0x1e4>
    85d4:	e1a03000 	mov	r3, r0
    85d8:	e0846c97 	umull	r6, r4, r7, ip
    85dc:	e1a041a4 	lsr	r4, r4, #3
    85e0:	e0846104 	add	r6, r4, r4, lsl #2
    85e4:	e04cc086 	sub	ip, ip, r6, lsl #1
    85e8:	e7d8c00c 	ldrb	ip, [r8, ip]
    85ec:	e4c3c001 	strb	ip, [r3], #1
    85f0:	e1a0c004 	mov	ip, r4
    85f4:	e3540000 	cmp	r4, #0
    85f8:	11a00003 	movne	r0, r3
    85fc:	1afffff4 	bne	85d4 <emit+0x8c>
    8600:	e3590000 	cmp	r9, #0
    8604:	12803002 	addne	r3, r0, #2
    8608:	13a0c02d 	movne	ip, #45	; 0x2d
    860c:	15c0c001 	strbne	ip, [r0, #1]
    8610:	ea00001c 	b	8688 <emit+0x140>
    8614:	e28d4001 	add	r4, sp, #1
    8618:	e59f6110 	ldr	r6, [pc, #272]	; 8730 <emit+0x1e8>
    861c:	e1a03004 	mov	r3, r4
    8620:	e20c000f 	and	r0, ip, #15
    8624:	e7d60000 	ldrb	r0, [r6, r0]
    8628:	e5440001 	strb	r0, [r4, #-1]
    862c:	e2844001 	add	r4, r4, #1
    8630:	e1b0c22c 	lsrs	ip, ip, #4
    8634:	1afffff8 	bne	861c <emit+0xd4>
    8638:	ea000012 	b	8688 <emit+0x140>
    863c:	e5cd3000 	strb	r3, [sp]
    8640:	e28d3001 	add	r3, sp, #1
    8644:	ea00000f 	b	8688 <emit+0x140>
    8648:	e28d4001 	add	r4, sp, #1
    864c:	e59f60e0 	ldr	r6, [pc, #224]	; 8734 <emit+0x1ec>
    8650:	e1a03004 	mov	r3, r4
    8654:	e20c0001 	and	r0, ip, #1
    8658:	e7d60000 	ldrb	r0, [r6, r0]
    865c:	e5440001 	strb	r0, [r4, #-1]
    8660:	e2844001 	add	r4, r4, #1
    8664:	e1b0c0ac 	lsrs	ip, ip, #1
    8668:	1afffff8 	bne	8650 <emit+0x108>
    866c:	ea000005 	b	8688 <emit+0x140>
    8670:	e59f00c0 	ldr	r0, [pc, #192]	; 8738 <emit+0x1f0>
    8674:	e59f10c0 	ldr	r1, [pc, #192]	; 873c <emit+0x1f4>
    8678:	e59f20c0 	ldr	r2, [pc, #192]	; 8740 <emit+0x1f8>
    867c:	e3a0308d 	mov	r3, #141	; 0x8d
    8680:	ebffff98 	bl	84e8 <printk>
    8684:	eb000107 	bl	8aa8 <rpi_reboot>
    8688:	e1a0400d 	mov	r4, sp
    868c:	e064c003 	rsb	ip, r4, r3
    8690:	e155000c 	cmp	r5, ip
    8694:	da000006 	ble	86b4 <emit+0x16c>
    8698:	e06cc005 	rsb	ip, ip, r5
    869c:	e083c00c 	add	ip, r3, ip
    86a0:	e3a00020 	mov	r0, #32
    86a4:	e4c30001 	strb	r0, [r3], #1
    86a8:	e153000c 	cmp	r3, ip
    86ac:	1afffffc 	bne	86a4 <emit+0x15c>
    86b0:	ea000000 	b	86b8 <emit+0x170>
    86b4:	e1a0c003 	mov	ip, r3
    86b8:	e3a03000 	mov	r3, #0
    86bc:	e5cc3000 	strb	r3, [ip]
    86c0:	e064400c 	rsb	r4, r4, ip
    86c4:	e2844001 	add	r4, r4, #1
    86c8:	e1520004 	cmp	r2, r4
    86cc:	b0624004 	rsblt	r4, r2, r4
    86d0:	b08d3003 	addlt	r3, sp, r3
    86d4:	b0834004 	addlt	r4, r3, r4
    86d8:	a1a0400d 	movge	r4, sp
    86dc:	e24c3001 	sub	r3, ip, #1
    86e0:	e1540003 	cmp	r4, r3
    86e4:	8a000009 	bhi	8710 <emit+0x1c8>
    86e8:	e1a0000c 	mov	r0, ip
    86ec:	e1a0300c 	mov	r3, ip
    86f0:	e1a02001 	mov	r2, r1
    86f4:	e573c001 	ldrb	ip, [r3, #-1]!
    86f8:	e4c2c001 	strb	ip, [r2], #1
    86fc:	e1530004 	cmp	r3, r4
    8700:	1afffffb 	bne	86f4 <emit+0x1ac>
    8704:	e0644000 	rsb	r4, r4, r0
    8708:	e0814004 	add	r4, r1, r4
    870c:	ea000000 	b	8714 <emit+0x1cc>
    8710:	e1a04001 	mov	r4, r1
    8714:	e3a03000 	mov	r3, #0
    8718:	e5c43000 	strb	r3, [r4]
    871c:	e1a00001 	mov	r0, r1
    8720:	e28dd044 	add	sp, sp, #68	; 0x44
    8724:	e8bd83f0 	pop	{r4, r5, r6, r7, r8, r9, pc}
    8728:	0000906c 	andeq	r9, r0, ip, rrx
    872c:	cccccccd 	stclgt	12, cr12, [ip], {205}	; 0xcd
    8730:	00009078 	andeq	r9, r0, r8, ror r0
    8734:	0000908c 	andeq	r9, r0, ip, lsl #1
    8738:	00009048 	andeq	r9, r0, r8, asr #32
    873c:	0000905c 	andeq	r9, r0, ip, asr r0
    8740:	00009034 	andeq	r9, r0, r4, lsr r0

00008744 <va_printk>:
    8744:	e92d4ff0 	push	{r4, r5, r6, r7, r8, r9, sl, fp, lr}
    8748:	e24dd08c 	sub	sp, sp, #140	; 0x8c
    874c:	e1a07000 	mov	r7, r0
    8750:	e2411001 	sub	r1, r1, #1
    8754:	e0805001 	add	r5, r0, r1
    8758:	e3a01000 	mov	r1, #0
    875c:	e5c01000 	strb	r1, [r0]
    8760:	e1a04000 	mov	r4, r0
    8764:	e1a08001 	mov	r8, r1
    8768:	e3a0a008 	mov	sl, #8
    876c:	e3a09080 	mov	r9, #128	; 0x80
    8770:	ea000088 	b	8998 <va_printk+0x254>
    8774:	e3510025 	cmp	r1, #37	; 0x25
    8778:	12822001 	addne	r2, r2, #1
    877c:	15c41000 	strbne	r1, [r4]
    8780:	12844001 	addne	r4, r4, #1
    8784:	1a000083 	bne	8998 <va_printk+0x254>
    8788:	e5d21001 	ldrb	r1, [r2, #1]
    878c:	e3510025 	cmp	r1, #37	; 0x25
    8790:	05c41000 	strbeq	r1, [r4]
    8794:	02822002 	addeq	r2, r2, #2
    8798:	02844001 	addeq	r4, r4, #1
    879c:	0a00007d 	beq	8998 <va_printk+0x254>
    87a0:	e2826001 	add	r6, r2, #1
    87a4:	e1a00001 	mov	r0, r1
    87a8:	e241c030 	sub	ip, r1, #48	; 0x30
    87ac:	e35c0009 	cmp	ip, #9
    87b0:	8a000012 	bhi	8800 <va_printk+0xbc>
    87b4:	e2822002 	add	r2, r2, #2
    87b8:	e1a0c008 	mov	ip, r8
    87bc:	e08cc10c 	add	ip, ip, ip, lsl #2
    87c0:	e080c08c 	add	ip, r0, ip, lsl #1
    87c4:	e24cc030 	sub	ip, ip, #48	; 0x30
    87c8:	e1a06002 	mov	r6, r2
    87cc:	e4d21001 	ldrb	r1, [r2], #1
    87d0:	e1a00001 	mov	r0, r1
    87d4:	e241b030 	sub	fp, r1, #48	; 0x30
    87d8:	e35b0009 	cmp	fp, #9
    87dc:	9afffff6 	bls	87bc <va_printk+0x78>
    87e0:	e35c001f 	cmp	ip, #31
    87e4:	9a000007 	bls	8808 <va_printk+0xc4>
    87e8:	e59f01e8 	ldr	r0, [pc, #488]	; 89d8 <va_printk+0x294>
    87ec:	e59f11e8 	ldr	r1, [pc, #488]	; 89dc <va_printk+0x298>
    87f0:	e59f21e8 	ldr	r2, [pc, #488]	; 89e0 <va_printk+0x29c>
    87f4:	e3a030a9 	mov	r3, #169	; 0xa9
    87f8:	ebffff3a 	bl	84e8 <printk>
    87fc:	eb0000a9 	bl	8aa8 <rpi_reboot>
    8800:	e1a00001 	mov	r0, r1
    8804:	e1a0c008 	mov	ip, r8
    8808:	e2411062 	sub	r1, r1, #98	; 0x62
    880c:	e3510016 	cmp	r1, #22
    8810:	979ff101 	ldrls	pc, [pc, r1, lsl #2]
    8814:	ea000052 	b	8964 <va_printk+0x220>
    8818:	00008908 	andeq	r8, r0, r8, lsl #18
    881c:	0000893c 	andeq	r8, r0, ip, lsr r9
    8820:	0000888c 	andeq	r8, r0, ip, lsl #17
    8824:	00008964 	andeq	r8, r0, r4, ror #18
    8828:	00008874 	andeq	r8, r0, r4, ror r8
    882c:	00008964 	andeq	r8, r0, r4, ror #18
    8830:	00008964 	andeq	r8, r0, r4, ror #18
    8834:	00008964 	andeq	r8, r0, r4, ror #18
    8838:	00008964 	andeq	r8, r0, r4, ror #18
    883c:	00008964 	andeq	r8, r0, r4, ror #18
    8840:	00008964 	andeq	r8, r0, r4, ror #18
    8844:	00008964 	andeq	r8, r0, r4, ror #18
    8848:	00008964 	andeq	r8, r0, r4, ror #18
    884c:	00008964 	andeq	r8, r0, r4, ror #18
    8850:	000088e0 	andeq	r8, r0, r0, ror #17
    8854:	00008964 	andeq	r8, r0, r4, ror #18
    8858:	00008964 	andeq	r8, r0, r4, ror #18
    885c:	00008930 	andeq	r8, r0, r0, lsr r9
    8860:	00008964 	andeq	r8, r0, r4, ror #18
    8864:	000088b8 			; <UNDEFINED> instruction: 0x000088b8
    8868:	00008964 	andeq	r8, r0, r4, ror #18
    886c:	00008964 	andeq	r8, r0, r4, ror #18
    8870:	000088e0 	andeq	r8, r0, r0, ror #17
    8874:	e59f0168 	ldr	r0, [pc, #360]	; 89e4 <va_printk+0x2a0>
    8878:	e59f115c 	ldr	r1, [pc, #348]	; 89dc <va_printk+0x298>
    887c:	e59f215c 	ldr	r2, [pc, #348]	; 89e0 <va_printk+0x29c>
    8880:	e3a030af 	mov	r3, #175	; 0xaf
    8884:	ebffff17 	bl	84e8 <printk>
    8888:	eb000086 	bl	8aa8 <rpi_reboot>
    888c:	e283b004 	add	fp, r3, #4
    8890:	e5933000 	ldr	r3, [r3]
    8894:	e58dc000 	str	ip, [sp]
    8898:	e3a02001 	mov	r2, #1
    889c:	e58d2004 	str	r2, [sp, #4]
    88a0:	e3a0000a 	mov	r0, #10
    88a4:	e28d1008 	add	r1, sp, #8
    88a8:	e1a02009 	mov	r2, r9
    88ac:	ebffff25 	bl	8548 <emit>
    88b0:	e1a0300b 	mov	r3, fp
    88b4:	ea000040 	b	89bc <va_printk+0x278>
    88b8:	e283b004 	add	fp, r3, #4
    88bc:	e5933000 	ldr	r3, [r3]
    88c0:	e58dc000 	str	ip, [sp]
    88c4:	e58d8004 	str	r8, [sp, #4]
    88c8:	e3a0000a 	mov	r0, #10
    88cc:	e28d1008 	add	r1, sp, #8
    88d0:	e1a02009 	mov	r2, r9
    88d4:	ebffff1b 	bl	8548 <emit>
    88d8:	e1a0300b 	mov	r3, fp
    88dc:	ea000036 	b	89bc <va_printk+0x278>
    88e0:	e283b004 	add	fp, r3, #4
    88e4:	e5933000 	ldr	r3, [r3]
    88e8:	e58dc000 	str	ip, [sp]
    88ec:	e58d8004 	str	r8, [sp, #4]
    88f0:	e3a00010 	mov	r0, #16
    88f4:	e28d1008 	add	r1, sp, #8
    88f8:	e1a02009 	mov	r2, r9
    88fc:	ebffff11 	bl	8548 <emit>
    8900:	e1a0300b 	mov	r3, fp
    8904:	ea00002c 	b	89bc <va_printk+0x278>
    8908:	e283b004 	add	fp, r3, #4
    890c:	e5933000 	ldr	r3, [r3]
    8910:	e58dc000 	str	ip, [sp]
    8914:	e58d8004 	str	r8, [sp, #4]
    8918:	e3a00002 	mov	r0, #2
    891c:	e28d1008 	add	r1, sp, #8
    8920:	e1a02009 	mov	r2, r9
    8924:	ebffff07 	bl	8548 <emit>
    8928:	e1a0300b 	mov	r3, fp
    892c:	ea000022 	b	89bc <va_printk+0x278>
    8930:	e5930000 	ldr	r0, [r3]
    8934:	e2833004 	add	r3, r3, #4
    8938:	ea00001f 	b	89bc <va_printk+0x278>
    893c:	e283b004 	add	fp, r3, #4
    8940:	e5933000 	ldr	r3, [r3]
    8944:	e58dc000 	str	ip, [sp]
    8948:	e58d8004 	str	r8, [sp, #4]
    894c:	e1a0000a 	mov	r0, sl
    8950:	e28d1008 	add	r1, sp, #8
    8954:	e1a02009 	mov	r2, r9
    8958:	ebfffefa 	bl	8548 <emit>
    895c:	e1a0300b 	mov	r3, fp
    8960:	ea000015 	b	89bc <va_printk+0x278>
    8964:	e58d0000 	str	r0, [sp]
    8968:	e59f0078 	ldr	r0, [pc, #120]	; 89e8 <va_printk+0x2a4>
    896c:	e59f1068 	ldr	r1, [pc, #104]	; 89dc <va_printk+0x298>
    8970:	e59f2068 	ldr	r2, [pc, #104]	; 89e0 <va_printk+0x29c>
    8974:	e3a030d0 	mov	r3, #208	; 0xd0
    8978:	ebfffeda 	bl	84e8 <printk>
    897c:	eb000049 	bl	8aa8 <rpi_reboot>
    8980:	e4c41001 	strb	r1, [r4], #1
    8984:	e1540005 	cmp	r4, r5
    8988:	0a000002 	beq	8998 <va_printk+0x254>
    898c:	e5f01001 	ldrb	r1, [r0, #1]!
    8990:	e3510000 	cmp	r1, #0
    8994:	1afffff9 	bne	8980 <va_printk+0x23c>
    8998:	e5d21000 	ldrb	r1, [r2]
    899c:	e3510000 	cmp	r1, #0
    89a0:	0a000001 	beq	89ac <va_printk+0x268>
    89a4:	e1540005 	cmp	r4, r5
    89a8:	3affff71 	bcc	8774 <va_printk+0x30>
    89ac:	e3a03000 	mov	r3, #0
    89b0:	e4c43001 	strb	r3, [r4], #1
    89b4:	e0670004 	rsb	r0, r7, r4
    89b8:	ea000004 	b	89d0 <va_printk+0x28c>
    89bc:	e2862001 	add	r2, r6, #1
    89c0:	e5d01000 	ldrb	r1, [r0]
    89c4:	e3510000 	cmp	r1, #0
    89c8:	0afffff2 	beq	8998 <va_printk+0x254>
    89cc:	eaffffeb 	b	8980 <va_printk+0x23c>
    89d0:	e28dd08c 	add	sp, sp, #140	; 0x8c
    89d4:	e8bd8ff0 	pop	{r4, r5, r6, r7, r8, r9, sl, fp, pc}
    89d8:	00009090 	muleq	r0, r0, r0
    89dc:	0000905c 	andeq	r9, r0, ip, asr r0
    89e0:	0000903c 	andeq	r9, r0, ip, lsr r0
    89e4:	000090ac 	andeq	r9, r0, ip, lsr #1
    89e8:	000090d4 	ldrdeq	r9, [r0], -r4

000089ec <snprintk>:
    89ec:	e92d000c 	push	{r2, r3}
    89f0:	e52de004 	push	{lr}		; (str lr, [sp, #-4]!)
    89f4:	e24dd00c 	sub	sp, sp, #12
    89f8:	e28d3014 	add	r3, sp, #20
    89fc:	e58d3004 	str	r3, [sp, #4]
    8a00:	e59d2010 	ldr	r2, [sp, #16]
    8a04:	ebffff4e 	bl	8744 <va_printk>
    8a08:	e28dd00c 	add	sp, sp, #12
    8a0c:	e49de004 	pop	{lr}		; (ldr lr, [sp], #4)
    8a10:	e28dd008 	add	sp, sp, #8
    8a14:	e12fff1e 	bx	lr

00008a18 <putk>:
    8a18:	e92d4010 	push	{r4, lr}
    8a1c:	e1a04000 	mov	r4, r0
    8a20:	e5d00000 	ldrb	r0, [r0]
    8a24:	e3500000 	cmp	r0, #0
    8a28:	0a000003 	beq	8a3c <putk+0x24>
    8a2c:	eb0000c4 	bl	8d44 <uart_putc>
    8a30:	e5f40001 	ldrb	r0, [r4, #1]!
    8a34:	e3500000 	cmp	r0, #0
    8a38:	1afffffb 	bne	8a2c <putk+0x14>
    8a3c:	e3a00001 	mov	r0, #1
    8a40:	e8bd8010 	pop	{r4, pc}

00008a44 <panic>:
    8a44:	e92d4008 	push	{r3, lr}
    8a48:	e1a06000 	mov	r6, r0
    8a4c:	e1a05001 	mov	r5, r1
    8a50:	e1a04002 	mov	r4, r2
    8a54:	e59f0018 	ldr	r0, [pc, #24]	; 8a74 <panic+0x30>
    8a58:	ebffffee 	bl	8a18 <putk>
    8a5c:	e59f0014 	ldr	r0, [pc, #20]	; 8a78 <panic+0x34>
    8a60:	e1a01006 	mov	r1, r6
    8a64:	e1a02005 	mov	r2, r5
    8a68:	e1a03004 	mov	r3, r4
    8a6c:	ebfffe9d 	bl	84e8 <printk>
    8a70:	eb00000c 	bl	8aa8 <rpi_reboot>
    8a74:	0000910c 	andeq	r9, r0, ip, lsl #2
    8a78:	00009118 	andeq	r9, r0, r8, lsl r1

00008a7c <at_user_level>:
    8a7c:	e10f0000 	mrs	r0, CPSR
    8a80:	e200001f 	and	r0, r0, #31
    8a84:	e3500010 	cmp	r0, #16
    8a88:	13a00000 	movne	r0, #0
    8a8c:	03a00001 	moveq	r0, #1
    8a90:	e12fff1e 	bx	lr

00008a94 <set_user_level>:
    8a94:	e10f3000 	mrs	r3, CPSR
    8a98:	e3c3301f 	bic	r3, r3, #31
    8a9c:	e3833010 	orr	r3, r3, #16
    8aa0:	e129f003 	msr	CPSR_fc, r3
    8aa4:	e12fff1e 	bx	lr

00008aa8 <rpi_reboot>:
    8aa8:	e92d4008 	push	{r3, lr}
    8aac:	ebfffff2 	bl	8a7c <at_user_level>
    8ab0:	e3500000 	cmp	r0, #0
    8ab4:	0a000009 	beq	8ae0 <rpi_reboot+0x38>
    8ab8:	ebfffff5 	bl	8a94 <set_user_level>
    8abc:	ebffffee 	bl	8a7c <at_user_level>
    8ac0:	e3500000 	cmp	r0, #0
    8ac4:	1a000005 	bne	8ae0 <rpi_reboot+0x38>
    8ac8:	e59f0034 	ldr	r0, [pc, #52]	; 8b04 <rpi_reboot+0x5c>
    8acc:	e59f1034 	ldr	r1, [pc, #52]	; 8b08 <rpi_reboot+0x60>
    8ad0:	e59f2034 	ldr	r2, [pc, #52]	; 8b0c <rpi_reboot+0x64>
    8ad4:	e3a0301f 	mov	r3, #31
    8ad8:	ebfffe82 	bl	84e8 <printk>
    8adc:	ebfffff1 	bl	8aa8 <rpi_reboot>
    8ae0:	e3a0001e 	mov	r0, #30
    8ae4:	eb000022 	bl	8b74 <delay_ms>
    8ae8:	e59f0020 	ldr	r0, [pc, #32]	; 8b10 <rpi_reboot+0x68>
    8aec:	e59f1020 	ldr	r1, [pc, #32]	; 8b14 <rpi_reboot+0x6c>
    8af0:	eb000030 	bl	8bb8 <PUT32>
    8af4:	e59f001c 	ldr	r0, [pc, #28]	; 8b18 <rpi_reboot+0x70>
    8af8:	e59f101c 	ldr	r1, [pc, #28]	; 8b1c <rpi_reboot+0x74>
    8afc:	eb00002d 	bl	8bb8 <PUT32>
    8b00:	eafffffe 	b	8b00 <rpi_reboot+0x58>
    8b04:	00009144 	andeq	r9, r0, r4, asr #2
    8b08:	00009164 	andeq	r9, r0, r4, ror #2
    8b0c:	00009138 	andeq	r9, r0, r8, lsr r1
    8b10:	20100024 	andscs	r0, r0, r4, lsr #32
    8b14:	5a000001 	bpl	8b20 <clean_reboot>
    8b18:	2010001c 	andscs	r0, r0, ip, lsl r0
    8b1c:	5a000020 	bpl	8ba4 <dmb+0x4>

00008b20 <clean_reboot>:
    8b20:	e92d4008 	push	{r3, lr}
    8b24:	e59f000c 	ldr	r0, [pc, #12]	; 8b38 <clean_reboot+0x18>
    8b28:	ebffffba 	bl	8a18 <putk>
    8b2c:	e3a00032 	mov	r0, #50	; 0x32
    8b30:	eb00000f 	bl	8b74 <delay_ms>
    8b34:	ebffffdb 	bl	8aa8 <rpi_reboot>
    8b38:	00009174 	andeq	r9, r0, r4, ror r1

00008b3c <timer_get_time>:
    8b3c:	e92d4008 	push	{r3, lr}
    8b40:	e59f0004 	ldr	r0, [pc, #4]	; 8b4c <timer_get_time+0x10>
    8b44:	eb000023 	bl	8bd8 <GET32>
    8b48:	e8bd8008 	pop	{r3, pc}
    8b4c:	20003004 	andcs	r3, r0, r4

00008b50 <delay_us>:
    8b50:	e92d4038 	push	{r3, r4, r5, lr}
    8b54:	e1a05000 	mov	r5, r0
    8b58:	ebfffff7 	bl	8b3c <timer_get_time>
    8b5c:	e1a04000 	mov	r4, r0
    8b60:	ebfffff5 	bl	8b3c <timer_get_time>
    8b64:	e0640000 	rsb	r0, r4, r0
    8b68:	e1500005 	cmp	r0, r5
    8b6c:	3afffffb 	bcc	8b60 <delay_us+0x10>
    8b70:	e8bd8038 	pop	{r3, r4, r5, pc}

00008b74 <delay_ms>:
    8b74:	e92d4008 	push	{r3, lr}
    8b78:	e3a03ffa 	mov	r3, #1000	; 0x3e8
    8b7c:	e0000093 	mul	r0, r3, r0
    8b80:	ebfffff2 	bl	8b50 <delay_us>
    8b84:	e8bd8008 	pop	{r3, pc}

00008b88 <mb>:
    8b88:	e3a00000 	mov	r0, #0
    8b8c:	ee070f15 	mcr	15, 0, r0, cr7, cr5, {0}
    8b90:	ee070fd5 	mcr	15, 0, r0, cr7, cr5, {6}
    8b94:	ee070f9a 	mcr	15, 0, r0, cr7, cr10, {4}
    8b98:	ee070f95 	mcr	15, 0, r0, cr7, cr5, {4}
    8b9c:	e12fff1e 	bx	lr

00008ba0 <dmb>:
    8ba0:	ee070fba 	mcr	15, 0, r0, cr7, cr10, {5}
    8ba4:	e12fff1e 	bx	lr

00008ba8 <dsb>:
    8ba8:	ee070f9a 	mcr	15, 0, r0, cr7, cr10, {4}
    8bac:	e12fff1e 	bx	lr

00008bb0 <put32>:
    8bb0:	e5801000 	str	r1, [r0]
    8bb4:	e12fff1e 	bx	lr

00008bb8 <PUT32>:
    8bb8:	e5801000 	str	r1, [r0]
    8bbc:	e12fff1e 	bx	lr

00008bc0 <PUT16>:
    8bc0:	e1c010b0 	strh	r1, [r0]
    8bc4:	e12fff1e 	bx	lr

00008bc8 <PUT8>:
    8bc8:	e5c01000 	strb	r1, [r0]
    8bcc:	e12fff1e 	bx	lr

00008bd0 <get32>:
    8bd0:	e5900000 	ldr	r0, [r0]
    8bd4:	e12fff1e 	bx	lr

00008bd8 <GET32>:
    8bd8:	e5900000 	ldr	r0, [r0]
    8bdc:	e12fff1e 	bx	lr

00008be0 <GETPC>:
    8be0:	e1a0000e 	mov	r0, lr
    8be4:	e12fff1e 	bx	lr

00008be8 <dummy>:
    8be8:	e12fff1e 	bx	lr

00008bec <dev_barrier>:
    8bec:	e92d4008 	push	{r3, lr}
    8bf0:	ebffffea 	bl	8ba0 <dmb>
    8bf4:	ebffffeb 	bl	8ba8 <dsb>
    8bf8:	e8bd8008 	pop	{r3, pc}

00008bfc <init_gpio>:
    8bfc:	e92d4008 	push	{r3, lr}
    8c00:	e3a0000e 	mov	r0, #14
    8c04:	e3a01002 	mov	r1, #2
    8c08:	eb00005a 	bl	8d78 <gpio_set_function>
    8c0c:	e3a0000f 	mov	r0, #15
    8c10:	e3a01002 	mov	r1, #2
    8c14:	eb000057 	bl	8d78 <gpio_set_function>
    8c18:	e8bd8008 	pop	{r3, pc}

00008c1c <clear_txrx>:
    8c1c:	e92d4010 	push	{r4, lr}
    8c20:	e59f4014 	ldr	r4, [pc, #20]	; 8c3c <clear_txrx+0x20>
    8c24:	e1a00004 	mov	r0, r4
    8c28:	ebffffe8 	bl	8bd0 <get32>
    8c2c:	e3c01003 	bic	r1, r0, #3
    8c30:	e1a00004 	mov	r0, r4
    8c34:	ebffffdd 	bl	8bb0 <put32>
    8c38:	e8bd8010 	pop	{r4, pc}
    8c3c:	20215060 	eorcs	r5, r1, r0, rrx

00008c40 <set_txrx>:
    8c40:	e92d4010 	push	{r4, lr}
    8c44:	e59f4014 	ldr	r4, [pc, #20]	; 8c60 <set_txrx+0x20>
    8c48:	e1a00004 	mov	r0, r4
    8c4c:	ebffffdf 	bl	8bd0 <get32>
    8c50:	e3801003 	orr	r1, r0, #3
    8c54:	e1a00004 	mov	r0, r4
    8c58:	ebffffd4 	bl	8bb0 <put32>
    8c5c:	e8bd8010 	pop	{r4, pc}
    8c60:	20215060 	eorcs	r5, r1, r0, rrx

00008c64 <set_baudrate>:
    8c64:	e92d4008 	push	{r3, lr}
    8c68:	e59f0008 	ldr	r0, [pc, #8]	; 8c78 <set_baudrate+0x14>
    8c6c:	e59f1008 	ldr	r1, [pc, #8]	; 8c7c <set_baudrate+0x18>
    8c70:	ebffffce 	bl	8bb0 <put32>
    8c74:	e8bd8008 	pop	{r3, pc}
    8c78:	20215068 	eorcs	r5, r1, r8, rrx
    8c7c:	0000010e 	andeq	r0, r0, lr, lsl #2

00008c80 <set_bitmode>:
    8c80:	e92d4010 	push	{r4, lr}
    8c84:	e59f4014 	ldr	r4, [pc, #20]	; 8ca0 <set_bitmode+0x20>
    8c88:	e1a00004 	mov	r0, r4
    8c8c:	ebffffcf 	bl	8bd0 <get32>
    8c90:	e3801003 	orr	r1, r0, #3
    8c94:	e1a00004 	mov	r0, r4
    8c98:	ebffffc4 	bl	8bb0 <put32>
    8c9c:	e8bd8010 	pop	{r4, pc}
    8ca0:	2021504c 	eorcs	r5, r1, ip, asr #32

00008ca4 <clear_fifo_queues>:
    8ca4:	e92d4010 	push	{r4, lr}
    8ca8:	e59f4014 	ldr	r4, [pc, #20]	; 8cc4 <clear_fifo_queues+0x20>
    8cac:	e1a00004 	mov	r0, r4
    8cb0:	ebffffc6 	bl	8bd0 <get32>
    8cb4:	e3801006 	orr	r1, r0, #6
    8cb8:	e1a00004 	mov	r0, r4
    8cbc:	ebffffbb 	bl	8bb0 <put32>
    8cc0:	e8bd8010 	pop	{r4, pc}
    8cc4:	20215048 	eorcs	r5, r1, r8, asr #32

00008cc8 <uart_init>:
    8cc8:	e92d4010 	push	{r4, lr}
    8ccc:	ebffffc6 	bl	8bec <dev_barrier>
    8cd0:	ebffffc9 	bl	8bfc <init_gpio>
    8cd4:	ebffffc4 	bl	8bec <dev_barrier>
    8cd8:	e59f4030 	ldr	r4, [pc, #48]	; 8d10 <uart_init+0x48>
    8cdc:	e1a00004 	mov	r0, r4
    8ce0:	ebffffba 	bl	8bd0 <get32>
    8ce4:	e3801001 	orr	r1, r0, #1
    8ce8:	e1a00004 	mov	r0, r4
    8cec:	ebffffaf 	bl	8bb0 <put32>
    8cf0:	ebffffbd 	bl	8bec <dev_barrier>
    8cf4:	ebffffc8 	bl	8c1c <clear_txrx>
    8cf8:	ebffffd9 	bl	8c64 <set_baudrate>
    8cfc:	ebffffdf 	bl	8c80 <set_bitmode>
    8d00:	ebffffe7 	bl	8ca4 <clear_fifo_queues>
    8d04:	ebffffcd 	bl	8c40 <set_txrx>
    8d08:	ebffffb7 	bl	8bec <dev_barrier>
    8d0c:	e8bd8010 	pop	{r4, pc}
    8d10:	20215004 	eorcs	r5, r1, r4

00008d14 <uart_getc>:
    8d14:	e92d4010 	push	{r4, lr}
    8d18:	e59f401c 	ldr	r4, [pc, #28]	; 8d3c <uart_getc+0x28>
    8d1c:	e1a00004 	mov	r0, r4
    8d20:	ebffffaa 	bl	8bd0 <get32>
    8d24:	e3100001 	tst	r0, #1
    8d28:	0afffffb 	beq	8d1c <uart_getc+0x8>
    8d2c:	e59f000c 	ldr	r0, [pc, #12]	; 8d40 <uart_getc+0x2c>
    8d30:	ebffffa6 	bl	8bd0 <get32>
    8d34:	e6ef0070 	uxtb	r0, r0
    8d38:	e8bd8010 	pop	{r4, pc}
    8d3c:	20215054 	eorcs	r5, r1, r4, asr r0
    8d40:	20215040 	eorcs	r5, r1, r0, asr #32

00008d44 <uart_putc>:
    8d44:	e92d4038 	push	{r3, r4, r5, lr}
    8d48:	e1a05000 	mov	r5, r0
    8d4c:	e59f401c 	ldr	r4, [pc, #28]	; 8d70 <uart_putc+0x2c>
    8d50:	e1a00004 	mov	r0, r4
    8d54:	ebffff9d 	bl	8bd0 <get32>
    8d58:	e3100020 	tst	r0, #32
    8d5c:	0afffffb 	beq	8d50 <uart_putc+0xc>
    8d60:	e59f000c 	ldr	r0, [pc, #12]	; 8d74 <uart_putc+0x30>
    8d64:	e6ef1075 	uxtb	r1, r5
    8d68:	ebffff90 	bl	8bb0 <put32>
    8d6c:	e8bd8038 	pop	{r3, r4, r5, pc}
    8d70:	20215054 	eorcs	r5, r1, r4, asr r0
    8d74:	20215040 	eorcs	r5, r1, r0, asr #32

00008d78 <gpio_set_function>:
    8d78:	e92d41f0 	push	{r4, r5, r6, r7, r8, lr}
    8d7c:	e1a04000 	mov	r4, r0
    8d80:	e350001f 	cmp	r0, #31
    8d84:	8a000014 	bhi	8ddc <gpio_set_function+0x64>
    8d88:	e2015007 	and	r5, r1, #7
    8d8c:	e1550001 	cmp	r5, r1
    8d90:	1a000013 	bne	8de4 <gpio_set_function+0x6c>
    8d94:	e59f7050 	ldr	r7, [pc, #80]	; 8dec <gpio_set_function+0x74>
    8d98:	e0873097 	umull	r3, r7, r7, r0
    8d9c:	e1a071a7 	lsr	r7, r7, #3
    8da0:	e1a08107 	lsl	r8, r7, #2
    8da4:	e2886202 	add	r6, r8, #536870912	; 0x20000000
    8da8:	e2866602 	add	r6, r6, #2097152	; 0x200000
    8dac:	e1a00006 	mov	r0, r6
    8db0:	ebffff86 	bl	8bd0 <get32>
    8db4:	e0887007 	add	r7, r8, r7
    8db8:	e0444087 	sub	r4, r4, r7, lsl #1
    8dbc:	e0844084 	add	r4, r4, r4, lsl #1
    8dc0:	e3a01007 	mov	r1, #7
    8dc4:	e1c01411 	bic	r1, r0, r1, lsl r4
    8dc8:	e1a00006 	mov	r0, r6
    8dcc:	e1811415 	orr	r1, r1, r5, lsl r4
    8dd0:	ebffff76 	bl	8bb0 <put32>
    8dd4:	e3a00000 	mov	r0, #0
    8dd8:	e8bd81f0 	pop	{r4, r5, r6, r7, r8, pc}
    8ddc:	e3e00000 	mvn	r0, #0
    8de0:	e8bd81f0 	pop	{r4, r5, r6, r7, r8, pc}
    8de4:	e3e00000 	mvn	r0, #0
    8de8:	e8bd81f0 	pop	{r4, r5, r6, r7, r8, pc}
    8dec:	cccccccd 	stclgt	12, cr12, [ip], {205}	; 0xcd

00008df0 <gpio_set_output>:
    8df0:	e92d4008 	push	{r3, lr}
    8df4:	e3a01001 	mov	r1, #1
    8df8:	ebffffde 	bl	8d78 <gpio_set_function>
    8dfc:	e8bd8008 	pop	{r3, pc}

00008e00 <gpio_set_input>:
    8e00:	e92d4008 	push	{r3, lr}
    8e04:	e3a01000 	mov	r1, #0
    8e08:	ebffffda 	bl	8d78 <gpio_set_function>
    8e0c:	e8bd8008 	pop	{r3, pc}

00008e10 <gpio_set_off>:
    8e10:	e92d4008 	push	{r3, lr}
    8e14:	e1a03000 	mov	r3, r0
    8e18:	e350001f 	cmp	r0, #31
    8e1c:	8a000005 	bhi	8e38 <gpio_set_off+0x28>
    8e20:	e59f0018 	ldr	r0, [pc, #24]	; 8e40 <gpio_set_off+0x30>
    8e24:	e3a01001 	mov	r1, #1
    8e28:	e1a01311 	lsl	r1, r1, r3
    8e2c:	ebffff61 	bl	8bb8 <PUT32>
    8e30:	e3a00000 	mov	r0, #0
    8e34:	e8bd8008 	pop	{r3, pc}
    8e38:	e3e00000 	mvn	r0, #0
    8e3c:	e8bd8008 	pop	{r3, pc}
    8e40:	20200028 	eorcs	r0, r0, r8, lsr #32

00008e44 <gpio_set_on>:
    8e44:	e92d4008 	push	{r3, lr}
    8e48:	e1a03000 	mov	r3, r0
    8e4c:	e350001f 	cmp	r0, #31
    8e50:	8a000005 	bhi	8e6c <gpio_set_on+0x28>
    8e54:	e59f0018 	ldr	r0, [pc, #24]	; 8e74 <gpio_set_on+0x30>
    8e58:	e3a01001 	mov	r1, #1
    8e5c:	e1a01311 	lsl	r1, r1, r3
    8e60:	ebffff54 	bl	8bb8 <PUT32>
    8e64:	e3a00000 	mov	r0, #0
    8e68:	e8bd8008 	pop	{r3, pc}
    8e6c:	e3e00000 	mvn	r0, #0
    8e70:	e8bd8008 	pop	{r3, pc}
    8e74:	2020001c 	eorcs	r0, r0, ip, lsl r0

00008e78 <gpio_write>:
    8e78:	e92d4008 	push	{r3, lr}
    8e7c:	e3510000 	cmp	r1, #0
    8e80:	0a000001 	beq	8e8c <gpio_write+0x14>
    8e84:	ebffffee 	bl	8e44 <gpio_set_on>
    8e88:	e8bd8008 	pop	{r3, pc}
    8e8c:	ebffffdf 	bl	8e10 <gpio_set_off>
    8e90:	e8bd8008 	pop	{r3, pc}

Disassembly of section .data:

00008e94 <rpiIRQController>:
    8e94:	2000b200 	andcs	fp, r0, r0, lsl #4

00008e98 <rpiArmTimer>:
    8e98:	2000b400 	andcs	fp, r0, r0, lsl #8

Disassembly of section .rodata:

00008e9c <__FUNCTION__.3806>:
    8e9c:	6f727067 	svcvs	0x00727067
    8ea0:	6e695f66 	cdpvs	15, 6, cr5, cr9, cr6, {3}
    8ea4:	00000063 	andeq	r0, r0, r3, rrx
    8ea8:	70616568 	rsbvc	r6, r1, r8, ror #10
    8eac:	61747320 	cmnvs	r4, r0, lsr #6
    8eb0:	203a7472 	eorscs	r7, sl, r2, ror r4
    8eb4:	000a7825 	andeq	r7, sl, r5, lsr #16
    8eb8:	494e4150 	stmdbmi	lr, {r4, r6, r8, lr}^
    8ebc:	73253a43 	teqvc	r5, #274432	; 0x43000
    8ec0:	3a73253a 	bcc	1cd23b0 <__bss_end__+0x1cc8e18>
    8ec4:	493a6425 	ldmdbmi	sl!, {r0, r2, r5, sl, sp, lr}
    8ec8:	7274736e 	rsbsvc	r7, r4, #-1207959551	; 0xb8000001
    8ecc:	69746375 	ldmdbvs	r4!, {r0, r2, r4, r5, r6, r8, r9, sp, lr}^
    8ed0:	73206e6f 	teqvc	r0, #1776	; 0x6f0
    8ed4:	736d6565 	cmnvc	sp, #423624704	; 0x19400000
    8ed8:	206f7420 	rsbcs	r7, pc, r0, lsr #8
    8edc:	6f206562 	svcvs	0x00206562
    8ee0:	6f207475 	svcvs	0x00207475
    8ee4:	6f622066 	svcvs	0x00622066
    8ee8:	73646e75 	cmnvc	r4, #1872	; 0x750
    8eec:	0000000a 	andeq	r0, r0, sl
    8ef0:	6f727067 	svcvs	0x00727067
    8ef4:	00632e66 	rsbeq	r2, r3, r6, ror #28
    8ef8:	756f6261 	strbvc	r6, [pc, #-609]!	; 8c9f <set_bitmode+0x1f>
    8efc:	6f742074 	svcvs	0x00742074
    8f00:	736e6920 	cmnvc	lr, #32, 18	; 0x80000
    8f04:	6c6c6174 	stfvse	f6, [ip], #-464	; 0xfffffe30
    8f08:	6e616820 	cdpvs	8, 6, cr6, cr1, cr0, {1}
    8f0c:	72656c64 	rsbvc	r6, r5, #100, 24	; 0x6400
    8f10:	00000a73 	andeq	r0, r0, r3, ror sl
    8f14:	74746573 	ldrbtvc	r6, [r4], #-1395	; 0x573
    8f18:	20676e69 	rsbcs	r6, r7, r9, ror #28
    8f1c:	74207075 	strtvc	r7, [r0], #-117	; 0x75
    8f20:	72656d69 	rsbvc	r6, r5, #6720	; 0x1a40
    8f24:	746e6920 	strbtvc	r6, [lr], #-2336	; 0x920
    8f28:	75727265 	ldrbvc	r7, [r2, #-613]!	; 0x265
    8f2c:	0a737470 	beq	1ce60f4 <__bss_end__+0x1cdcb5c>
    8f30:	00000000 	andeq	r0, r0, r0
    8f34:	6e6e6f67 	cdpvs	15, 6, cr6, cr14, cr7, {3}
    8f38:	6e652061 	cdpvs	0, 6, cr2, cr5, cr1, {3}
    8f3c:	656c6261 	strbvs	r6, [ip, #-609]!	; 0x261
    8f40:	746e6920 	strbtvc	r6, [lr], #-2336	; 0x920
    8f44:	6c672073 	stclvs	0, cr2, [r7], #-460	; 0xfffffe34
    8f48:	6c61626f 	sfmvs	f6, 2, [r1], #-444	; 0xfffffe44
    8f4c:	0a21796c 	beq	867504 <__bss_end__+0x85df6c>
    8f50:	00000000 	andeq	r0, r0, r0
    8f54:	62616e65 	rsbvs	r6, r1, #1616	; 0x650
    8f58:	2164656c 	cmncs	r4, ip, ror #10
    8f5c:	0000000a 	andeq	r0, r0, sl
    8f60:	72657469 	rsbvc	r7, r5, #1761607680	; 0x69000000
    8f64:	3a64253d 	bcc	1912460 <__bss_end__+0x1908ec8>
    8f68:	746e6320 	strbtvc	r6, [lr], #-800	; 0x320
    8f6c:	25203d20 	strcs	r3, [r0, #-3360]!	; 0xd20
    8f70:	70202c64 	eorvc	r2, r0, r4, ror #24
    8f74:	6f697265 	svcvs	0x00697265
    8f78:	203d2064 	eorscs	r2, sp, r4, rrx
    8f7c:	73756425 	cmnvc	r5, #620756992	; 0x25000000
    8f80:	202c6365 	eorcs	r6, ip, r5, ror #6
    8f84:	000a7825 	andeq	r7, sl, r5, lsr #16
    8f88:	74736e69 	ldrbtvc	r6, [r3], #-3689	; 0xe69
    8f8c:	74637572 	strbtvc	r7, [r3], #-1394	; 0x572
    8f90:	206e6f69 	rsbcs	r6, lr, r9, ror #30
    8f94:	72646461 	rsbvc	r6, r4, #1627389952	; 0x61000000
    8f98:	25783020 	ldrbcs	r3, [r8, #-32]!
    8f9c:	63202c78 	teqvs	r0, #120, 24	; 0x7800
    8fa0:	746e756f 	strbtvc	r7, [lr], #-1391	; 0x56f
    8fa4:	7525203a 	strvc	r2, [r5, #-58]!	; 0x3a
    8fa8:	0000000a 	andeq	r0, r0, sl
    8fac:	4f525245 	svcmi	0x00525245
    8fb0:	75203a52 	strvc	r3, [r0, #-2642]!	; 0xa52
    8fb4:	6e61686e 	cdpvs	8, 6, cr6, cr1, cr14, {3}
    8fb8:	64656c64 	strbtvs	r6, [r5], #-3172	; 0xc64
    8fbc:	63786520 	cmnvs	r8, #32, 10	; 0x8000000
    8fc0:	69747065 	ldmdbvs	r4!, {r0, r2, r5, r6, ip, sp, lr}^
    8fc4:	3c206e6f 	stccc	14, cr6, [r0], #-444	; 0xfffffe44
    8fc8:	203e7325 	eorscs	r7, lr, r5, lsr #6
    8fcc:	50207461 	eorpl	r7, r0, r1, ror #8
    8fd0:	78253d43 	stmdavc	r5!, {r0, r1, r6, r8, sl, fp, ip, sp}
    8fd4:	0000000a 	andeq	r0, r0, sl
    8fd8:	74736166 	ldrbtvc	r6, [r3], #-358	; 0x166
    8fdc:	00000000 	andeq	r0, r0, r0
    8fe0:	74666f73 	strbtvc	r6, [r6], #-3955	; 0xf73
    8fe4:	746e6920 	strbtvc	r6, [lr], #-2336	; 0x920
    8fe8:	75727265 	ldrbvc	r7, [r2, #-613]!	; 0x265
    8fec:	00007470 	andeq	r7, r0, r0, ror r4
    8ff0:	65736572 	ldrbvs	r6, [r3, #-1394]!	; 0x572
    8ff4:	65762074 	ldrbvs	r2, [r6, #-116]!	; 0x74
    8ff8:	726f7463 	rsbvc	r7, pc, #1660944384	; 0x63000000
    8ffc:	00000000 	andeq	r0, r0, r0
    9000:	65646e75 	strbvs	r6, [r4, #-3701]!	; 0xe75
    9004:	656e6966 	strbvs	r6, [lr, #-2406]!	; 0x966
    9008:	6e692064 	cdpvs	0, 6, cr2, cr9, cr4, {3}
    900c:	75727473 	ldrbvc	r7, [r2, #-1139]!	; 0x473
    9010:	6f697463 	svcvs	0x00697463
    9014:	0000006e 	andeq	r0, r0, lr, rrx
    9018:	66657270 			; <UNDEFINED> instruction: 0x66657270
    901c:	68637465 	stmdavs	r3!, {r0, r2, r5, r6, sl, ip, sp, lr}^
    9020:	6f626120 	svcvs	0x00626120
    9024:	00007472 	andeq	r7, r0, r2, ror r4
    9028:	61746164 	cmnvs	r4, r4, ror #2
    902c:	6f626120 	svcvs	0x00626120
    9030:	00007472 	andeq	r7, r0, r2, ror r4

00009034 <__FUNCTION__.3806>:
    9034:	74696d65 	strbtvc	r6, [r9], #-3429	; 0xd65
    9038:	00000000 	andeq	r0, r0, r0

0000903c <__FUNCTION__.3821>:
    903c:	705f6176 	subsvc	r6, pc, r6, ror r1	; <UNPREDICTABLE>
    9040:	746e6972 	strbtvc	r6, [lr], #-2418	; 0x972
    9044:	0000006b 	andeq	r0, r0, fp, rrx
    9048:	494e4150 	stmdbmi	lr, {r4, r6, r8, lr}^
    904c:	73253a43 	teqvc	r5, #274432	; 0x43000
    9050:	3a73253a 	bcc	1cd2540 <__bss_end__+0x1cc8fa8>
    9054:	303a6425 	eorscc	r6, sl, r5, lsr #8
    9058:	0000000a 	andeq	r0, r0, sl
    905c:	34317363 	ldrtcc	r7, [r1], #-867	; 0x363
    9060:	702d6530 	eorvc	r6, sp, r0, lsr r5
    9064:	746e6972 	strbtvc	r6, [lr], #-2418	; 0x972
    9068:	00632e66 	rsbeq	r2, r3, r6, ror #28
    906c:	33323130 	teqcc	r2, #48, 2
    9070:	37363534 			; <UNDEFINED> instruction: 0x37363534
    9074:	00003938 	andeq	r3, r0, r8, lsr r9
    9078:	33323130 	teqcc	r2, #48, 2
    907c:	37363534 			; <UNDEFINED> instruction: 0x37363534
    9080:	62613938 	rsbvs	r3, r1, #56, 18	; 0xe0000
    9084:	66656463 	strbtvs	r6, [r5], -r3, ror #8
    9088:	00000000 	andeq	r0, r0, r0
    908c:	00003130 	andeq	r3, r0, r0, lsr r1
    9090:	494e4150 	stmdbmi	lr, {r4, r6, r8, lr}^
    9094:	73253a43 	teqvc	r5, #274432	; 0x43000
    9098:	3a73253a 	bcc	1cd2588 <__bss_end__+0x1cc8ff0>
    909c:	773a6425 	ldrvc	r6, [sl, -r5, lsr #8]!
    90a0:	68746469 	ldmdavs	r4!, {r0, r3, r5, r6, sl, sp, lr}^
    90a4:	33203c20 	teqcc	r0, #32, 24	; 0x2000
    90a8:	00000a32 	andeq	r0, r0, r2, lsr sl
    90ac:	494e4150 	stmdbmi	lr, {r4, r6, r8, lr}^
    90b0:	73253a43 	teqvc	r5, #274432	; 0x43000
    90b4:	3a73253a 	bcc	1cd25a4 <__bss_end__+0x1cc900c>
    90b8:	663a6425 	ldrtvs	r6, [sl], -r5, lsr #8
    90bc:	74616f6c 	strbtvc	r6, [r1], #-3948	; 0xf6c
    90c0:	746f6e20 	strbtvc	r6, [pc], #-3616	; 90c8 <__FUNCTION__.3821+0x8c>
    90c4:	616e6520 	cmnvs	lr, r0, lsr #10
    90c8:	64656c62 	strbtvs	r6, [r5], #-3170	; 0xc62
    90cc:	0a212121 	beq	851558 <__bss_end__+0x847fc0>
    90d0:	00000000 	andeq	r0, r0, r0
    90d4:	494e4150 	stmdbmi	lr, {r4, r6, r8, lr}^
    90d8:	73253a43 	teqvc	r5, #274432	; 0x43000
    90dc:	3a73253a 	bcc	1cd25cc <__bss_end__+0x1cc9034>
    90e0:	703a6425 	eorsvc	r6, sl, r5, lsr #8
    90e4:	746e6972 	strbtvc	r6, [lr], #-2418	; 0x972
    90e8:	6e203a6b 	vnmulvs.f32	s6, s0, s23
    90ec:	6820746f 	stmdavs	r0!, {r0, r1, r2, r3, r5, r6, sl, ip, sp, lr}
    90f0:	6c646e61 	stclvs	14, cr6, [r4], #-388	; 0xfffffe7c
    90f4:	20676e69 	rsbcs	r6, r7, r9, ror #28
    90f8:	63657073 	cmnvs	r5, #115	; 0x73
    90fc:	65696669 	strbvs	r6, [r9, #-1641]!	; 0x669
    9100:	25272072 	strcs	r2, [r7, #-114]!	; 0x72
    9104:	0a0a2763 	beq	292e98 <__bss_end__+0x289900>
    9108:	00000000 	andeq	r0, r0, r0
    910c:	4e41503c 	mcrmi	0, 2, r5, cr1, cr12, {1}
    9110:	3a3e4349 	bcc	f99e3c <__bss_end__+0xf908a4>
    9114:	00000000 	andeq	r0, r0, r0
    9118:	253a7325 	ldrcs	r7, [sl, #-805]!	; 0x325
    911c:	50203a64 	eorpl	r3, r0, r4, ror #20
    9120:	43494e41 	movtmi	r4, #40513	; 0x9e41
    9124:	4e415020 	cdpmi	0, 4, cr5, cr1, cr0, {1}
    9128:	50204349 	eorpl	r4, r0, r9, asr #6
    912c:	43494e41 	movtmi	r4, #40513	; 0x9e41
    9130:	7325203a 	teqvc	r5, #58	; 0x3a
    9134:	0000000a 	andeq	r0, r0, sl

00009138 <__FUNCTION__.3757>:
    9138:	5f697072 	svcpl	0x00697072
    913c:	6f626572 	svcvs	0x00626572
    9140:	0000746f 	andeq	r7, r0, pc, ror #8
    9144:	494e4150 	stmdbmi	lr, {r4, r6, r8, lr}^
    9148:	73253a43 	teqvc	r5, #274432	; 0x43000
    914c:	3a73253a 	bcc	1cd263c <__bss_end__+0x1cc90a4>
    9150:	613a6425 	teqvs	sl, r5, lsr #8
    9154:	73755f74 	cmnvc	r5, #116, 30	; 0x1d0
    9158:	6c5f7265 	lfmvs	f7, 2, [pc], {101}	; 0x65
    915c:	6c657665 	stclvs	6, cr7, [r5], #-404	; 0xfffffe6c
    9160:	000a2928 	andeq	r2, sl, r8, lsr #18
    9164:	34317363 	ldrtcc	r7, [r1], #-867	; 0x363
    9168:	722d6530 	eorvc	r6, sp, #48, 10	; 0xc000000
    916c:	6f6f6265 	svcvs	0x006f6265
    9170:	00632e74 	rsbeq	r2, r3, r4, ror lr
    9174:	454e4f44 	strbmi	r4, [lr, #-3908]	; 0xf44
    9178:	0a212121 	beq	851604 <__bss_end__+0x84806c>
    917c:	00000000 	andeq	r0, r0, r0

Disassembly of section .bss:

00009180 <__bss_start__>:
    9180:	00000000 	andeq	r0, r0, r0

00009184 <cnt>:
    9184:	00000000 	andeq	r0, r0, r0

00009188 <histogram>:
    9188:	00000000 	andeq	r0, r0, r0

0000918c <last_clk.3822>:
    918c:	00000000 	andeq	r0, r0, r0

00009190 <period>:
    9190:	00000000 	andeq	r0, r0, r0

00009194 <buf.3848>:
	...

Disassembly of section .comment:

00000000 <.comment>:
   0:	3a434347 	bcc	10d0d24 <__bss_end__+0x10c778c>
   4:	4e472820 	cdpmi	8, 4, cr2, cr7, cr0, {1}
   8:	34202955 	strtcc	r2, [r0], #-2389	; 0x955
   c:	332e382e 	teqcc	lr, #3014656	; 0x2e0000
	...

Disassembly of section .ARM.attributes:

00000000 <.ARM.attributes>:
   0:	00002c41 	andeq	r2, r0, r1, asr #24
   4:	61656100 	cmnvs	r5, r0, lsl #2
   8:	01006962 	tsteq	r0, r2, ror #18
   c:	00000022 	andeq	r0, r0, r2, lsr #32
  10:	4b5a3605 	blmi	168d82c <__bss_end__+0x1684294>
  14:	08070600 	stmdaeq	r7, {r9, sl}
  18:	12010901 	andne	r0, r1, #16384	; 0x4000
  1c:	15011404 	strne	r1, [r1, #-1028]	; 0x404
  20:	18031701 	stmdane	r3, {r0, r8, r9, sl, ip}
  24:	1e011a01 	vmlane.f32	s2, s2, s2
  28:	44012201 	strmi	r2, [r1], #-513	; 0x201
  2c:	Address 0x000000000000002c is out of bounds.

