
bootloader.elf:     file format elf32-littlearm


Disassembly of section .text:

00008000 <_start>:
    8000:	ea07dffe 	b	200000 <skip>
	...

00200000 <skip>:
  200000:	e3a0d302 	mov	sp, #134217728	; 0x8000000
  200004:	eb00002d 	bl	2000c0 <notmain>

00200008 <hang>:
  200008:	ea000083 	b	20021c <rpi_reboot>

0020000c <BRANCHTO>:
  20000c:	e12fff10 	bx	r0

00200010 <get_uint>:
  200010:	e92d4038 	push	{r3, r4, r5, lr}
  200014:	eb0000fb 	bl	200408 <uart_getc>
  200018:	e6ef5070 	uxtb	r5, r0
  20001c:	eb0000f9 	bl	200408 <uart_getc>
  200020:	e1a04000 	mov	r4, r0
  200024:	eb0000f7 	bl	200408 <uart_getc>
  200028:	e6ef4074 	uxtb	r4, r4
  20002c:	e6ef0070 	uxtb	r0, r0
  200030:	e1a00800 	lsl	r0, r0, #16
  200034:	e1804404 	orr	r4, r0, r4, lsl #8
  200038:	e1844005 	orr	r4, r4, r5
  20003c:	eb0000f1 	bl	200408 <uart_getc>
  200040:	e1840c00 	orr	r0, r4, r0, lsl #24
  200044:	e8bd8038 	pop	{r3, r4, r5, pc}

00200048 <put_uint>:
  200048:	e92d4010 	push	{r4, lr}
  20004c:	e1a04000 	mov	r4, r0
  200050:	e6ef0070 	uxtb	r0, r0
  200054:	eb0000f7 	bl	200438 <uart_putc>
  200058:	e1a00424 	lsr	r0, r4, #8
  20005c:	e6ef0070 	uxtb	r0, r0
  200060:	eb0000f4 	bl	200438 <uart_putc>
  200064:	e1a00824 	lsr	r0, r4, #16
  200068:	e6ef0070 	uxtb	r0, r0
  20006c:	eb0000f1 	bl	200438 <uart_putc>
  200070:	e1a00c24 	lsr	r0, r4, #24
  200074:	eb0000ef 	bl	200438 <uart_putc>
  200078:	e8bd8010 	pop	{r4, pc}

0020007c <crc32>:
  20007c:	e3510000 	cmp	r1, #0
  200080:	0a00000a 	beq	2000b0 <crc32+0x34>
  200084:	e080c001 	add	ip, r0, r1
  200088:	e3e03000 	mvn	r3, #0
  20008c:	e59f1028 	ldr	r1, [pc, #40]	; 2000bc <crc32+0x40>
  200090:	e4d02001 	ldrb	r2, [r0], #1
  200094:	e0232002 	eor	r2, r3, r2
  200098:	e6ef2072 	uxtb	r2, r2
  20009c:	e7912102 	ldr	r2, [r1, r2, lsl #2]
  2000a0:	e0223423 	eor	r3, r2, r3, lsr #8
  2000a4:	e150000c 	cmp	r0, ip
  2000a8:	1afffff8 	bne	200090 <crc32+0x14>
  2000ac:	ea000000 	b	2000b4 <crc32+0x38>
  2000b0:	e3e03000 	mvn	r3, #0
  2000b4:	e1e00003 	mvn	r0, r3
  2000b8:	e12fff1e 	bx	lr
  2000bc:	00200b58 	eoreq	r0, r0, r8, asr fp

002000c0 <notmain>:
  2000c0:	e92d4030 	push	{r4, r5, lr}
  2000c4:	e24dd00c 	sub	sp, sp, #12
  2000c8:	eb00009e 	bl	200348 <uart_init>
  2000cc:	e3a00f7d 	mov	r0, #500	; 0x1f4
  2000d0:	eb000084 	bl	2002e8 <delay_ms>
  2000d4:	ebffffcd 	bl	200010 <get_uint>
  2000d8:	e59f3108 	ldr	r3, [pc, #264]	; 2001e8 <notmain+0x128>
  2000dc:	e1500003 	cmp	r0, r3
  2000e0:	0a000002 	beq	2000f0 <notmain+0x30>
  2000e4:	e3a00002 	mov	r0, #2
  2000e8:	ebffffd6 	bl	200048 <put_uint>
  2000ec:	eb00004a 	bl	20021c <rpi_reboot>
  2000f0:	ebffffc6 	bl	200010 <get_uint>
  2000f4:	e28d3008 	add	r3, sp, #8
  2000f8:	e5230004 	str	r0, [r3, #-4]!
  2000fc:	e1a00003 	mov	r0, r3
  200100:	e3a01004 	mov	r1, #4
  200104:	ebffffdc 	bl	20007c <crc32>
  200108:	e1a04000 	mov	r4, r0
  20010c:	ebffffbf 	bl	200010 <get_uint>
  200110:	e1a05000 	mov	r5, r0
  200114:	e59d2004 	ldr	r2, [sp, #4]
  200118:	e59f30cc 	ldr	r3, [pc, #204]	; 2001ec <notmain+0x12c>
  20011c:	e1520003 	cmp	r2, r3
  200120:	9a000002 	bls	200130 <notmain+0x70>
  200124:	e3a00004 	mov	r0, #4
  200128:	ebffffc6 	bl	200048 <put_uint>
  20012c:	eb00003a 	bl	20021c <rpi_reboot>
  200130:	e59f00b0 	ldr	r0, [pc, #176]	; 2001e8 <notmain+0x128>
  200134:	ebffffc3 	bl	200048 <put_uint>
  200138:	e1a00004 	mov	r0, r4
  20013c:	ebffffc1 	bl	200048 <put_uint>
  200140:	e1a00005 	mov	r0, r5
  200144:	ebffffbf 	bl	200048 <put_uint>
  200148:	ebffffb0 	bl	200010 <get_uint>
  20014c:	e3500005 	cmp	r0, #5
  200150:	1a000004 	bne	200168 <notmain+0xa8>
  200154:	e59d3004 	ldr	r3, [sp, #4]
  200158:	e3530000 	cmp	r3, #0
  20015c:	13a04000 	movne	r4, #0
  200160:	1a000003 	bne	200174 <notmain+0xb4>
  200164:	ea00000a 	b	200194 <notmain+0xd4>
  200168:	e3a00006 	mov	r0, #6
  20016c:	ebffffb5 	bl	200048 <put_uint>
  200170:	eb000029 	bl	20021c <rpi_reboot>
  200174:	ebffffa5 	bl	200010 <get_uint>
  200178:	e1a01000 	mov	r1, r0
  20017c:	e2840902 	add	r0, r4, #32768	; 0x8000
  200180:	eb00005f 	bl	200304 <PUT32>
  200184:	e2844004 	add	r4, r4, #4
  200188:	e59d3004 	ldr	r3, [sp, #4]
  20018c:	e1530004 	cmp	r3, r4
  200190:	8afffff7 	bhi	200174 <notmain+0xb4>
  200194:	ebffff9d 	bl	200010 <get_uint>
  200198:	e3500007 	cmp	r0, #7
  20019c:	0a000002 	beq	2001ac <notmain+0xec>
  2001a0:	e3a00003 	mov	r0, #3
  2001a4:	ebffffa7 	bl	200048 <put_uint>
  2001a8:	eb00001b 	bl	20021c <rpi_reboot>
  2001ac:	e3a00902 	mov	r0, #32768	; 0x8000
  2001b0:	e59d1004 	ldr	r1, [sp, #4]
  2001b4:	ebffffb0 	bl	20007c <crc32>
  2001b8:	e1500005 	cmp	r0, r5
  2001bc:	1a000006 	bne	2001dc <notmain+0x11c>
  2001c0:	e3a00005 	mov	r0, #5
  2001c4:	ebffff9f 	bl	200048 <put_uint>
  2001c8:	e3a00f7d 	mov	r0, #500	; 0x1f4
  2001cc:	eb000045 	bl	2002e8 <delay_ms>
  2001d0:	e3a00902 	mov	r0, #32768	; 0x8000
  2001d4:	ebffff8c 	bl	20000c <BRANCHTO>
  2001d8:	eb00000f 	bl	20021c <rpi_reboot>
  2001dc:	e3a00001 	mov	r0, #1
  2001e0:	ebffff98 	bl	200048 <put_uint>
  2001e4:	eb00000c 	bl	20021c <rpi_reboot>
  2001e8:	12345678 	eorsne	r5, r4, #120, 12	; 0x7800000
  2001ec:	0000270f 	andeq	r2, r0, pc, lsl #14

002001f0 <at_user_level>:
  2001f0:	e10f0000 	mrs	r0, CPSR
  2001f4:	e200001f 	and	r0, r0, #31
  2001f8:	e3500010 	cmp	r0, #16
  2001fc:	13a00000 	movne	r0, #0
  200200:	03a00001 	moveq	r0, #1
  200204:	e12fff1e 	bx	lr

00200208 <set_user_level>:
  200208:	e10f3000 	mrs	r3, CPSR
  20020c:	e3c3301f 	bic	r3, r3, #31
  200210:	e3833010 	orr	r3, r3, #16
  200214:	e129f003 	msr	CPSR_fc, r3
  200218:	e12fff1e 	bx	lr

0020021c <rpi_reboot>:
  20021c:	e92d4008 	push	{r3, lr}
  200220:	ebfffff2 	bl	2001f0 <at_user_level>
  200224:	e3500000 	cmp	r0, #0
  200228:	0a000009 	beq	200254 <rpi_reboot+0x38>
  20022c:	ebfffff5 	bl	200208 <set_user_level>
  200230:	ebffffee 	bl	2001f0 <at_user_level>
  200234:	e3500000 	cmp	r0, #0
  200238:	1a000005 	bne	200254 <rpi_reboot+0x38>
  20023c:	e59f0034 	ldr	r0, [pc, #52]	; 200278 <rpi_reboot+0x5c>
  200240:	e59f1034 	ldr	r1, [pc, #52]	; 20027c <rpi_reboot+0x60>
  200244:	e59f2034 	ldr	r2, [pc, #52]	; 200280 <rpi_reboot+0x64>
  200248:	e3a0301f 	mov	r3, #31
  20024c:	eb00008b 	bl	200480 <printk>
  200250:	ebfffff1 	bl	20021c <rpi_reboot>
  200254:	e3a0001e 	mov	r0, #30
  200258:	eb000022 	bl	2002e8 <delay_ms>
  20025c:	e59f0020 	ldr	r0, [pc, #32]	; 200284 <rpi_reboot+0x68>
  200260:	e59f1020 	ldr	r1, [pc, #32]	; 200288 <rpi_reboot+0x6c>
  200264:	eb000026 	bl	200304 <PUT32>
  200268:	e59f001c 	ldr	r0, [pc, #28]	; 20028c <rpi_reboot+0x70>
  20026c:	e59f101c 	ldr	r1, [pc, #28]	; 200290 <rpi_reboot+0x74>
  200270:	eb000023 	bl	200304 <PUT32>
  200274:	eafffffe 	b	200274 <rpi_reboot+0x58>
  200278:	00200f64 	eoreq	r0, r0, r4, ror #30
  20027c:	00200f84 	eoreq	r0, r0, r4, lsl #31
  200280:	00200f58 	eoreq	r0, r0, r8, asr pc
  200284:	20100024 	andscs	r0, r0, r4, lsr #32
  200288:	5a000001 	bpl	200294 <clean_reboot>
  20028c:	2010001c 	andscs	r0, r0, ip, lsl r0
  200290:	5a000020 	bpl	200318 <PUT8+0x4>

00200294 <clean_reboot>:
  200294:	e92d4008 	push	{r3, lr}
  200298:	e59f000c 	ldr	r0, [pc, #12]	; 2002ac <clean_reboot+0x18>
  20029c:	eb0001c3 	bl	2009b0 <putk>
  2002a0:	e3a00032 	mov	r0, #50	; 0x32
  2002a4:	eb00000f 	bl	2002e8 <delay_ms>
  2002a8:	ebffffdb 	bl	20021c <rpi_reboot>
  2002ac:	00200f94 	mlaeq	r0, r4, pc, r0	; <UNPREDICTABLE>

002002b0 <timer_get_time>:
  2002b0:	e92d4008 	push	{r3, lr}
  2002b4:	e59f0004 	ldr	r0, [pc, #4]	; 2002c0 <timer_get_time+0x10>
  2002b8:	eb000019 	bl	200324 <GET32>
  2002bc:	e8bd8008 	pop	{r3, pc}
  2002c0:	20003004 	andcs	r3, r0, r4

002002c4 <delay_us>:
  2002c4:	e92d4038 	push	{r3, r4, r5, lr}
  2002c8:	e1a05000 	mov	r5, r0
  2002cc:	ebfffff7 	bl	2002b0 <timer_get_time>
  2002d0:	e1a04000 	mov	r4, r0
  2002d4:	ebfffff5 	bl	2002b0 <timer_get_time>
  2002d8:	e0640000 	rsb	r0, r4, r0
  2002dc:	e1500005 	cmp	r0, r5
  2002e0:	3afffffb 	bcc	2002d4 <delay_us+0x10>
  2002e4:	e8bd8038 	pop	{r3, r4, r5, pc}

002002e8 <delay_ms>:
  2002e8:	e92d4008 	push	{r3, lr}
  2002ec:	e3a03ffa 	mov	r3, #1000	; 0x3e8
  2002f0:	e0000093 	mul	r0, r3, r0
  2002f4:	ebfffff2 	bl	2002c4 <delay_us>
  2002f8:	e8bd8008 	pop	{r3, pc}

002002fc <put32>:
  2002fc:	e5801000 	str	r1, [r0]
  200300:	e12fff1e 	bx	lr

00200304 <PUT32>:
  200304:	e5801000 	str	r1, [r0]
  200308:	e12fff1e 	bx	lr

0020030c <PUT16>:
  20030c:	e1c010b0 	strh	r1, [r0]
  200310:	e12fff1e 	bx	lr

00200314 <PUT8>:
  200314:	e5c01000 	strb	r1, [r0]
  200318:	e12fff1e 	bx	lr

0020031c <get32>:
  20031c:	e5900000 	ldr	r0, [r0]
  200320:	e12fff1e 	bx	lr

00200324 <GET32>:
  200324:	e5900000 	ldr	r0, [r0]
  200328:	e12fff1e 	bx	lr

0020032c <GETPC>:
  20032c:	e1a0000e 	mov	r0, lr
  200330:	e12fff1e 	bx	lr

00200334 <dummy>:
  200334:	e12fff1e 	bx	lr

00200338 <dev_barrier>:
  200338:	e92d4008 	push	{r3, lr}
  20033c:	eb0001ba 	bl	200a2c <dmb>
  200340:	eb0001bb 	bl	200a34 <dsb>
  200344:	e8bd8008 	pop	{r3, pc}

00200348 <uart_init>:
  200348:	e92d4038 	push	{r3, r4, r5, lr}
  20034c:	ebfffff9 	bl	200338 <dev_barrier>
  200350:	e3a0000e 	mov	r0, #14
  200354:	e3a01002 	mov	r1, #2
  200358:	eb0001b7 	bl	200a3c <gpio_set_function>
  20035c:	e3a0000f 	mov	r0, #15
  200360:	e3a01002 	mov	r1, #2
  200364:	eb0001b4 	bl	200a3c <gpio_set_function>
  200368:	ebfffff2 	bl	200338 <dev_barrier>
  20036c:	e59f4084 	ldr	r4, [pc, #132]	; 2003f8 <uart_init+0xb0>
  200370:	e1a00004 	mov	r0, r4
  200374:	ebffffe8 	bl	20031c <get32>
  200378:	e3801001 	orr	r1, r0, #1
  20037c:	e1a00004 	mov	r0, r4
  200380:	ebffffdd 	bl	2002fc <put32>
  200384:	ebffffeb 	bl	200338 <dev_barrier>
  200388:	e284405c 	add	r4, r4, #92	; 0x5c
  20038c:	e1a00004 	mov	r0, r4
  200390:	ebffffe1 	bl	20031c <get32>
  200394:	e3c01003 	bic	r1, r0, #3
  200398:	e1a00004 	mov	r0, r4
  20039c:	ebffffd6 	bl	2002fc <put32>
  2003a0:	e59f0054 	ldr	r0, [pc, #84]	; 2003fc <uart_init+0xb4>
  2003a4:	e59f1054 	ldr	r1, [pc, #84]	; 200400 <uart_init+0xb8>
  2003a8:	ebffffd3 	bl	2002fc <put32>
  2003ac:	e59f5050 	ldr	r5, [pc, #80]	; 200404 <uart_init+0xbc>
  2003b0:	e1a00005 	mov	r0, r5
  2003b4:	ebffffd8 	bl	20031c <get32>
  2003b8:	e3801003 	orr	r1, r0, #3
  2003bc:	e1a00005 	mov	r0, r5
  2003c0:	ebffffcd 	bl	2002fc <put32>
  2003c4:	e2455004 	sub	r5, r5, #4
  2003c8:	e1a00005 	mov	r0, r5
  2003cc:	ebffffd2 	bl	20031c <get32>
  2003d0:	e3801006 	orr	r1, r0, #6
  2003d4:	e1a00005 	mov	r0, r5
  2003d8:	ebffffc7 	bl	2002fc <put32>
  2003dc:	e1a00004 	mov	r0, r4
  2003e0:	ebffffcd 	bl	20031c <get32>
  2003e4:	e3801003 	orr	r1, r0, #3
  2003e8:	e1a00004 	mov	r0, r4
  2003ec:	ebffffc2 	bl	2002fc <put32>
  2003f0:	ebffffd0 	bl	200338 <dev_barrier>
  2003f4:	e8bd8038 	pop	{r3, r4, r5, pc}
  2003f8:	20215004 	eorcs	r5, r1, r4
  2003fc:	20215068 	eorcs	r5, r1, r8, rrx
  200400:	0000010e 	andeq	r0, r0, lr, lsl #2
  200404:	2021504c 	eorcs	r5, r1, ip, asr #32

00200408 <uart_getc>:
  200408:	e92d4010 	push	{r4, lr}
  20040c:	e59f401c 	ldr	r4, [pc, #28]	; 200430 <uart_getc+0x28>
  200410:	e1a00004 	mov	r0, r4
  200414:	ebffffc0 	bl	20031c <get32>
  200418:	e3100001 	tst	r0, #1
  20041c:	0afffffb 	beq	200410 <uart_getc+0x8>
  200420:	e59f000c 	ldr	r0, [pc, #12]	; 200434 <uart_getc+0x2c>
  200424:	ebffffbc 	bl	20031c <get32>
  200428:	e6ef0070 	uxtb	r0, r0
  20042c:	e8bd8010 	pop	{r4, pc}
  200430:	20215054 	eorcs	r5, r1, r4, asr r0
  200434:	20215040 	eorcs	r5, r1, r0, asr #32

00200438 <uart_putc>:
  200438:	e92d4038 	push	{r3, r4, r5, lr}
  20043c:	e1a05000 	mov	r5, r0
  200440:	e59f401c 	ldr	r4, [pc, #28]	; 200464 <uart_putc+0x2c>
  200444:	e1a00004 	mov	r0, r4
  200448:	ebffffb3 	bl	20031c <get32>
  20044c:	e3100020 	tst	r0, #32
  200450:	0afffffb 	beq	200444 <uart_putc+0xc>
  200454:	e59f000c 	ldr	r0, [pc, #12]	; 200468 <uart_putc+0x30>
  200458:	e6ef1075 	uxtb	r1, r5
  20045c:	ebffffa6 	bl	2002fc <put32>
  200460:	e8bd8038 	pop	{r3, r4, r5, pc}
  200464:	20215054 	eorcs	r5, r1, r4, asr r0
  200468:	20215040 	eorcs	r5, r1, r0, asr #32

0020046c <rpi_putchar>:
  20046c:	e92d4010 	push	{r4, lr}
  200470:	e1a04000 	mov	r4, r0
  200474:	ebffffef 	bl	200438 <uart_putc>
  200478:	e1a00004 	mov	r0, r4
  20047c:	e8bd8010 	pop	{r4, pc}

00200480 <printk>:
  200480:	e92d000f 	push	{r0, r1, r2, r3}
  200484:	e92d4030 	push	{r4, r5, lr}
  200488:	e24dd00c 	sub	sp, sp, #12
  20048c:	e28d301c 	add	r3, sp, #28
  200490:	e58d3004 	str	r3, [sp, #4]
  200494:	e59f4040 	ldr	r4, [pc, #64]	; 2004dc <printk+0x5c>
  200498:	e1a00004 	mov	r0, r4
  20049c:	e3a01b01 	mov	r1, #1024	; 0x400
  2004a0:	e59d2018 	ldr	r2, [sp, #24]
  2004a4:	eb00008c 	bl	2006dc <va_printk>
  2004a8:	e1a05000 	mov	r5, r0
  2004ac:	e5d40000 	ldrb	r0, [r4]
  2004b0:	e3500000 	cmp	r0, #0
  2004b4:	0a000003 	beq	2004c8 <printk+0x48>
  2004b8:	ebffffde 	bl	200438 <uart_putc>
  2004bc:	e5f40001 	ldrb	r0, [r4, #1]!
  2004c0:	e3500000 	cmp	r0, #0
  2004c4:	1afffffb 	bne	2004b8 <printk+0x38>
  2004c8:	e1a00005 	mov	r0, r5
  2004cc:	e28dd00c 	add	sp, sp, #12
  2004d0:	e8bd4030 	pop	{r4, r5, lr}
  2004d4:	e28dd010 	add	sp, sp, #16
  2004d8:	e12fff1e 	bx	lr
  2004dc:	002010a4 	eoreq	r1, r0, r4, lsr #1

002004e0 <emit>:
  2004e0:	e92d43f0 	push	{r4, r5, r6, r7, r8, r9, lr}
  2004e4:	e24dd044 	sub	sp, sp, #68	; 0x44
  2004e8:	e59d5060 	ldr	r5, [sp, #96]	; 0x60
  2004ec:	e1550002 	cmp	r5, r2
  2004f0:	c2425001 	subgt	r5, r2, #1
  2004f4:	e1a0c003 	mov	ip, r3
  2004f8:	e2400002 	sub	r0, r0, #2
  2004fc:	e350000e 	cmp	r0, #14
  200500:	979ff100 	ldrls	pc, [pc, r0, lsl #2]
  200504:	ea00003f 	b	200608 <emit+0x128>
  200508:	002005e0 	eoreq	r0, r0, r0, ror #11
  20050c:	00200608 	eoreq	r0, r0, r8, lsl #12
  200510:	00200608 	eoreq	r0, r0, r8, lsl #12
  200514:	00200608 	eoreq	r0, r0, r8, lsl #12
  200518:	00200608 	eoreq	r0, r0, r8, lsl #12
  20051c:	00200608 	eoreq	r0, r0, r8, lsl #12
  200520:	002005d4 	ldrdeq	r0, [r0], -r4	; <UNPREDICTABLE>
  200524:	00200608 	eoreq	r0, r0, r8, lsl #12
  200528:	00200544 	eoreq	r0, r0, r4, asr #10
  20052c:	00200608 	eoreq	r0, r0, r8, lsl #12
  200530:	00200608 	eoreq	r0, r0, r8, lsl #12
  200534:	00200608 	eoreq	r0, r0, r8, lsl #12
  200538:	00200608 	eoreq	r0, r0, r8, lsl #12
  20053c:	00200608 	eoreq	r0, r0, r8, lsl #12
  200540:	002005ac 	eoreq	r0, r0, ip, lsr #11
  200544:	e59d0064 	ldr	r0, [sp, #100]	; 0x64
  200548:	e2900000 	adds	r0, r0, #0
  20054c:	13a00001 	movne	r0, #1
  200550:	e0100fa3 	ands	r0, r0, r3, lsr #31
  200554:	1263c000 	rsbne	ip, r3, #0
  200558:	13a09001 	movne	r9, #1
  20055c:	03a09000 	moveq	r9, #0
  200560:	e1a0000d 	mov	r0, sp
  200564:	e59f8154 	ldr	r8, [pc, #340]	; 2006c0 <emit+0x1e0>
  200568:	e59f7154 	ldr	r7, [pc, #340]	; 2006c4 <emit+0x1e4>
  20056c:	e1a03000 	mov	r3, r0
  200570:	e0846c97 	umull	r6, r4, r7, ip
  200574:	e1a041a4 	lsr	r4, r4, #3
  200578:	e0846104 	add	r6, r4, r4, lsl #2
  20057c:	e04cc086 	sub	ip, ip, r6, lsl #1
  200580:	e7d8c00c 	ldrb	ip, [r8, ip]
  200584:	e4c3c001 	strb	ip, [r3], #1
  200588:	e1a0c004 	mov	ip, r4
  20058c:	e3540000 	cmp	r4, #0
  200590:	11a00003 	movne	r0, r3
  200594:	1afffff4 	bne	20056c <emit+0x8c>
  200598:	e3590000 	cmp	r9, #0
  20059c:	12803002 	addne	r3, r0, #2
  2005a0:	13a0c02d 	movne	ip, #45	; 0x2d
  2005a4:	15c0c001 	strbne	ip, [r0, #1]
  2005a8:	ea00001c 	b	200620 <emit+0x140>
  2005ac:	e28d4001 	add	r4, sp, #1
  2005b0:	e59f6110 	ldr	r6, [pc, #272]	; 2006c8 <emit+0x1e8>
  2005b4:	e1a03004 	mov	r3, r4
  2005b8:	e20c000f 	and	r0, ip, #15
  2005bc:	e7d60000 	ldrb	r0, [r6, r0]
  2005c0:	e5440001 	strb	r0, [r4, #-1]
  2005c4:	e2844001 	add	r4, r4, #1
  2005c8:	e1b0c22c 	lsrs	ip, ip, #4
  2005cc:	1afffff8 	bne	2005b4 <emit+0xd4>
  2005d0:	ea000012 	b	200620 <emit+0x140>
  2005d4:	e5cd3000 	strb	r3, [sp]
  2005d8:	e28d3001 	add	r3, sp, #1
  2005dc:	ea00000f 	b	200620 <emit+0x140>
  2005e0:	e28d4001 	add	r4, sp, #1
  2005e4:	e59f60e0 	ldr	r6, [pc, #224]	; 2006cc <emit+0x1ec>
  2005e8:	e1a03004 	mov	r3, r4
  2005ec:	e20c0001 	and	r0, ip, #1
  2005f0:	e7d60000 	ldrb	r0, [r6, r0]
  2005f4:	e5440001 	strb	r0, [r4, #-1]
  2005f8:	e2844001 	add	r4, r4, #1
  2005fc:	e1b0c0ac 	lsrs	ip, ip, #1
  200600:	1afffff8 	bne	2005e8 <emit+0x108>
  200604:	ea000005 	b	200620 <emit+0x140>
  200608:	e59f00c0 	ldr	r0, [pc, #192]	; 2006d0 <emit+0x1f0>
  20060c:	e59f10c0 	ldr	r1, [pc, #192]	; 2006d4 <emit+0x1f4>
  200610:	e59f20c0 	ldr	r2, [pc, #192]	; 2006d8 <emit+0x1f8>
  200614:	e3a0308d 	mov	r3, #141	; 0x8d
  200618:	ebffff98 	bl	200480 <printk>
  20061c:	ebfffefe 	bl	20021c <rpi_reboot>
  200620:	e1a0400d 	mov	r4, sp
  200624:	e064c003 	rsb	ip, r4, r3
  200628:	e155000c 	cmp	r5, ip
  20062c:	da000006 	ble	20064c <emit+0x16c>
  200630:	e06cc005 	rsb	ip, ip, r5
  200634:	e083c00c 	add	ip, r3, ip
  200638:	e3a00020 	mov	r0, #32
  20063c:	e4c30001 	strb	r0, [r3], #1
  200640:	e153000c 	cmp	r3, ip
  200644:	1afffffc 	bne	20063c <emit+0x15c>
  200648:	ea000000 	b	200650 <emit+0x170>
  20064c:	e1a0c003 	mov	ip, r3
  200650:	e3a03000 	mov	r3, #0
  200654:	e5cc3000 	strb	r3, [ip]
  200658:	e064400c 	rsb	r4, r4, ip
  20065c:	e2844001 	add	r4, r4, #1
  200660:	e1520004 	cmp	r2, r4
  200664:	b0624004 	rsblt	r4, r2, r4
  200668:	b08d3003 	addlt	r3, sp, r3
  20066c:	b0834004 	addlt	r4, r3, r4
  200670:	a1a0400d 	movge	r4, sp
  200674:	e24c3001 	sub	r3, ip, #1
  200678:	e1540003 	cmp	r4, r3
  20067c:	8a000009 	bhi	2006a8 <emit+0x1c8>
  200680:	e1a0000c 	mov	r0, ip
  200684:	e1a0300c 	mov	r3, ip
  200688:	e1a02001 	mov	r2, r1
  20068c:	e573c001 	ldrb	ip, [r3, #-1]!
  200690:	e4c2c001 	strb	ip, [r2], #1
  200694:	e1530004 	cmp	r3, r4
  200698:	1afffffb 	bne	20068c <emit+0x1ac>
  20069c:	e0644000 	rsb	r4, r4, r0
  2006a0:	e0814004 	add	r4, r1, r4
  2006a4:	ea000000 	b	2006ac <emit+0x1cc>
  2006a8:	e1a04001 	mov	r4, r1
  2006ac:	e3a03000 	mov	r3, #0
  2006b0:	e5c43000 	strb	r3, [r4]
  2006b4:	e1a00001 	mov	r0, r1
  2006b8:	e28dd044 	add	sp, sp, #68	; 0x44
  2006bc:	e8bd83f0 	pop	{r4, r5, r6, r7, r8, r9, pc}
  2006c0:	00200fd8 	ldrdeq	r0, [r0], -r8	; <UNPREDICTABLE>
  2006c4:	cccccccd 	stclgt	12, cr12, [ip], {205}	; 0xcd
  2006c8:	00200fe4 	eoreq	r0, r0, r4, ror #31
  2006cc:	00200ff8 	strdeq	r0, [r0], -r8	; <UNPREDICTABLE>
  2006d0:	00200fb4 	strhteq	r0, [r0], -r4
  2006d4:	00200fc8 	eoreq	r0, r0, r8, asr #31
  2006d8:	00200fa0 	eoreq	r0, r0, r0, lsr #31

002006dc <va_printk>:
  2006dc:	e92d4ff0 	push	{r4, r5, r6, r7, r8, r9, sl, fp, lr}
  2006e0:	e24dd08c 	sub	sp, sp, #140	; 0x8c
  2006e4:	e1a07000 	mov	r7, r0
  2006e8:	e2411001 	sub	r1, r1, #1
  2006ec:	e0805001 	add	r5, r0, r1
  2006f0:	e3a01000 	mov	r1, #0
  2006f4:	e5c01000 	strb	r1, [r0]
  2006f8:	e1a04000 	mov	r4, r0
  2006fc:	e1a08001 	mov	r8, r1
  200700:	e3a0a008 	mov	sl, #8
  200704:	e3a09080 	mov	r9, #128	; 0x80
  200708:	ea000088 	b	200930 <va_printk+0x254>
  20070c:	e3510025 	cmp	r1, #37	; 0x25
  200710:	12822001 	addne	r2, r2, #1
  200714:	15c41000 	strbne	r1, [r4]
  200718:	12844001 	addne	r4, r4, #1
  20071c:	1a000083 	bne	200930 <va_printk+0x254>
  200720:	e5d21001 	ldrb	r1, [r2, #1]
  200724:	e3510025 	cmp	r1, #37	; 0x25
  200728:	05c41000 	strbeq	r1, [r4]
  20072c:	02822002 	addeq	r2, r2, #2
  200730:	02844001 	addeq	r4, r4, #1
  200734:	0a00007d 	beq	200930 <va_printk+0x254>
  200738:	e2826001 	add	r6, r2, #1
  20073c:	e1a00001 	mov	r0, r1
  200740:	e241c030 	sub	ip, r1, #48	; 0x30
  200744:	e35c0009 	cmp	ip, #9
  200748:	8a000012 	bhi	200798 <va_printk+0xbc>
  20074c:	e2822002 	add	r2, r2, #2
  200750:	e1a0c008 	mov	ip, r8
  200754:	e08cc10c 	add	ip, ip, ip, lsl #2
  200758:	e080c08c 	add	ip, r0, ip, lsl #1
  20075c:	e24cc030 	sub	ip, ip, #48	; 0x30
  200760:	e1a06002 	mov	r6, r2
  200764:	e4d21001 	ldrb	r1, [r2], #1
  200768:	e1a00001 	mov	r0, r1
  20076c:	e241b030 	sub	fp, r1, #48	; 0x30
  200770:	e35b0009 	cmp	fp, #9
  200774:	9afffff6 	bls	200754 <va_printk+0x78>
  200778:	e35c001f 	cmp	ip, #31
  20077c:	9a000007 	bls	2007a0 <va_printk+0xc4>
  200780:	e59f01e8 	ldr	r0, [pc, #488]	; 200970 <va_printk+0x294>
  200784:	e59f11e8 	ldr	r1, [pc, #488]	; 200974 <va_printk+0x298>
  200788:	e59f21e8 	ldr	r2, [pc, #488]	; 200978 <va_printk+0x29c>
  20078c:	e3a030a9 	mov	r3, #169	; 0xa9
  200790:	ebffff3a 	bl	200480 <printk>
  200794:	ebfffea0 	bl	20021c <rpi_reboot>
  200798:	e1a00001 	mov	r0, r1
  20079c:	e1a0c008 	mov	ip, r8
  2007a0:	e2411062 	sub	r1, r1, #98	; 0x62
  2007a4:	e3510016 	cmp	r1, #22
  2007a8:	979ff101 	ldrls	pc, [pc, r1, lsl #2]
  2007ac:	ea000052 	b	2008fc <va_printk+0x220>
  2007b0:	002008a0 	eoreq	r0, r0, r0, lsr #17
  2007b4:	002008d4 	ldrdeq	r0, [r0], -r4	; <UNPREDICTABLE>
  2007b8:	00200824 	eoreq	r0, r0, r4, lsr #16
  2007bc:	002008fc 	strdeq	r0, [r0], -ip	; <UNPREDICTABLE>
  2007c0:	0020080c 	eoreq	r0, r0, ip, lsl #16
  2007c4:	002008fc 	strdeq	r0, [r0], -ip	; <UNPREDICTABLE>
  2007c8:	002008fc 	strdeq	r0, [r0], -ip	; <UNPREDICTABLE>
  2007cc:	002008fc 	strdeq	r0, [r0], -ip	; <UNPREDICTABLE>
  2007d0:	002008fc 	strdeq	r0, [r0], -ip	; <UNPREDICTABLE>
  2007d4:	002008fc 	strdeq	r0, [r0], -ip	; <UNPREDICTABLE>
  2007d8:	002008fc 	strdeq	r0, [r0], -ip	; <UNPREDICTABLE>
  2007dc:	002008fc 	strdeq	r0, [r0], -ip	; <UNPREDICTABLE>
  2007e0:	002008fc 	strdeq	r0, [r0], -ip	; <UNPREDICTABLE>
  2007e4:	002008fc 	strdeq	r0, [r0], -ip	; <UNPREDICTABLE>
  2007e8:	00200878 	eoreq	r0, r0, r8, ror r8
  2007ec:	002008fc 	strdeq	r0, [r0], -ip	; <UNPREDICTABLE>
  2007f0:	002008fc 	strdeq	r0, [r0], -ip	; <UNPREDICTABLE>
  2007f4:	002008c8 	eoreq	r0, r0, r8, asr #17
  2007f8:	002008fc 	strdeq	r0, [r0], -ip	; <UNPREDICTABLE>
  2007fc:	00200850 	eoreq	r0, r0, r0, asr r8
  200800:	002008fc 	strdeq	r0, [r0], -ip	; <UNPREDICTABLE>
  200804:	002008fc 	strdeq	r0, [r0], -ip	; <UNPREDICTABLE>
  200808:	00200878 	eoreq	r0, r0, r8, ror r8
  20080c:	e59f0168 	ldr	r0, [pc, #360]	; 20097c <va_printk+0x2a0>
  200810:	e59f115c 	ldr	r1, [pc, #348]	; 200974 <va_printk+0x298>
  200814:	e59f215c 	ldr	r2, [pc, #348]	; 200978 <va_printk+0x29c>
  200818:	e3a030af 	mov	r3, #175	; 0xaf
  20081c:	ebffff17 	bl	200480 <printk>
  200820:	ebfffe7d 	bl	20021c <rpi_reboot>
  200824:	e283b004 	add	fp, r3, #4
  200828:	e5933000 	ldr	r3, [r3]
  20082c:	e58dc000 	str	ip, [sp]
  200830:	e3a02001 	mov	r2, #1
  200834:	e58d2004 	str	r2, [sp, #4]
  200838:	e3a0000a 	mov	r0, #10
  20083c:	e28d1008 	add	r1, sp, #8
  200840:	e1a02009 	mov	r2, r9
  200844:	ebffff25 	bl	2004e0 <emit>
  200848:	e1a0300b 	mov	r3, fp
  20084c:	ea000040 	b	200954 <va_printk+0x278>
  200850:	e283b004 	add	fp, r3, #4
  200854:	e5933000 	ldr	r3, [r3]
  200858:	e58dc000 	str	ip, [sp]
  20085c:	e58d8004 	str	r8, [sp, #4]
  200860:	e3a0000a 	mov	r0, #10
  200864:	e28d1008 	add	r1, sp, #8
  200868:	e1a02009 	mov	r2, r9
  20086c:	ebffff1b 	bl	2004e0 <emit>
  200870:	e1a0300b 	mov	r3, fp
  200874:	ea000036 	b	200954 <va_printk+0x278>
  200878:	e283b004 	add	fp, r3, #4
  20087c:	e5933000 	ldr	r3, [r3]
  200880:	e58dc000 	str	ip, [sp]
  200884:	e58d8004 	str	r8, [sp, #4]
  200888:	e3a00010 	mov	r0, #16
  20088c:	e28d1008 	add	r1, sp, #8
  200890:	e1a02009 	mov	r2, r9
  200894:	ebffff11 	bl	2004e0 <emit>
  200898:	e1a0300b 	mov	r3, fp
  20089c:	ea00002c 	b	200954 <va_printk+0x278>
  2008a0:	e283b004 	add	fp, r3, #4
  2008a4:	e5933000 	ldr	r3, [r3]
  2008a8:	e58dc000 	str	ip, [sp]
  2008ac:	e58d8004 	str	r8, [sp, #4]
  2008b0:	e3a00002 	mov	r0, #2
  2008b4:	e28d1008 	add	r1, sp, #8
  2008b8:	e1a02009 	mov	r2, r9
  2008bc:	ebffff07 	bl	2004e0 <emit>
  2008c0:	e1a0300b 	mov	r3, fp
  2008c4:	ea000022 	b	200954 <va_printk+0x278>
  2008c8:	e5930000 	ldr	r0, [r3]
  2008cc:	e2833004 	add	r3, r3, #4
  2008d0:	ea00001f 	b	200954 <va_printk+0x278>
  2008d4:	e283b004 	add	fp, r3, #4
  2008d8:	e5933000 	ldr	r3, [r3]
  2008dc:	e58dc000 	str	ip, [sp]
  2008e0:	e58d8004 	str	r8, [sp, #4]
  2008e4:	e1a0000a 	mov	r0, sl
  2008e8:	e28d1008 	add	r1, sp, #8
  2008ec:	e1a02009 	mov	r2, r9
  2008f0:	ebfffefa 	bl	2004e0 <emit>
  2008f4:	e1a0300b 	mov	r3, fp
  2008f8:	ea000015 	b	200954 <va_printk+0x278>
  2008fc:	e58d0000 	str	r0, [sp]
  200900:	e59f0078 	ldr	r0, [pc, #120]	; 200980 <va_printk+0x2a4>
  200904:	e59f1068 	ldr	r1, [pc, #104]	; 200974 <va_printk+0x298>
  200908:	e59f2068 	ldr	r2, [pc, #104]	; 200978 <va_printk+0x29c>
  20090c:	e3a030d0 	mov	r3, #208	; 0xd0
  200910:	ebfffeda 	bl	200480 <printk>
  200914:	ebfffe40 	bl	20021c <rpi_reboot>
  200918:	e4c41001 	strb	r1, [r4], #1
  20091c:	e1540005 	cmp	r4, r5
  200920:	0a000002 	beq	200930 <va_printk+0x254>
  200924:	e5f01001 	ldrb	r1, [r0, #1]!
  200928:	e3510000 	cmp	r1, #0
  20092c:	1afffff9 	bne	200918 <va_printk+0x23c>
  200930:	e5d21000 	ldrb	r1, [r2]
  200934:	e3510000 	cmp	r1, #0
  200938:	0a000001 	beq	200944 <va_printk+0x268>
  20093c:	e1540005 	cmp	r4, r5
  200940:	3affff71 	bcc	20070c <va_printk+0x30>
  200944:	e3a03000 	mov	r3, #0
  200948:	e4c43001 	strb	r3, [r4], #1
  20094c:	e0670004 	rsb	r0, r7, r4
  200950:	ea000004 	b	200968 <va_printk+0x28c>
  200954:	e2862001 	add	r2, r6, #1
  200958:	e5d01000 	ldrb	r1, [r0]
  20095c:	e3510000 	cmp	r1, #0
  200960:	0afffff2 	beq	200930 <va_printk+0x254>
  200964:	eaffffeb 	b	200918 <va_printk+0x23c>
  200968:	e28dd08c 	add	sp, sp, #140	; 0x8c
  20096c:	e8bd8ff0 	pop	{r4, r5, r6, r7, r8, r9, sl, fp, pc}
  200970:	00200ffc 	strdeq	r0, [r0], -ip	; <UNPREDICTABLE>
  200974:	00200fc8 	eoreq	r0, r0, r8, asr #31
  200978:	00200fa8 	eoreq	r0, r0, r8, lsr #31
  20097c:	00201018 	eoreq	r1, r0, r8, lsl r0
  200980:	00201040 	eoreq	r1, r0, r0, asr #32

00200984 <snprintk>:
  200984:	e92d000c 	push	{r2, r3}
  200988:	e52de004 	push	{lr}		; (str lr, [sp, #-4]!)
  20098c:	e24dd00c 	sub	sp, sp, #12
  200990:	e28d3014 	add	r3, sp, #20
  200994:	e58d3004 	str	r3, [sp, #4]
  200998:	e59d2010 	ldr	r2, [sp, #16]
  20099c:	ebffff4e 	bl	2006dc <va_printk>
  2009a0:	e28dd00c 	add	sp, sp, #12
  2009a4:	e49de004 	pop	{lr}		; (ldr lr, [sp], #4)
  2009a8:	e28dd008 	add	sp, sp, #8
  2009ac:	e12fff1e 	bx	lr

002009b0 <putk>:
  2009b0:	e92d4010 	push	{r4, lr}
  2009b4:	e1a04000 	mov	r4, r0
  2009b8:	e5d00000 	ldrb	r0, [r0]
  2009bc:	e3500000 	cmp	r0, #0
  2009c0:	0a000003 	beq	2009d4 <putk+0x24>
  2009c4:	ebfffe9b 	bl	200438 <uart_putc>
  2009c8:	e5f40001 	ldrb	r0, [r4, #1]!
  2009cc:	e3500000 	cmp	r0, #0
  2009d0:	1afffffb 	bne	2009c4 <putk+0x14>
  2009d4:	e3a00001 	mov	r0, #1
  2009d8:	e8bd8010 	pop	{r4, pc}

002009dc <panic>:
  2009dc:	e92d4008 	push	{r3, lr}
  2009e0:	e1a06000 	mov	r6, r0
  2009e4:	e1a05001 	mov	r5, r1
  2009e8:	e1a04002 	mov	r4, r2
  2009ec:	e59f0018 	ldr	r0, [pc, #24]	; 200a0c <panic+0x30>
  2009f0:	ebffffee 	bl	2009b0 <putk>
  2009f4:	e59f0014 	ldr	r0, [pc, #20]	; 200a10 <panic+0x34>
  2009f8:	e1a01006 	mov	r1, r6
  2009fc:	e1a02005 	mov	r2, r5
  200a00:	e1a03004 	mov	r3, r4
  200a04:	ebfffe9d 	bl	200480 <printk>
  200a08:	ebfffe03 	bl	20021c <rpi_reboot>
  200a0c:	00201078 	eoreq	r1, r0, r8, ror r0
  200a10:	00201084 	eoreq	r1, r0, r4, lsl #1

00200a14 <mb>:
  200a14:	e3a00000 	mov	r0, #0
  200a18:	ee070f15 	mcr	15, 0, r0, cr7, cr5, {0}
  200a1c:	ee070fd5 	mcr	15, 0, r0, cr7, cr5, {6}
  200a20:	ee070f9a 	mcr	15, 0, r0, cr7, cr10, {4}
  200a24:	ee070f95 	mcr	15, 0, r0, cr7, cr5, {4}
  200a28:	e12fff1e 	bx	lr

00200a2c <dmb>:
  200a2c:	ee070fba 	mcr	15, 0, r0, cr7, cr10, {5}
  200a30:	e12fff1e 	bx	lr

00200a34 <dsb>:
  200a34:	ee070f9a 	mcr	15, 0, r0, cr7, cr10, {4}
  200a38:	e12fff1e 	bx	lr

00200a3c <gpio_set_function>:
  200a3c:	e92d41f0 	push	{r4, r5, r6, r7, r8, lr}
  200a40:	e1a04000 	mov	r4, r0
  200a44:	e350001f 	cmp	r0, #31
  200a48:	8a000014 	bhi	200aa0 <gpio_set_function+0x64>
  200a4c:	e2015007 	and	r5, r1, #7
  200a50:	e1550001 	cmp	r5, r1
  200a54:	1a000013 	bne	200aa8 <gpio_set_function+0x6c>
  200a58:	e59f7050 	ldr	r7, [pc, #80]	; 200ab0 <gpio_set_function+0x74>
  200a5c:	e0873097 	umull	r3, r7, r7, r0
  200a60:	e1a071a7 	lsr	r7, r7, #3
  200a64:	e1a08107 	lsl	r8, r7, #2
  200a68:	e2886202 	add	r6, r8, #536870912	; 0x20000000
  200a6c:	e2866602 	add	r6, r6, #2097152	; 0x200000
  200a70:	e1a00006 	mov	r0, r6
  200a74:	ebfffe28 	bl	20031c <get32>
  200a78:	e0887007 	add	r7, r8, r7
  200a7c:	e0444087 	sub	r4, r4, r7, lsl #1
  200a80:	e0844084 	add	r4, r4, r4, lsl #1
  200a84:	e3a01007 	mov	r1, #7
  200a88:	e1c01411 	bic	r1, r0, r1, lsl r4
  200a8c:	e1a00006 	mov	r0, r6
  200a90:	e1811415 	orr	r1, r1, r5, lsl r4
  200a94:	ebfffe18 	bl	2002fc <put32>
  200a98:	e3a00000 	mov	r0, #0
  200a9c:	e8bd81f0 	pop	{r4, r5, r6, r7, r8, pc}
  200aa0:	e3e00000 	mvn	r0, #0
  200aa4:	e8bd81f0 	pop	{r4, r5, r6, r7, r8, pc}
  200aa8:	e3e00000 	mvn	r0, #0
  200aac:	e8bd81f0 	pop	{r4, r5, r6, r7, r8, pc}
  200ab0:	cccccccd 	stclgt	12, cr12, [ip], {205}	; 0xcd

00200ab4 <gpio_set_output>:
  200ab4:	e92d4008 	push	{r3, lr}
  200ab8:	e3a01001 	mov	r1, #1
  200abc:	ebffffde 	bl	200a3c <gpio_set_function>
  200ac0:	e8bd8008 	pop	{r3, pc}

00200ac4 <gpio_set_input>:
  200ac4:	e92d4008 	push	{r3, lr}
  200ac8:	e3a01000 	mov	r1, #0
  200acc:	ebffffda 	bl	200a3c <gpio_set_function>
  200ad0:	e8bd8008 	pop	{r3, pc}

00200ad4 <gpio_set_off>:
  200ad4:	e92d4008 	push	{r3, lr}
  200ad8:	e1a03000 	mov	r3, r0
  200adc:	e350001f 	cmp	r0, #31
  200ae0:	8a000005 	bhi	200afc <gpio_set_off+0x28>
  200ae4:	e59f0018 	ldr	r0, [pc, #24]	; 200b04 <gpio_set_off+0x30>
  200ae8:	e3a01001 	mov	r1, #1
  200aec:	e1a01311 	lsl	r1, r1, r3
  200af0:	ebfffe03 	bl	200304 <PUT32>
  200af4:	e3a00000 	mov	r0, #0
  200af8:	e8bd8008 	pop	{r3, pc}
  200afc:	e3e00000 	mvn	r0, #0
  200b00:	e8bd8008 	pop	{r3, pc}
  200b04:	20200028 	eorcs	r0, r0, r8, lsr #32

00200b08 <gpio_set_on>:
  200b08:	e92d4008 	push	{r3, lr}
  200b0c:	e1a03000 	mov	r3, r0
  200b10:	e350001f 	cmp	r0, #31
  200b14:	8a000005 	bhi	200b30 <gpio_set_on+0x28>
  200b18:	e59f0018 	ldr	r0, [pc, #24]	; 200b38 <gpio_set_on+0x30>
  200b1c:	e3a01001 	mov	r1, #1
  200b20:	e1a01311 	lsl	r1, r1, r3
  200b24:	ebfffdf6 	bl	200304 <PUT32>
  200b28:	e3a00000 	mov	r0, #0
  200b2c:	e8bd8008 	pop	{r3, pc}
  200b30:	e3e00000 	mvn	r0, #0
  200b34:	e8bd8008 	pop	{r3, pc}
  200b38:	2020001c 	eorcs	r0, r0, ip, lsl r0

00200b3c <gpio_write>:
  200b3c:	e92d4008 	push	{r3, lr}
  200b40:	e3510000 	cmp	r1, #0
  200b44:	0a000001 	beq	200b50 <gpio_write+0x14>
  200b48:	ebffffee 	bl	200b08 <gpio_set_on>
  200b4c:	e8bd8008 	pop	{r3, pc}
  200b50:	ebffffdf 	bl	200ad4 <gpio_set_off>
  200b54:	e8bd8008 	pop	{r3, pc}

Disassembly of section .rodata:

00200b58 <crc32_tab>:
  200b58:	00000000 	andeq	r0, r0, r0
  200b5c:	77073096 			; <UNDEFINED> instruction: 0x77073096
  200b60:	ee0e612c 	adfep	f6, f6, #4.0
  200b64:	990951ba 	stmdbls	r9, {r1, r3, r4, r5, r7, r8, ip, lr}
  200b68:	076dc419 			; <UNDEFINED> instruction: 0x076dc419
  200b6c:	706af48f 	rsbvc	pc, sl, pc, lsl #9
  200b70:	e963a535 	stmdb	r3!, {r0, r2, r4, r5, r8, sl, sp, pc}^
  200b74:	9e6495a3 	cdpls	5, 6, cr9, cr4, cr3, {5}
  200b78:	0edb8832 	mrceq	8, 6, r8, cr11, cr2, {1}
  200b7c:	79dcb8a4 	ldmibvc	ip, {r2, r5, r7, fp, ip, sp, pc}^
  200b80:	e0d5e91e 	sbcs	lr, r5, lr, lsl r9
  200b84:	97d2d988 	ldrbls	sp, [r2, r8, lsl #19]
  200b88:	09b64c2b 	ldmibeq	r6!, {r0, r1, r3, r5, sl, fp, lr}
  200b8c:	7eb17cbd 	mrcvc	12, 5, r7, cr1, cr13, {5}
  200b90:	e7b82d07 	ldr	r2, [r8, r7, lsl #26]!
  200b94:	90bf1d91 	umlalsls	r1, pc, r1, sp	; <UNPREDICTABLE>
  200b98:	1db71064 	ldcne	0, cr1, [r7, #400]!	; 0x190
  200b9c:	6ab020f2 	bvs	fee08f6c <__bss_end__+0xfec07ac4>
  200ba0:	f3b97148 	vceq.i32	<illegal reg q3.5>, q4, #0
  200ba4:	84be41de 	ldrthi	r4, [lr], #478	; 0x1de
  200ba8:	1adad47d 	bne	ff8b5da4 <__bss_end__+0xff6b48fc>
  200bac:	6ddde4eb 	cfldrdvs	mvd14, [sp, #940]	; 0x3ac
  200bb0:	f4d4b551 			; <UNDEFINED> instruction: 0xf4d4b551
  200bb4:	83d385c7 	bicshi	r8, r3, #834666496	; 0x31c00000
  200bb8:	136c9856 	cmnne	ip, #5636096	; 0x560000
  200bbc:	646ba8c0 	strbtvs	sl, [fp], #-2240	; 0x8c0
  200bc0:	fd62f97a 	stc2l	9, cr15, [r2, #-488]!	; 0xfffffe18
  200bc4:	8a65c9ec 	bhi	1b7337c <__bss_end__+0x1971ed4>
  200bc8:	14015c4f 	strne	r5, [r1], #-3151	; 0xc4f
  200bcc:	63066cd9 	movwvs	r6, #27865	; 0x6cd9
  200bd0:	fa0f3d63 	blx	5d0164 <__bss_end__+0x3cecbc>
  200bd4:	8d080df5 	stchi	13, cr0, [r8, #-980]	; 0xfffffc2c
  200bd8:	3b6e20c8 	blcc	1d88f00 <__bss_end__+0x1b87a58>
  200bdc:	4c69105e 	stclmi	0, cr1, [r9], #-376	; 0xfffffe88
  200be0:	d56041e4 	strble	r4, [r0, #-484]!	; 0x1e4
  200be4:	a2677172 	rsbge	r7, r7, #-2147483620	; 0x8000001c
  200be8:	3c03e4d1 	cfstrscc	mvf14, [r3], {209}	; 0xd1
  200bec:	4b04d447 	blmi	335d10 <__bss_end__+0x134868>
  200bf0:	d20d85fd 	andle	r8, sp, #1061158912	; 0x3f400000
  200bf4:	a50ab56b 	strge	fp, [sl, #-1387]	; 0x56b
  200bf8:	35b5a8fa 	ldrcc	sl, [r5, #2298]!	; 0x8fa
  200bfc:	42b2986c 	adcsmi	r9, r2, #108, 16	; 0x6c0000
  200c00:	dbbbc9d6 	blle	ff0f3360 <__bss_end__+0xfeef1eb8>
  200c04:	acbcf940 	ldcge	9, cr15, [ip], #256	; 0x100
  200c08:	32d86ce3 	sbcscc	r6, r8, #58112	; 0xe300
  200c0c:	45df5c75 	ldrbmi	r5, [pc, #3189]	; 201889 <__bss_end__+0x3e1>
  200c10:	dcd60dcf 	ldclle	13, cr0, [r6], {207}	; 0xcf
  200c14:	abd13d59 	blge	ff650180 <__bss_end__+0xff44ecd8>
  200c18:	26d930ac 	ldrbcs	r3, [r9], ip, lsr #1
  200c1c:	51de003a 	bicspl	r0, lr, sl, lsr r0
  200c20:	c8d75180 	ldmgt	r7, {r7, r8, ip, lr}^
  200c24:	bfd06116 	svclt	0x00d06116
  200c28:	21b4f4b5 			; <UNDEFINED> instruction: 0x21b4f4b5
  200c2c:	56b3c423 	ldrtpl	ip, [r3], r3, lsr #8
  200c30:	cfba9599 	svcgt	0x00ba9599
  200c34:	b8bda50f 	poplt	{r0, r1, r2, r3, r8, sl, sp, pc}
  200c38:	2802b89e 	stmdacs	r2, {r1, r2, r3, r4, r7, fp, ip, sp, pc}
  200c3c:	5f058808 	svcpl	0x00058808
  200c40:	c60cd9b2 			; <UNDEFINED> instruction: 0xc60cd9b2
  200c44:	b10be924 	tstlt	fp, r4, lsr #18
  200c48:	2f6f7c87 	svccs	0x006f7c87
  200c4c:	58684c11 	stmdapl	r8!, {r0, r4, sl, fp, lr}^
  200c50:	c1611dab 	cmngt	r1, fp, lsr #27
  200c54:	b6662d3d 			; <UNDEFINED> instruction: 0xb6662d3d
  200c58:	76dc4190 			; <UNDEFINED> instruction: 0x76dc4190
  200c5c:	01db7106 	bicseq	r7, fp, r6, lsl #2
  200c60:	98d220bc 	ldmls	r2, {r2, r3, r4, r5, r7, sp}^
  200c64:	efd5102a 	svc	0x00d5102a
  200c68:	71b18589 			; <UNDEFINED> instruction: 0x71b18589
  200c6c:	06b6b51f 	ssateq	fp, #23, pc, lsl #10	; <UNPREDICTABLE>
  200c70:	9fbfe4a5 	svcls	0x00bfe4a5
  200c74:	e8b8d433 	ldm	r8!, {r0, r1, r4, r5, sl, ip, lr, pc}
  200c78:	7807c9a2 	stmdavc	r7, {r1, r5, r7, r8, fp, lr, pc}
  200c7c:	0f00f934 	svceq	0x0000f934
  200c80:	9609a88e 	strls	sl, [r9], -lr, lsl #17
  200c84:	e10e9818 	tst	lr, r8, lsl r8
  200c88:	7f6a0dbb 	svcvc	0x006a0dbb
  200c8c:	086d3d2d 	stmdaeq	sp!, {r0, r2, r3, r5, r8, sl, fp, ip, sp}^
  200c90:	91646c97 			; <UNDEFINED> instruction: 0x91646c97
  200c94:	e6635c01 	strbt	r5, [r3], -r1, lsl #24
  200c98:	6b6b51f4 	blvs	1cd5470 <__bss_end__+0x1ad3fc8>
  200c9c:	1c6c6162 	stfnee	f6, [ip], #-392	; 0xfffffe78
  200ca0:	856530d8 	strbhi	r3, [r5, #-216]!	; 0xd8
  200ca4:	f262004e 	vhadd.s32	q8, q1, q7
  200ca8:	6c0695ed 	cfstr32vs	mvfx9, [r6], {237}	; 0xed
  200cac:	1b01a57b 	blne	26a2a0 <__bss_end__+0x68df8>
  200cb0:	8208f4c1 	andhi	pc, r8, #-1056964608	; 0xc1000000
  200cb4:	f50fc457 			; <UNDEFINED> instruction: 0xf50fc457
  200cb8:	65b0d9c6 	ldrvs	sp, [r0, #2502]!	; 0x9c6
  200cbc:	12b7e950 	adcsne	lr, r7, #80, 18	; 0x140000
  200cc0:	8bbeb8ea 	blhi	ff1af070 <__bss_end__+0xfefadbc8>
  200cc4:	fcb9887c 	ldc2	8, cr8, [r9], #496	; 0x1f0
  200cc8:	62dd1ddf 	sbcsvs	r1, sp, #14272	; 0x37c0
  200ccc:	15da2d49 	ldrbne	r2, [sl, #3401]	; 0xd49
  200cd0:	8cd37cf3 	ldclhi	12, cr7, [r3], {243}	; 0xf3
  200cd4:	fbd44c65 	blx	ff713e72 <__bss_end__+0xff5129ca>
  200cd8:	4db26158 	ldfmis	f6, [r2, #352]!	; 0x160
  200cdc:	3ab551ce 	bcc	fef5541c <__bss_end__+0xfed53f74>
  200ce0:	a3bc0074 			; <UNDEFINED> instruction: 0xa3bc0074
  200ce4:	d4bb30e2 	ldrtle	r3, [fp], #226	; 0xe2
  200ce8:	4adfa541 	bmi	ff9ea1f4 <__bss_end__+0xff7e8d4c>
  200cec:	3dd895d7 	cfldr64cc	mvdx9, [r8, #860]	; 0x35c
  200cf0:	a4d1c46d 	ldrbge	ip, [r1], #1133	; 0x46d
  200cf4:	d3d6f4fb 	bicsle	pc, r6, #-83886080	; 0xfb000000
  200cf8:	4369e96a 	cmnmi	r9, #1736704	; 0x1a8000
  200cfc:	346ed9fc 	strbtcc	sp, [lr], #-2556	; 0x9fc
  200d00:	ad678846 	stclge	8, cr8, [r7, #-280]!	; 0xfffffee8
  200d04:	da60b8d0 	ble	1a2f04c <__bss_end__+0x182dba4>
  200d08:	44042d73 	strmi	r2, [r4], #-3443	; 0xd73
  200d0c:	33031de5 	movwcc	r1, #15845	; 0x3de5
  200d10:	aa0a4c5f 	bge	493e94 <__bss_end__+0x2929ec>
  200d14:	dd0d7cc9 	stcle	12, cr7, [sp, #-804]	; 0xfffffcdc
  200d18:	5005713c 	andpl	r7, r5, ip, lsr r1
  200d1c:	270241aa 	strcs	r4, [r2, -sl, lsr #3]
  200d20:	be0b1010 	mcrlt	0, 0, r1, cr11, cr0, {0}
  200d24:	c90c2086 	stmdbgt	ip, {r1, r2, r7, sp}
  200d28:	5768b525 	strbpl	fp, [r8, -r5, lsr #10]!
  200d2c:	206f85b3 	strhtcs	r8, [pc], #-83
  200d30:	b966d409 	stmdblt	r6!, {r0, r3, sl, ip, lr, pc}^
  200d34:	ce61e49f 	mcrgt	4, 3, lr, cr1, cr15, {4}
  200d38:	5edef90e 	cdppl	9, 13, cr15, cr14, cr14, {0}
  200d3c:	29d9c998 	ldmibcs	r9, {r3, r4, r7, r8, fp, lr, pc}^
  200d40:	b0d09822 	sbcslt	r9, r0, r2, lsr #16
  200d44:	c7d7a8b4 			; <UNDEFINED> instruction: 0xc7d7a8b4
  200d48:	59b33d17 	ldmibpl	r3!, {r0, r1, r2, r4, r8, sl, fp, ip, sp}
  200d4c:	2eb40d81 	cdpcs	13, 11, cr0, cr4, cr1, {4}
  200d50:	b7bd5c3b 			; <UNDEFINED> instruction: 0xb7bd5c3b
  200d54:	c0ba6cad 	adcsgt	r6, sl, sp, lsr #25
  200d58:	edb88320 	ldc	3, cr8, [r8, #128]!	; 0x80
  200d5c:	9abfb3b6 	bls	ff1edc3c <__bss_end__+0xfefec794>
  200d60:	03b6e20c 			; <UNDEFINED> instruction: 0x03b6e20c
  200d64:	74b1d29a 	ldrtvc	sp, [r1], #666	; 0x29a
  200d68:	ead54739 	b	ff752a54 <__bss_end__+0xff5515ac>
  200d6c:	9dd277af 	ldclls	7, cr7, [r2, #700]	; 0x2bc
  200d70:	04db2615 	ldrbeq	r2, [fp], #1557	; 0x615
  200d74:	73dc1683 	bicsvc	r1, ip, #137363456	; 0x8300000
  200d78:	e3630b12 	cmn	r3, #18432	; 0x4800
  200d7c:	94643b84 	strbtls	r3, [r4], #-2948	; 0xb84
  200d80:	0d6d6a3e 	vpusheq	{s13-s74}
  200d84:	7a6a5aa8 	bvc	1c9782c <__bss_end__+0x1a96384>
  200d88:	e40ecf0b 	str	ip, [lr], #-3851	; 0xf0b
  200d8c:	9309ff9d 	movwls	pc, #40861	; 0x9f9d	; <UNPREDICTABLE>
  200d90:	0a00ae27 	beq	22c634 <__bss_end__+0x2b18c>
  200d94:	7d079eb1 	stcvc	14, cr9, [r7, #-708]	; 0xfffffd3c
  200d98:	f00f9344 			; <UNDEFINED> instruction: 0xf00f9344
  200d9c:	8708a3d2 			; <UNDEFINED> instruction: 0x8708a3d2
  200da0:	1e01f268 	cdpne	2, 0, cr15, cr1, cr8, {3}
  200da4:	6906c2fe 	stmdbvs	r6, {r1, r2, r3, r4, r5, r6, r7, r9, lr, pc}
  200da8:	f762575d 			; <UNDEFINED> instruction: 0xf762575d
  200dac:	806567cb 	rsbhi	r6, r5, fp, asr #15
  200db0:	196c3671 	stmdbne	ip!, {r0, r4, r5, r6, r9, sl, ip, sp}^
  200db4:	6e6b06e7 	cdpvs	6, 6, cr0, cr11, cr7, {7}
  200db8:	fed41b76 	mrc2	11, 6, r1, cr4, cr6, {3}
  200dbc:	89d32be0 	ldmibhi	r3, {r5, r6, r7, r8, r9, fp, sp}^
  200dc0:	10da7a5a 	sbcsne	r7, sl, sl, asr sl
  200dc4:	67dd4acc 	ldrbvs	r4, [sp, ip, asr #21]
  200dc8:	f9b9df6f 			; <UNDEFINED> instruction: 0xf9b9df6f
  200dcc:	8ebeeff9 	mrchi	15, 5, lr, cr14, cr9, {7}
  200dd0:	17b7be43 	ldrne	fp, [r7, r3, asr #28]!
  200dd4:	60b08ed5 	ldrsbtvs	r8, [r0], r5
  200dd8:	d6d6a3e8 	ldrble	sl, [r6], r8, ror #7
  200ddc:	a1d1937e 	bicsge	r9, r1, lr, ror r3
  200de0:	38d8c2c4 	ldmcc	r8, {r2, r6, r7, r9, lr, pc}^
  200de4:	4fdff252 	svcmi	0x00dff252
  200de8:	d1bb67f1 			; <UNDEFINED> instruction: 0xd1bb67f1
  200dec:	a6bc5767 	ldrtge	r5, [ip], r7, ror #14
  200df0:	3fb506dd 	svccc	0x00b506dd
  200df4:	48b2364b 	ldmmi	r2!, {r0, r1, r3, r6, r9, sl, ip, sp}
  200df8:	d80d2bda 	stmdale	sp, {r1, r3, r4, r6, r7, r8, r9, fp, sp}
  200dfc:	af0a1b4c 	svcge	0x000a1b4c
  200e00:	36034af6 			; <UNDEFINED> instruction: 0x36034af6
  200e04:	41047a60 	tstmi	r4, r0, ror #20
  200e08:	df60efc3 	svcle	0x0060efc3
  200e0c:	a867df55 	stmdage	r7!, {r0, r2, r4, r6, r8, r9, sl, fp, ip, lr, pc}^
  200e10:	316e8eef 	cmncc	lr, pc, ror #29
  200e14:	4669be79 			; <UNDEFINED> instruction: 0x4669be79
  200e18:	cb61b38c 	blgt	1a6dc50 <__bss_end__+0x186c7a8>
  200e1c:	bc66831a 	stcllt	3, cr8, [r6], #-104	; 0xffffff98
  200e20:	256fd2a0 	strbcs	sp, [pc, #-672]!	; 200b88 <crc32_tab+0x30>
  200e24:	5268e236 	rsbpl	lr, r8, #1610612739	; 0x60000003
  200e28:	cc0c7795 	stcgt	7, cr7, [ip], {149}	; 0x95
  200e2c:	bb0b4703 	bllt	4d2a40 <__bss_end__+0x2d1598>
  200e30:	220216b9 	andcs	r1, r2, #193986560	; 0xb900000
  200e34:	5505262f 	strpl	r2, [r5, #-1583]	; 0x62f
  200e38:	c5ba3bbe 	ldrgt	r3, [sl, #3006]!	; 0xbbe
  200e3c:	b2bd0b28 	adcslt	r0, sp, #40, 22	; 0xa000
  200e40:	2bb45a92 	blcs	fef17890 <__bss_end__+0xfed163e8>
  200e44:	5cb36a04 	vldmiapl	r3!, {s12-s15}
  200e48:	c2d7ffa7 	sbcsgt	pc, r7, #668	; 0x29c
  200e4c:	b5d0cf31 	ldrblt	ip, [r0, #3889]	; 0xf31
  200e50:	2cd99e8b 	ldclcs	14, cr9, [r9], {139}	; 0x8b
  200e54:	5bdeae1d 	blpl	ff9ac6d0 <__bss_end__+0xff7ab228>
  200e58:	9b64c2b0 	blls	1b31920 <__bss_end__+0x1930478>
  200e5c:	ec63f226 	sfm	f7, 3, [r3], #-152	; 0xffffff68
  200e60:	756aa39c 	strbvc	sl, [sl, #-924]!	; 0x39c
  200e64:	026d930a 	rsbeq	r9, sp, #671088640	; 0x28000000
  200e68:	9c0906a9 	stcls	6, cr0, [r9], {169}	; 0xa9
  200e6c:	eb0e363f 	bl	58e770 <__bss_end__+0x38d2c8>
  200e70:	72076785 	andvc	r6, r7, #34865152	; 0x2140000
  200e74:	05005713 	streq	r5, [r0, #-1811]	; 0x713
  200e78:	95bf4a82 	ldrls	r4, [pc, #2690]!	; 201902 <__bss_end__+0x45a>
  200e7c:	e2b87a14 	adcs	r7, r8, #20, 20	; 0x14000
  200e80:	7bb12bae 	blvc	fee4bd40 <__bss_end__+0xfec4a898>
  200e84:	0cb61b38 	vldmiaeq	r6!, {d1-d28}
  200e88:	92d28e9b 	sbcsls	r8, r2, #2480	; 0x9b0
  200e8c:	e5d5be0d 	ldrb	fp, [r5, #3597]	; 0xe0d
  200e90:	7cdcefb7 	ldclvc	15, cr14, [ip], {183}	; 0xb7
  200e94:	0bdbdf21 	bleq	ff8f8b20 <__bss_end__+0xff6f7678>
  200e98:	86d3d2d4 			; <UNDEFINED> instruction: 0x86d3d2d4
  200e9c:	f1d4e242 			; <UNDEFINED> instruction: 0xf1d4e242
  200ea0:	68ddb3f8 	ldmvs	sp, {r3, r4, r5, r6, r7, r8, r9, ip, sp, pc}^
  200ea4:	1fda836e 	svcne	0x00da836e
  200ea8:	81be16cd 			; <UNDEFINED> instruction: 0x81be16cd
  200eac:	f6b9265b 			; <UNDEFINED> instruction: 0xf6b9265b
  200eb0:	6fb077e1 	svcvs	0x00b077e1
  200eb4:	18b74777 	ldmne	r7!, {r0, r1, r2, r4, r5, r6, r8, r9, sl, lr}
  200eb8:	88085ae6 	stmdahi	r8, {r1, r2, r5, r6, r7, r9, fp, ip, lr}
  200ebc:	ff0f6a70 			; <UNDEFINED> instruction: 0xff0f6a70
  200ec0:	66063bca 	strvs	r3, [r6], -sl, asr #23
  200ec4:	11010b5c 	tstne	r1, ip, asr fp
  200ec8:	8f659eff 	svchi	0x00659eff
  200ecc:	f862ae69 			; <UNDEFINED> instruction: 0xf862ae69
  200ed0:	616bffd3 	ldrdvs	pc, [fp, #-243]!	; 0xffffff0d
  200ed4:	166ccf45 	strbtne	ip, [ip], -r5, asr #30
  200ed8:	a00ae278 	andge	lr, sl, r8, ror r2
  200edc:	d70dd2ee 	strle	sp, [sp, -lr, ror #5]
  200ee0:	4e048354 	mcrmi	3, 0, r8, cr4, cr4, {2}
  200ee4:	3903b3c2 	stmdbcc	r3, {r1, r6, r7, r8, r9, ip, sp, pc}
  200ee8:	a7672661 	strbge	r2, [r7, -r1, ror #12]!
  200eec:	d06016f7 	strdle	r1, [r0], #-103	; 0xffffff99	; <UNPREDICTABLE>
  200ef0:	4969474d 	stmdbmi	r9!, {r0, r2, r3, r6, r8, r9, sl, lr}^
  200ef4:	3e6e77db 	mcrcc	7, 3, r7, cr14, cr11, {6}
  200ef8:	aed16a4a 	vfnmage.f32	s13, s2, s20
  200efc:	d9d65adc 	ldmible	r6, {r2, r3, r4, r6, r7, r9, fp, ip, lr}^
  200f00:	40df0b66 	sbcsmi	r0, pc, r6, ror #22
  200f04:	37d83bf0 			; <UNDEFINED> instruction: 0x37d83bf0
  200f08:	a9bcae53 	ldmibge	ip!, {r0, r1, r4, r6, r9, sl, fp, sp, pc}
  200f0c:	debb9ec5 	cdple	14, 11, cr9, cr11, cr5, {6}
  200f10:	47b2cf7f 			; <UNDEFINED> instruction: 0x47b2cf7f
  200f14:	30b5ffe9 	adcscc	pc, r5, r9, ror #31
  200f18:	bdbdf21c 	lfmlt	f7, 1, [sp, #112]!	; 0x70
  200f1c:	cabac28a 	bgt	ff0b194c <__bss_end__+0xfeeb04a4>
  200f20:	53b39330 			; <UNDEFINED> instruction: 0x53b39330
  200f24:	24b4a3a6 	ldrtcs	sl, [r4], #934	; 0x3a6
  200f28:	bad03605 	blt	ff60e744 <__bss_end__+0xff40d29c>
  200f2c:	cdd70693 	ldclgt	6, cr0, [r7, #588]	; 0x24c
  200f30:	54de5729 	ldrbpl	r5, [lr], #1833	; 0x729
  200f34:	23d967bf 	bicscs	r6, r9, #50069504	; 0x2fc0000
  200f38:	b3667a2e 	cmnlt	r6, #188416	; 0x2e000
  200f3c:	c4614ab8 	strbtgt	r4, [r1], #-2744	; 0xab8
  200f40:	5d681b02 	vstmdbpl	r8!, {d17}
  200f44:	2a6f2b94 	bcs	1dcbd9c <__bss_end__+0x1bca8f4>
  200f48:	b40bbe37 	strlt	fp, [fp], #-3639	; 0xe37
  200f4c:	c30c8ea1 	movwgt	r8, #52897	; 0xcea1
  200f50:	5a05df1b 	bpl	378bc4 <__bss_end__+0x17771c>
  200f54:	2d02ef8d 	stccs	15, cr14, [r2, #-564]	; 0xfffffdcc

00200f58 <__FUNCTION__.3767>:
  200f58:	5f697072 	svcpl	0x00697072
  200f5c:	6f626572 	svcvs	0x00626572
  200f60:	0000746f 	andeq	r7, r0, pc, ror #8
  200f64:	494e4150 	stmdbmi	lr, {r4, r6, r8, lr}^
  200f68:	73253a43 	teqvc	r5, #274432	; 0x43000
  200f6c:	3a73253a 	bcc	1eca45c <__bss_end__+0x1cc8fb4>
  200f70:	613a6425 	teqvs	sl, r5, lsr #8
  200f74:	73755f74 	cmnvc	r5, #116, 30	; 0x1d0
  200f78:	6c5f7265 	lfmvs	f7, 2, [pc], {101}	; 0x65
  200f7c:	6c657665 	stclvs	6, cr7, [r5], #-404	; 0xfffffe6c
  200f80:	000a2928 	andeq	r2, sl, r8, lsr #18
  200f84:	34317363 	ldrtcc	r7, [r1], #-867	; 0x363
  200f88:	722d6530 	eorvc	r6, sp, #48, 10	; 0xc000000
  200f8c:	6f6f6265 	svcvs	0x006f6265
  200f90:	00632e74 	rsbeq	r2, r3, r4, ror lr
  200f94:	454e4f44 	strbmi	r4, [lr, #-3908]	; 0xf44
  200f98:	0a212121 	beq	a49424 <__bss_end__+0x847f7c>
  200f9c:	00000000 	andeq	r0, r0, r0

00200fa0 <__FUNCTION__.3816>:
  200fa0:	74696d65 	strbtvc	r6, [r9], #-3429	; 0xd65
  200fa4:	00000000 	andeq	r0, r0, r0

00200fa8 <__FUNCTION__.3831>:
  200fa8:	705f6176 	subsvc	r6, pc, r6, ror r1	; <UNPREDICTABLE>
  200fac:	746e6972 	strbtvc	r6, [lr], #-2418	; 0x972
  200fb0:	0000006b 	andeq	r0, r0, fp, rrx
  200fb4:	494e4150 	stmdbmi	lr, {r4, r6, r8, lr}^
  200fb8:	73253a43 	teqvc	r5, #274432	; 0x43000
  200fbc:	3a73253a 	bcc	1eca4ac <__bss_end__+0x1cc9004>
  200fc0:	303a6425 	eorscc	r6, sl, r5, lsr #8
  200fc4:	0000000a 	andeq	r0, r0, sl
  200fc8:	34317363 	ldrtcc	r7, [r1], #-867	; 0x363
  200fcc:	702d6530 	eorvc	r6, sp, r0, lsr r5
  200fd0:	746e6972 	strbtvc	r6, [lr], #-2418	; 0x972
  200fd4:	00632e66 	rsbeq	r2, r3, r6, ror #28
  200fd8:	33323130 	teqcc	r2, #48, 2
  200fdc:	37363534 			; <UNDEFINED> instruction: 0x37363534
  200fe0:	00003938 	andeq	r3, r0, r8, lsr r9
  200fe4:	33323130 	teqcc	r2, #48, 2
  200fe8:	37363534 			; <UNDEFINED> instruction: 0x37363534
  200fec:	62613938 	rsbvs	r3, r1, #56, 18	; 0xe0000
  200ff0:	66656463 	strbtvs	r6, [r5], -r3, ror #8
  200ff4:	00000000 	andeq	r0, r0, r0
  200ff8:	00003130 	andeq	r3, r0, r0, lsr r1
  200ffc:	494e4150 	stmdbmi	lr, {r4, r6, r8, lr}^
  201000:	73253a43 	teqvc	r5, #274432	; 0x43000
  201004:	3a73253a 	bcc	1eca4f4 <__bss_end__+0x1cc904c>
  201008:	773a6425 	ldrvc	r6, [sl, -r5, lsr #8]!
  20100c:	68746469 	ldmdavs	r4!, {r0, r3, r5, r6, sl, sp, lr}^
  201010:	33203c20 	teqcc	r0, #32, 24	; 0x2000
  201014:	00000a32 	andeq	r0, r0, r2, lsr sl
  201018:	494e4150 	stmdbmi	lr, {r4, r6, r8, lr}^
  20101c:	73253a43 	teqvc	r5, #274432	; 0x43000
  201020:	3a73253a 	bcc	1eca510 <__bss_end__+0x1cc9068>
  201024:	663a6425 	ldrtvs	r6, [sl], -r5, lsr #8
  201028:	74616f6c 	strbtvc	r6, [r1], #-3948	; 0xf6c
  20102c:	746f6e20 	strbtvc	r6, [pc], #-3616	; 201034 <__FUNCTION__.3831+0x8c>
  201030:	616e6520 	cmnvs	lr, r0, lsr #10
  201034:	64656c62 	strbtvs	r6, [r5], #-3170	; 0xc62
  201038:	0a212121 	beq	a494c4 <__bss_end__+0x84801c>
  20103c:	00000000 	andeq	r0, r0, r0
  201040:	494e4150 	stmdbmi	lr, {r4, r6, r8, lr}^
  201044:	73253a43 	teqvc	r5, #274432	; 0x43000
  201048:	3a73253a 	bcc	1eca538 <__bss_end__+0x1cc9090>
  20104c:	703a6425 	eorsvc	r6, sl, r5, lsr #8
  201050:	746e6972 	strbtvc	r6, [lr], #-2418	; 0x972
  201054:	6e203a6b 	vnmulvs.f32	s6, s0, s23
  201058:	6820746f 	stmdavs	r0!, {r0, r1, r2, r3, r5, r6, sl, ip, sp, lr}
  20105c:	6c646e61 	stclvs	14, cr6, [r4], #-388	; 0xfffffe7c
  201060:	20676e69 	rsbcs	r6, r7, r9, ror #28
  201064:	63657073 	cmnvs	r5, #115	; 0x73
  201068:	65696669 	strbvs	r6, [r9, #-1641]!	; 0x669
  20106c:	25272072 	strcs	r2, [r7, #-114]!	; 0x72
  201070:	0a0a2763 	beq	48ae04 <__bss_end__+0x28995c>
  201074:	00000000 	andeq	r0, r0, r0
  201078:	4e41503c 	mcrmi	0, 2, r5, cr1, cr12, {1}
  20107c:	3a3e4349 	bcc	1191da8 <__bss_end__+0xf90900>
  201080:	00000000 	andeq	r0, r0, r0
  201084:	253a7325 	ldrcs	r7, [sl, #-805]!	; 0x325
  201088:	50203a64 	eorpl	r3, r0, r4, ror #20
  20108c:	43494e41 	movtmi	r4, #40513	; 0x9e41
  201090:	4e415020 	cdpmi	0, 4, cr5, cr1, cr0, {1}
  201094:	50204349 	eorpl	r4, r0, r9, asr #6
  201098:	43494e41 	movtmi	r4, #40513	; 0x9e41
  20109c:	7325203a 	teqvc	r5, #58	; 0x3a
  2010a0:	0000000a 	andeq	r0, r0, sl

Disassembly of section .bss:

002010a4 <__bss_start__>:
	...

Disassembly of section .ARM.attributes:

00000000 <.ARM.attributes>:
   0:	00002a41 	andeq	r2, r0, r1, asr #20
   4:	61656100 	cmnvs	r5, r0, lsl #2
   8:	01006962 	tsteq	r0, r2, ror #18
   c:	00000020 	andeq	r0, r0, r0, lsr #32
  10:	4b5a3605 	blmi	168d82c <__bss_end__+0x148c384>
  14:	08070600 	stmdaeq	r7, {r9, sl}
  18:	12010901 	andne	r0, r1, #16384	; 0x4000
  1c:	15011404 	strne	r1, [r1, #-1028]	; 0x404
  20:	18031701 	stmdane	r3, {r0, r8, r9, sl, ip}
  24:	22011a01 	andcs	r1, r1, #4096	; 0x1000
  28:	Address 0x0000000000000028 is out of bounds.


Disassembly of section .comment:

00000000 <.comment>:
   0:	3a434347 	bcc	10d0d24 <__bss_end__+0xecf87c>
   4:	4e472820 	cdpmi	8, 4, cr2, cr7, cr0, {1}
   8:	34202955 	strtcc	r2, [r0], #-2389	; 0x955
   c:	332e382e 	teqcc	lr, #3014656	; 0x2e0000
	...
