
blink.elf:     file format elf32-littlearm


Disassembly of section .text:

00008000 <_start>:
    8000:	e3a0d902 	mov	sp, #32768	; 0x8000
    8004:	eb000075 	bl	81e0 <notmain>

00008008 <hang>:
    8008:	eafffffe 	b	8008 <hang>

0000800c <put32>:
    800c:	e5801000 	str	r1, [r0]
    8010:	e12fff1e 	bx	lr

00008014 <get32>:
    8014:	e5900000 	ldr	r0, [r0]
    8018:	e12fff1e 	bx	lr

0000801c <gpio_set_output>:
    801c:	e92d4800 	push	{fp, lr}
    8020:	e28db004 	add	fp, sp, #4
    8024:	e24dd018 	sub	sp, sp, #24
    8028:	e50b0018 	str	r0, [fp, #-24]
    802c:	e51b2018 	ldr	r2, [fp, #-24]
    8030:	e59f30d4 	ldr	r3, [pc, #212]	; 810c <gpio_set_output+0xf0>
    8034:	e0831392 	umull	r1, r3, r2, r3
    8038:	e1a031a3 	lsr	r3, r3, #3
    803c:	e2833302 	add	r3, r3, #134217728	; 0x8000000
    8040:	e2833702 	add	r3, r3, #524288	; 0x80000
    8044:	e1a03103 	lsl	r3, r3, #2
    8048:	e50b3008 	str	r3, [fp, #-8]
    804c:	e51b0008 	ldr	r0, [fp, #-8]
    8050:	ebffffef 	bl	8014 <get32>
    8054:	e50b000c 	str	r0, [fp, #-12]
    8058:	e51b1018 	ldr	r1, [fp, #-24]
    805c:	e59f30a8 	ldr	r3, [pc, #168]	; 810c <gpio_set_output+0xf0>
    8060:	e0832391 	umull	r2, r3, r1, r3
    8064:	e1a021a3 	lsr	r2, r3, #3
    8068:	e1a03002 	mov	r3, r2
    806c:	e1a03103 	lsl	r3, r3, #2
    8070:	e0833002 	add	r3, r3, r2
    8074:	e1a03083 	lsl	r3, r3, #1
    8078:	e0632001 	rsb	r2, r3, r1
    807c:	e1a03002 	mov	r3, r2
    8080:	e1a03083 	lsl	r3, r3, #1
    8084:	e0833002 	add	r3, r3, r2
    8088:	e3a02007 	mov	r2, #7
    808c:	e1a03312 	lsl	r3, r2, r3
    8090:	e1e03003 	mvn	r3, r3
    8094:	e50b3010 	str	r3, [fp, #-16]
    8098:	e51b200c 	ldr	r2, [fp, #-12]
    809c:	e51b3010 	ldr	r3, [fp, #-16]
    80a0:	e0023003 	and	r3, r2, r3
    80a4:	e50b300c 	str	r3, [fp, #-12]
    80a8:	e51b1018 	ldr	r1, [fp, #-24]
    80ac:	e59f3058 	ldr	r3, [pc, #88]	; 810c <gpio_set_output+0xf0>
    80b0:	e0832391 	umull	r2, r3, r1, r3
    80b4:	e1a021a3 	lsr	r2, r3, #3
    80b8:	e1a03002 	mov	r3, r2
    80bc:	e1a03103 	lsl	r3, r3, #2
    80c0:	e0833002 	add	r3, r3, r2
    80c4:	e1a03083 	lsl	r3, r3, #1
    80c8:	e0632001 	rsb	r2, r3, r1
    80cc:	e1a03002 	mov	r3, r2
    80d0:	e1a03083 	lsl	r3, r3, #1
    80d4:	e0833002 	add	r3, r3, r2
    80d8:	e3a02001 	mov	r2, #1
    80dc:	e1a03312 	lsl	r3, r2, r3
    80e0:	e51b200c 	ldr	r2, [fp, #-12]
    80e4:	e1823003 	orr	r3, r2, r3
    80e8:	e50b300c 	str	r3, [fp, #-12]
    80ec:	e51b0008 	ldr	r0, [fp, #-8]
    80f0:	e51b100c 	ldr	r1, [fp, #-12]
    80f4:	ebffffc4 	bl	800c <put32>
    80f8:	e3a03001 	mov	r3, #1
    80fc:	e1a00003 	mov	r0, r3
    8100:	e24bd004 	sub	sp, fp, #4
    8104:	e8bd4800 	pop	{fp, lr}
    8108:	e12fff1e 	bx	lr
    810c:	cccccccd 	stclgt	12, cr12, [ip], {205}	; 0xcd

00008110 <gpio_set_on>:
    8110:	e92d4800 	push	{fp, lr}
    8114:	e28db004 	add	fp, sp, #4
    8118:	e24dd010 	sub	sp, sp, #16
    811c:	e50b0010 	str	r0, [fp, #-16]
    8120:	e51b3010 	ldr	r3, [fp, #-16]
    8124:	e3a02001 	mov	r2, #1
    8128:	e1a03312 	lsl	r3, r2, r3
    812c:	e50b3008 	str	r3, [fp, #-8]
    8130:	e59f3020 	ldr	r3, [pc, #32]	; 8158 <gpio_set_on+0x48>
    8134:	e5933000 	ldr	r3, [r3]
    8138:	e1a00003 	mov	r0, r3
    813c:	e51b1008 	ldr	r1, [fp, #-8]
    8140:	ebffffb1 	bl	800c <put32>
    8144:	e3a03001 	mov	r3, #1
    8148:	e1a00003 	mov	r0, r3
    814c:	e24bd004 	sub	sp, fp, #4
    8150:	e8bd4800 	pop	{fp, lr}
    8154:	e12fff1e 	bx	lr
    8158:	000082a4 	andeq	r8, r0, r4, lsr #5

0000815c <gpio_set_off>:
    815c:	e92d4800 	push	{fp, lr}
    8160:	e28db004 	add	fp, sp, #4
    8164:	e24dd010 	sub	sp, sp, #16
    8168:	e50b0010 	str	r0, [fp, #-16]
    816c:	e51b3010 	ldr	r3, [fp, #-16]
    8170:	e3a02001 	mov	r2, #1
    8174:	e1a03312 	lsl	r3, r2, r3
    8178:	e50b3008 	str	r3, [fp, #-8]
    817c:	e59f3020 	ldr	r3, [pc, #32]	; 81a4 <gpio_set_off+0x48>
    8180:	e5933000 	ldr	r3, [r3]
    8184:	e1a00003 	mov	r0, r3
    8188:	e51b1008 	ldr	r1, [fp, #-8]
    818c:	ebffff9e 	bl	800c <put32>
    8190:	e3a03001 	mov	r3, #1
    8194:	e1a00003 	mov	r0, r3
    8198:	e24bd004 	sub	sp, fp, #4
    819c:	e8bd4800 	pop	{fp, lr}
    81a0:	e12fff1e 	bx	lr
    81a4:	000082a8 	andeq	r8, r0, r8, lsr #5

000081a8 <delay>:
    81a8:	e52db004 	push	{fp}		; (str fp, [sp, #-4]!)
    81ac:	e28db000 	add	fp, sp, #0
    81b0:	e24dd00c 	sub	sp, sp, #12
    81b4:	e50b0008 	str	r0, [fp, #-8]
    81b8:	ea000000 	b	81c0 <delay+0x18>
    81bc:	e2811000 	add	r1, r1, #0
    81c0:	e51b3008 	ldr	r3, [fp, #-8]
    81c4:	e2432001 	sub	r2, r3, #1
    81c8:	e50b2008 	str	r2, [fp, #-8]
    81cc:	e3530000 	cmp	r3, #0
    81d0:	1afffff9 	bne	81bc <delay+0x14>
    81d4:	e24bd000 	sub	sp, fp, #0
    81d8:	e49db004 	pop	{fp}		; (ldr fp, [sp], #4)
    81dc:	e12fff1e 	bx	lr

000081e0 <notmain>:
    81e0:	e92d4800 	push	{fp, lr}
    81e4:	e28db004 	add	fp, sp, #4
    81e8:	e24dd008 	sub	sp, sp, #8
    81ec:	e3a03014 	mov	r3, #20
    81f0:	e50b3008 	str	r3, [fp, #-8]
    81f4:	e51b3008 	ldr	r3, [fp, #-8]
    81f8:	e1a00003 	mov	r0, r3
    81fc:	ebffff86 	bl	801c <gpio_set_output>
    8200:	e51b3008 	ldr	r3, [fp, #-8]
    8204:	e1a00003 	mov	r0, r3
    8208:	ebffffc0 	bl	8110 <gpio_set_on>
    820c:	e59f0018 	ldr	r0, [pc, #24]	; 822c <notmain+0x4c>
    8210:	ebffffe4 	bl	81a8 <delay>
    8214:	e51b3008 	ldr	r3, [fp, #-8]
    8218:	e1a00003 	mov	r0, r3
    821c:	ebffffce 	bl	815c <gpio_set_off>
    8220:	e59f0008 	ldr	r0, [pc, #8]	; 8230 <notmain+0x50>
    8224:	ebffffdf 	bl	81a8 <delay>
    8228:	eafffff4 	b	8200 <notmain+0x20>
    822c:	00989680 	addseq	r9, r8, r0, lsl #13
    8230:	000f4240 	andeq	r4, pc, r0, asr #4

00008234 <gpio_broken_example>:
    8234:	e92d4800 	push	{fp, lr}
    8238:	e28db004 	add	fp, sp, #4
    823c:	e24dd010 	sub	sp, sp, #16
    8240:	e50b0010 	str	r0, [fp, #-16]
    8244:	e51b3010 	ldr	r3, [fp, #-16]
    8248:	e353001f 	cmp	r3, #31
    824c:	9a000001 	bls	8258 <gpio_broken_example+0x24>
    8250:	e3e03000 	mvn	r3, #0
    8254:	ea00000e 	b	8294 <gpio_broken_example+0x60>
    8258:	e3a03102 	mov	r3, #-2147483648	; 0x80000000
    825c:	e50b3008 	str	r3, [fp, #-8]
    8260:	e51b3010 	ldr	r3, [fp, #-16]
    8264:	e1a03103 	lsl	r3, r3, #2
    8268:	e51b2008 	ldr	r2, [fp, #-8]
    826c:	e0823003 	add	r3, r2, r3
    8270:	e50b3008 	str	r3, [fp, #-8]
    8274:	e51b0008 	ldr	r0, [fp, #-8]
    8278:	ebffff65 	bl	8014 <get32>
    827c:	e1a03000 	mov	r3, r0
    8280:	e2833001 	add	r3, r3, #1
    8284:	e51b0008 	ldr	r0, [fp, #-8]
    8288:	e1a01003 	mov	r1, r3
    828c:	ebffff5e 	bl	800c <put32>
    8290:	e3a03000 	mov	r3, #0
    8294:	e1a00003 	mov	r0, r3
    8298:	e24bd004 	sub	sp, fp, #4
    829c:	e8bd4800 	pop	{fp, lr}
    82a0:	e12fff1e 	bx	lr

Disassembly of section .data:

000082a4 <gpio_set0>:
    82a4:	2020001c 	eorcs	r0, r0, ip, lsl r0

000082a8 <gpio_clr0>:
    82a8:	20200028 	eorcs	r0, r0, r8, lsr #32

Disassembly of section .ARM.attributes:

00000000 <.ARM.attributes>:
   0:	00002a41 	andeq	r2, r0, r1, asr #20
   4:	61656100 	cmnvs	r5, r0, lsl #2
   8:	01006962 	tsteq	r0, r2, ror #18
   c:	00000020 	andeq	r0, r0, r0, lsr #32
  10:	4d524105 	ldfmie	f4, [r2, #-20]	; 0xffffffec
  14:	54347620 	ldrtpl	r7, [r4], #-1568	; 0x620
  18:	08020600 	stmdaeq	r2, {r9, sl}
  1c:	12010901 	andne	r0, r1, #16384	; 0x4000
  20:	15011404 	strne	r1, [r1, #-1028]	; 0x404
  24:	18031701 	stmdane	r3, {r0, r8, r9, sl, ip}
  28:	Address 0x0000000000000028 is out of bounds.


Disassembly of section .comment:

00000000 <.comment>:
   0:	3a434347 	bcc	10d0d24 <gpio_clr0+0x10c8a7c>
   4:	4e472820 	cdpmi	8, 4, cr2, cr7, cr0, {1}
   8:	34202955 	strtcc	r2, [r0], #-2389	; 0x955
   c:	332e382e 	teqcc	lr, #3014656	; 0x2e0000
	...
