
pi-shell.elf:     file format elf32-littlearm


Disassembly of section .text:

00008000 <_start>:
    8000:	e3a0d302 	mov	sp, #134217728	; 0x8000000
    8004:	e3a0b000 	mov	fp, #0
    8008:	eb0002c7 	bl	8b2c <_cstart>
    800c:	eb000233 	bl	88e0 <rpi_reboot>

00008010 <notmain>:
    8010:	e92d43f0 	push	{r4, r5, r6, r7, r8, r9, lr}
    8014:	e24ddb01 	sub	sp, sp, #1024	; 0x400
    8018:	e24dd004 	sub	sp, sp, #4
    801c:	eb0002e6 	bl	8bbc <uart_init>
    8020:	e3a04000 	mov	r4, #0
    8024:	e59f5104 	ldr	r5, [pc, #260]	; 8130 <notmain+0x120>
    8028:	e59f7104 	ldr	r7, [pc, #260]	; 8134 <notmain+0x124>
    802c:	e59f6104 	ldr	r6, [pc, #260]	; 8138 <notmain+0x128>
    8030:	e59f9104 	ldr	r9, [pc, #260]	; 813c <notmain+0x12c>
    8034:	e59f8104 	ldr	r8, [pc, #260]	; 8140 <notmain+0x130>
    8038:	ea000026 	b	80d8 <notmain+0xc8>
    803c:	e1a0000d 	mov	r0, sp
    8040:	e1a01005 	mov	r1, r5
    8044:	e3a02004 	mov	r2, #4
    8048:	eb0002a7 	bl	8aec <strncmp>
    804c:	e3500000 	cmp	r0, #0
    8050:	1a000003 	bne	8064 <notmain+0x54>
    8054:	e59f00e8 	ldr	r0, [pc, #232]	; 8144 <notmain+0x134>
    8058:	e1a0100d 	mov	r1, sp
    805c:	eb0000af 	bl	8320 <printk>
    8060:	ea000030 	b	8128 <notmain+0x118>
    8064:	e1a0000d 	mov	r0, sp
    8068:	e1a01007 	mov	r1, r7
    806c:	e3a02005 	mov	r2, #5
    8070:	eb00029d 	bl	8aec <strncmp>
    8074:	e3500000 	cmp	r0, #0
    8078:	1a000005 	bne	8094 <notmain+0x84>
    807c:	e59f00b8 	ldr	r0, [pc, #184]	; 813c <notmain+0x12c>
    8080:	e59f10c0 	ldr	r1, [pc, #192]	; 8148 <notmain+0x138>
    8084:	eb0000a5 	bl	8320 <printk>
    8088:	e3a00064 	mov	r0, #100	; 0x64
    808c:	eb000246 	bl	89ac <delay_ms>
    8090:	eb000212 	bl	88e0 <rpi_reboot>
    8094:	e1a0000d 	mov	r0, sp
    8098:	e1a01006 	mov	r1, r6
    809c:	e3a02003 	mov	r2, #3
    80a0:	eb000291 	bl	8aec <strncmp>
    80a4:	e3500000 	cmp	r0, #0
    80a8:	1a000004 	bne	80c0 <notmain+0xb0>
    80ac:	eb00005c 	bl	8224 <load_code>
    80b0:	e1a00009 	mov	r0, r9
    80b4:	e1a01008 	mov	r1, r8
    80b8:	eb000098 	bl	8320 <printk>
    80bc:	ea000019 	b	8128 <notmain+0x118>
    80c0:	e59f0084 	ldr	r0, [pc, #132]	; 814c <notmain+0x13c>
    80c4:	e59f1084 	ldr	r1, [pc, #132]	; 8150 <notmain+0x140>
    80c8:	e59f2084 	ldr	r2, [pc, #132]	; 8154 <notmain+0x144>
    80cc:	e3a03023 	mov	r3, #35	; 0x23
    80d0:	eb000092 	bl	8320 <printk>
    80d4:	eb000201 	bl	88e0 <rpi_reboot>
    80d8:	eb0002d2 	bl	8c28 <uart_getc>
    80dc:	e6ef0070 	uxtb	r0, r0
    80e0:	e7cd0004 	strb	r0, [sp, r4]
    80e4:	e350000a 	cmp	r0, #10
    80e8:	1a000004 	bne	8100 <notmain+0xf0>
    80ec:	e3a03000 	mov	r3, #0
    80f0:	e7cd3004 	strb	r3, [sp, r4]
    80f4:	e1540003 	cmp	r4, r3
    80f8:	1affffcf 	bne	803c <notmain+0x2c>
    80fc:	ea000008 	b	8124 <notmain+0x114>
    8100:	e2844001 	add	r4, r4, #1
    8104:	e3540b01 	cmp	r4, #1024	; 0x400
    8108:	bafffff2 	blt	80d8 <notmain+0xc8>
    810c:	e59f0044 	ldr	r0, [pc, #68]	; 8158 <notmain+0x148>
    8110:	e59f1038 	ldr	r1, [pc, #56]	; 8150 <notmain+0x140>
    8114:	e59f2040 	ldr	r2, [pc, #64]	; 815c <notmain+0x14c>
    8118:	e3a0300d 	mov	r3, #13
    811c:	eb00007f 	bl	8320 <printk>
    8120:	eb0001ee 	bl	88e0 <rpi_reboot>
    8124:	eb00020b 	bl	8958 <clean_reboot>
    8128:	e3a04000 	mov	r4, #0
    812c:	eaffffe9 	b	80d8 <notmain+0xc8>
    8130:	00008f0c 	andeq	r8, r0, ip, lsl #30
    8134:	00008f18 	andeq	r8, r0, r8, lsl pc
    8138:	00008f24 	andeq	r8, r0, r4, lsr #30
    813c:	00008f20 	andeq	r8, r0, r0, lsr #30
    8140:	00008eec 	andeq	r8, r0, ip, ror #29
    8144:	00008f14 	andeq	r8, r0, r4, lsl pc
    8148:	00008edc 	ldrdeq	r8, [r0], -ip
    814c:	00008f28 	andeq	r8, r0, r8, lsr #30
    8150:	00008f54 	andeq	r8, r0, r4, asr pc
    8154:	00008ef8 	strdeq	r8, [r0], -r8	; <UNPREDICTABLE>
    8158:	00008f60 	andeq	r8, r0, r0, ror #30
    815c:	00008f00 	andeq	r8, r0, r0, lsl #30

00008160 <crc32>:
    8160:	e3510000 	cmp	r1, #0
    8164:	0a00000a 	beq	8194 <crc32+0x34>
    8168:	e080c001 	add	ip, r0, r1
    816c:	e3e03000 	mvn	r3, #0
    8170:	e59f1028 	ldr	r1, [pc, #40]	; 81a0 <crc32+0x40>
    8174:	e4d02001 	ldrb	r2, [r0], #1
    8178:	e0232002 	eor	r2, r3, r2
    817c:	e6ef2072 	uxtb	r2, r2
    8180:	e7912102 	ldr	r2, [r1, r2, lsl #2]
    8184:	e0223423 	eor	r3, r2, r3, lsr #8
    8188:	e150000c 	cmp	r0, ip
    818c:	1afffff8 	bne	8174 <crc32+0x14>
    8190:	ea000000 	b	8198 <crc32+0x38>
    8194:	e3e03000 	mvn	r3, #0
    8198:	e1e00003 	mvn	r0, r3
    819c:	e12fff1e 	bx	lr
    81a0:	00008f80 	andeq	r8, r0, r0, lsl #31

000081a4 <get_uint>:
    81a4:	e92d4038 	push	{r3, r4, r5, lr}
    81a8:	eb00029e 	bl	8c28 <uart_getc>
    81ac:	e6ef5070 	uxtb	r5, r0
    81b0:	eb00029c 	bl	8c28 <uart_getc>
    81b4:	e1a04000 	mov	r4, r0
    81b8:	eb00029a 	bl	8c28 <uart_getc>
    81bc:	e6ef4074 	uxtb	r4, r4
    81c0:	e6ef0070 	uxtb	r0, r0
    81c4:	e1a00800 	lsl	r0, r0, #16
    81c8:	e1804404 	orr	r4, r0, r4, lsl #8
    81cc:	e1844005 	orr	r4, r4, r5
    81d0:	eb000294 	bl	8c28 <uart_getc>
    81d4:	e1840c00 	orr	r0, r4, r0, lsl #24
    81d8:	e8bd8038 	pop	{r3, r4, r5, pc}

000081dc <put_uint>:
    81dc:	e92d4010 	push	{r4, lr}
    81e0:	e1a04000 	mov	r4, r0
    81e4:	e6ef0070 	uxtb	r0, r0
    81e8:	eb000297 	bl	8c4c <uart_putc>
    81ec:	e1a00424 	lsr	r0, r4, #8
    81f0:	e6ef0070 	uxtb	r0, r0
    81f4:	eb000294 	bl	8c4c <uart_putc>
    81f8:	e1a00824 	lsr	r0, r4, #16
    81fc:	e6ef0070 	uxtb	r0, r0
    8200:	eb000291 	bl	8c4c <uart_putc>
    8204:	e1a00c24 	lsr	r0, r4, #24
    8208:	eb00028f 	bl	8c4c <uart_putc>
    820c:	e8bd8010 	pop	{r4, pc}

00008210 <die>:
    8210:	e92d4008 	push	{r3, lr}
    8214:	ebfffff0 	bl	81dc <put_uint>
    8218:	e3a00064 	mov	r0, #100	; 0x64
    821c:	eb0001e2 	bl	89ac <delay_ms>
    8220:	eb0001ae 	bl	88e0 <rpi_reboot>

00008224 <load_code>:
    8224:	e92d43f8 	push	{r3, r4, r5, r6, r7, r8, r9, lr}
    8228:	e3a00005 	mov	r0, #5
    822c:	ebffffea 	bl	81dc <put_uint>
    8230:	ebffffdb 	bl	81a4 <get_uint>
    8234:	e1a04000 	mov	r4, r0
    8238:	ebffffd9 	bl	81a4 <get_uint>
    823c:	e1a07000 	mov	r7, r0
    8240:	ebffffd7 	bl	81a4 <get_uint>
    8244:	e1a08000 	mov	r8, r0
    8248:	ebffffd5 	bl	81a4 <get_uint>
    824c:	e1a09000 	mov	r9, r0
    8250:	e3540002 	cmp	r4, #2
    8254:	0a000001 	beq	8260 <load_code+0x3c>
    8258:	e3a00006 	mov	r0, #6
    825c:	ebffffeb 	bl	8210 <die>
    8260:	e3570409 	cmp	r7, #150994944	; 0x9000000
    8264:	2a000001 	bcs	8270 <load_code+0x4c>
    8268:	e3a00002 	mov	r0, #2
    826c:	ebffffe7 	bl	8210 <die>
    8270:	e0883007 	add	r3, r8, r7
    8274:	e3530416 	cmp	r3, #369098752	; 0x16000000
    8278:	3a000001 	bcc	8284 <load_code+0x60>
    827c:	e3a00004 	mov	r0, #4
    8280:	ebffffe2 	bl	8210 <die>
    8284:	e3a00005 	mov	r0, #5
    8288:	ebffffd3 	bl	81dc <put_uint>
    828c:	e1b06128 	lsrs	r6, r8, #2
    8290:	0a000009 	beq	82bc <load_code+0x98>
    8294:	e1a05007 	mov	r5, r7
    8298:	e3a04000 	mov	r4, #0
    829c:	ebffffc0 	bl	81a4 <get_uint>
    82a0:	e1a01000 	mov	r1, r0
    82a4:	e1a00005 	mov	r0, r5
    82a8:	eb000235 	bl	8b84 <PUT32>
    82ac:	e2844001 	add	r4, r4, #1
    82b0:	e2855004 	add	r5, r5, #4
    82b4:	e1540006 	cmp	r4, r6
    82b8:	1afffff7 	bne	829c <load_code+0x78>
    82bc:	ebffffb8 	bl	81a4 <get_uint>
    82c0:	e3500007 	cmp	r0, #7
    82c4:	0a000001 	beq	82d0 <load_code+0xac>
    82c8:	e3a00003 	mov	r0, #3
    82cc:	ebffffcf 	bl	8210 <die>
    82d0:	e1a00007 	mov	r0, r7
    82d4:	e1a01008 	mov	r1, r8
    82d8:	ebffffa0 	bl	8160 <crc32>
    82dc:	e1500009 	cmp	r0, r9
    82e0:	0a000001 	beq	82ec <load_code+0xc8>
    82e4:	e3a00001 	mov	r0, #1
    82e8:	ebffffc8 	bl	8210 <die>
    82ec:	e3a00005 	mov	r0, #5
    82f0:	ebffffb9 	bl	81dc <put_uint>
    82f4:	e3a00064 	mov	r0, #100	; 0x64
    82f8:	eb0001ab 	bl	89ac <delay_ms>
    82fc:	e2870008 	add	r0, r7, #8
    8300:	eb00022c 	bl	8bb8 <BRANCHTO>
    8304:	e3a00000 	mov	r0, #0
    8308:	e8bd83f8 	pop	{r3, r4, r5, r6, r7, r8, r9, pc}

0000830c <rpi_putchar>:
    830c:	e92d4010 	push	{r4, lr}
    8310:	e1a04000 	mov	r4, r0
    8314:	eb00024c 	bl	8c4c <uart_putc>
    8318:	e1a00004 	mov	r0, r4
    831c:	e8bd8010 	pop	{r4, pc}

00008320 <printk>:
    8320:	e92d000f 	push	{r0, r1, r2, r3}
    8324:	e92d4030 	push	{r4, r5, lr}
    8328:	e24dd00c 	sub	sp, sp, #12
    832c:	e28d301c 	add	r3, sp, #28
    8330:	e58d3004 	str	r3, [sp, #4]
    8334:	e59f4040 	ldr	r4, [pc, #64]	; 837c <printk+0x5c>
    8338:	e1a00004 	mov	r0, r4
    833c:	e3a01b01 	mov	r1, #1024	; 0x400
    8340:	e59d2018 	ldr	r2, [sp, #24]
    8344:	eb00008c 	bl	857c <va_printk>
    8348:	e1a05000 	mov	r5, r0
    834c:	e5d40000 	ldrb	r0, [r4]
    8350:	e3500000 	cmp	r0, #0
    8354:	0a000003 	beq	8368 <printk+0x48>
    8358:	eb00023b 	bl	8c4c <uart_putc>
    835c:	e5f40001 	ldrb	r0, [r4, #1]!
    8360:	e3500000 	cmp	r0, #0
    8364:	1afffffb 	bne	8358 <printk+0x38>
    8368:	e1a00005 	mov	r0, r5
    836c:	e28dd00c 	add	sp, sp, #12
    8370:	e8bd4030 	pop	{r4, r5, lr}
    8374:	e28dd010 	add	sp, sp, #16
    8378:	e12fff1e 	bx	lr
    837c:	000094cc 	andeq	r9, r0, ip, asr #9

00008380 <emit>:
    8380:	e92d43f0 	push	{r4, r5, r6, r7, r8, r9, lr}
    8384:	e24dd044 	sub	sp, sp, #68	; 0x44
    8388:	e59d5060 	ldr	r5, [sp, #96]	; 0x60
    838c:	e1550002 	cmp	r5, r2
    8390:	c2425001 	subgt	r5, r2, #1
    8394:	e1a0c003 	mov	ip, r3
    8398:	e2400002 	sub	r0, r0, #2
    839c:	e350000e 	cmp	r0, #14
    83a0:	979ff100 	ldrls	pc, [pc, r0, lsl #2]
    83a4:	ea00003f 	b	84a8 <emit+0x128>
    83a8:	00008480 	andeq	r8, r0, r0, lsl #9
    83ac:	000084a8 	andeq	r8, r0, r8, lsr #9
    83b0:	000084a8 	andeq	r8, r0, r8, lsr #9
    83b4:	000084a8 	andeq	r8, r0, r8, lsr #9
    83b8:	000084a8 	andeq	r8, r0, r8, lsr #9
    83bc:	000084a8 	andeq	r8, r0, r8, lsr #9
    83c0:	00008474 	andeq	r8, r0, r4, ror r4
    83c4:	000084a8 	andeq	r8, r0, r8, lsr #9
    83c8:	000083e4 	andeq	r8, r0, r4, ror #7
    83cc:	000084a8 	andeq	r8, r0, r8, lsr #9
    83d0:	000084a8 	andeq	r8, r0, r8, lsr #9
    83d4:	000084a8 	andeq	r8, r0, r8, lsr #9
    83d8:	000084a8 	andeq	r8, r0, r8, lsr #9
    83dc:	000084a8 	andeq	r8, r0, r8, lsr #9
    83e0:	0000844c 	andeq	r8, r0, ip, asr #8
    83e4:	e59d0064 	ldr	r0, [sp, #100]	; 0x64
    83e8:	e2900000 	adds	r0, r0, #0
    83ec:	13a00001 	movne	r0, #1
    83f0:	e0100fa3 	ands	r0, r0, r3, lsr #31
    83f4:	1263c000 	rsbne	ip, r3, #0
    83f8:	13a09001 	movne	r9, #1
    83fc:	03a09000 	moveq	r9, #0
    8400:	e1a0000d 	mov	r0, sp
    8404:	e59f8154 	ldr	r8, [pc, #340]	; 8560 <emit+0x1e0>
    8408:	e59f7154 	ldr	r7, [pc, #340]	; 8564 <emit+0x1e4>
    840c:	e1a03000 	mov	r3, r0
    8410:	e0846c97 	umull	r6, r4, r7, ip
    8414:	e1a041a4 	lsr	r4, r4, #3
    8418:	e0846104 	add	r6, r4, r4, lsl #2
    841c:	e04cc086 	sub	ip, ip, r6, lsl #1
    8420:	e7d8c00c 	ldrb	ip, [r8, ip]
    8424:	e4c3c001 	strb	ip, [r3], #1
    8428:	e1a0c004 	mov	ip, r4
    842c:	e3540000 	cmp	r4, #0
    8430:	11a00003 	movne	r0, r3
    8434:	1afffff4 	bne	840c <emit+0x8c>
    8438:	e3590000 	cmp	r9, #0
    843c:	12803002 	addne	r3, r0, #2
    8440:	13a0c02d 	movne	ip, #45	; 0x2d
    8444:	15c0c001 	strbne	ip, [r0, #1]
    8448:	ea00001c 	b	84c0 <emit+0x140>
    844c:	e28d4001 	add	r4, sp, #1
    8450:	e59f6110 	ldr	r6, [pc, #272]	; 8568 <emit+0x1e8>
    8454:	e1a03004 	mov	r3, r4
    8458:	e20c000f 	and	r0, ip, #15
    845c:	e7d60000 	ldrb	r0, [r6, r0]
    8460:	e5440001 	strb	r0, [r4, #-1]
    8464:	e2844001 	add	r4, r4, #1
    8468:	e1b0c22c 	lsrs	ip, ip, #4
    846c:	1afffff8 	bne	8454 <emit+0xd4>
    8470:	ea000012 	b	84c0 <emit+0x140>
    8474:	e5cd3000 	strb	r3, [sp]
    8478:	e28d3001 	add	r3, sp, #1
    847c:	ea00000f 	b	84c0 <emit+0x140>
    8480:	e28d4001 	add	r4, sp, #1
    8484:	e59f60e0 	ldr	r6, [pc, #224]	; 856c <emit+0x1ec>
    8488:	e1a03004 	mov	r3, r4
    848c:	e20c0001 	and	r0, ip, #1
    8490:	e7d60000 	ldrb	r0, [r6, r0]
    8494:	e5440001 	strb	r0, [r4, #-1]
    8498:	e2844001 	add	r4, r4, #1
    849c:	e1b0c0ac 	lsrs	ip, ip, #1
    84a0:	1afffff8 	bne	8488 <emit+0x108>
    84a4:	ea000005 	b	84c0 <emit+0x140>
    84a8:	e59f00c0 	ldr	r0, [pc, #192]	; 8570 <emit+0x1f0>
    84ac:	e59f10c0 	ldr	r1, [pc, #192]	; 8574 <emit+0x1f4>
    84b0:	e59f20c0 	ldr	r2, [pc, #192]	; 8578 <emit+0x1f8>
    84b4:	e3a0308d 	mov	r3, #141	; 0x8d
    84b8:	ebffff98 	bl	8320 <printk>
    84bc:	eb000107 	bl	88e0 <rpi_reboot>
    84c0:	e1a0400d 	mov	r4, sp
    84c4:	e064c003 	rsb	ip, r4, r3
    84c8:	e155000c 	cmp	r5, ip
    84cc:	da000006 	ble	84ec <emit+0x16c>
    84d0:	e06cc005 	rsb	ip, ip, r5
    84d4:	e083c00c 	add	ip, r3, ip
    84d8:	e3a00020 	mov	r0, #32
    84dc:	e4c30001 	strb	r0, [r3], #1
    84e0:	e153000c 	cmp	r3, ip
    84e4:	1afffffc 	bne	84dc <emit+0x15c>
    84e8:	ea000000 	b	84f0 <emit+0x170>
    84ec:	e1a0c003 	mov	ip, r3
    84f0:	e3a03000 	mov	r3, #0
    84f4:	e5cc3000 	strb	r3, [ip]
    84f8:	e064400c 	rsb	r4, r4, ip
    84fc:	e2844001 	add	r4, r4, #1
    8500:	e1520004 	cmp	r2, r4
    8504:	b0624004 	rsblt	r4, r2, r4
    8508:	b08d3003 	addlt	r3, sp, r3
    850c:	b0834004 	addlt	r4, r3, r4
    8510:	a1a0400d 	movge	r4, sp
    8514:	e24c3001 	sub	r3, ip, #1
    8518:	e1540003 	cmp	r4, r3
    851c:	8a000009 	bhi	8548 <emit+0x1c8>
    8520:	e1a0000c 	mov	r0, ip
    8524:	e1a0300c 	mov	r3, ip
    8528:	e1a02001 	mov	r2, r1
    852c:	e573c001 	ldrb	ip, [r3, #-1]!
    8530:	e4c2c001 	strb	ip, [r2], #1
    8534:	e1530004 	cmp	r3, r4
    8538:	1afffffb 	bne	852c <emit+0x1ac>
    853c:	e0644000 	rsb	r4, r4, r0
    8540:	e0814004 	add	r4, r1, r4
    8544:	ea000000 	b	854c <emit+0x1cc>
    8548:	e1a04001 	mov	r4, r1
    854c:	e3a03000 	mov	r3, #0
    8550:	e5c43000 	strb	r3, [r4]
    8554:	e1a00001 	mov	r0, r1
    8558:	e28dd044 	add	sp, sp, #68	; 0x44
    855c:	e8bd83f0 	pop	{r4, r5, r6, r7, r8, r9, pc}
    8560:	000093b8 			; <UNDEFINED> instruction: 0x000093b8
    8564:	cccccccd 	stclgt	12, cr12, [ip], {205}	; 0xcd
    8568:	000093c4 	andeq	r9, r0, r4, asr #7
    856c:	000093d8 	ldrdeq	r9, [r0], -r8
    8570:	00009394 	muleq	r0, r4, r3
    8574:	000093a8 	andeq	r9, r0, r8, lsr #7
    8578:	00009380 	andeq	r9, r0, r0, lsl #7

0000857c <va_printk>:
    857c:	e92d4ff0 	push	{r4, r5, r6, r7, r8, r9, sl, fp, lr}
    8580:	e24dd08c 	sub	sp, sp, #140	; 0x8c
    8584:	e1a07000 	mov	r7, r0
    8588:	e2411001 	sub	r1, r1, #1
    858c:	e0805001 	add	r5, r0, r1
    8590:	e3a01000 	mov	r1, #0
    8594:	e5c01000 	strb	r1, [r0]
    8598:	e1a04000 	mov	r4, r0
    859c:	e1a08001 	mov	r8, r1
    85a0:	e3a0a008 	mov	sl, #8
    85a4:	e3a09080 	mov	r9, #128	; 0x80
    85a8:	ea000088 	b	87d0 <va_printk+0x254>
    85ac:	e3510025 	cmp	r1, #37	; 0x25
    85b0:	12822001 	addne	r2, r2, #1
    85b4:	15c41000 	strbne	r1, [r4]
    85b8:	12844001 	addne	r4, r4, #1
    85bc:	1a000083 	bne	87d0 <va_printk+0x254>
    85c0:	e5d21001 	ldrb	r1, [r2, #1]
    85c4:	e3510025 	cmp	r1, #37	; 0x25
    85c8:	05c41000 	strbeq	r1, [r4]
    85cc:	02822002 	addeq	r2, r2, #2
    85d0:	02844001 	addeq	r4, r4, #1
    85d4:	0a00007d 	beq	87d0 <va_printk+0x254>
    85d8:	e2826001 	add	r6, r2, #1
    85dc:	e1a00001 	mov	r0, r1
    85e0:	e241c030 	sub	ip, r1, #48	; 0x30
    85e4:	e35c0009 	cmp	ip, #9
    85e8:	8a000012 	bhi	8638 <va_printk+0xbc>
    85ec:	e2822002 	add	r2, r2, #2
    85f0:	e1a0c008 	mov	ip, r8
    85f4:	e08cc10c 	add	ip, ip, ip, lsl #2
    85f8:	e080c08c 	add	ip, r0, ip, lsl #1
    85fc:	e24cc030 	sub	ip, ip, #48	; 0x30
    8600:	e1a06002 	mov	r6, r2
    8604:	e4d21001 	ldrb	r1, [r2], #1
    8608:	e1a00001 	mov	r0, r1
    860c:	e241b030 	sub	fp, r1, #48	; 0x30
    8610:	e35b0009 	cmp	fp, #9
    8614:	9afffff6 	bls	85f4 <va_printk+0x78>
    8618:	e35c001f 	cmp	ip, #31
    861c:	9a000007 	bls	8640 <va_printk+0xc4>
    8620:	e59f01e8 	ldr	r0, [pc, #488]	; 8810 <va_printk+0x294>
    8624:	e59f11e8 	ldr	r1, [pc, #488]	; 8814 <va_printk+0x298>
    8628:	e59f21e8 	ldr	r2, [pc, #488]	; 8818 <va_printk+0x29c>
    862c:	e3a030a9 	mov	r3, #169	; 0xa9
    8630:	ebffff3a 	bl	8320 <printk>
    8634:	eb0000a9 	bl	88e0 <rpi_reboot>
    8638:	e1a00001 	mov	r0, r1
    863c:	e1a0c008 	mov	ip, r8
    8640:	e2411062 	sub	r1, r1, #98	; 0x62
    8644:	e3510016 	cmp	r1, #22
    8648:	979ff101 	ldrls	pc, [pc, r1, lsl #2]
    864c:	ea000052 	b	879c <va_printk+0x220>
    8650:	00008740 	andeq	r8, r0, r0, asr #14
    8654:	00008774 	andeq	r8, r0, r4, ror r7
    8658:	000086c4 	andeq	r8, r0, r4, asr #13
    865c:	0000879c 	muleq	r0, ip, r7
    8660:	000086ac 	andeq	r8, r0, ip, lsr #13
    8664:	0000879c 	muleq	r0, ip, r7
    8668:	0000879c 	muleq	r0, ip, r7
    866c:	0000879c 	muleq	r0, ip, r7
    8670:	0000879c 	muleq	r0, ip, r7
    8674:	0000879c 	muleq	r0, ip, r7
    8678:	0000879c 	muleq	r0, ip, r7
    867c:	0000879c 	muleq	r0, ip, r7
    8680:	0000879c 	muleq	r0, ip, r7
    8684:	0000879c 	muleq	r0, ip, r7
    8688:	00008718 	andeq	r8, r0, r8, lsl r7
    868c:	0000879c 	muleq	r0, ip, r7
    8690:	0000879c 	muleq	r0, ip, r7
    8694:	00008768 	andeq	r8, r0, r8, ror #14
    8698:	0000879c 	muleq	r0, ip, r7
    869c:	000086f0 	strdeq	r8, [r0], -r0
    86a0:	0000879c 	muleq	r0, ip, r7
    86a4:	0000879c 	muleq	r0, ip, r7
    86a8:	00008718 	andeq	r8, r0, r8, lsl r7
    86ac:	e59f0168 	ldr	r0, [pc, #360]	; 881c <va_printk+0x2a0>
    86b0:	e59f115c 	ldr	r1, [pc, #348]	; 8814 <va_printk+0x298>
    86b4:	e59f215c 	ldr	r2, [pc, #348]	; 8818 <va_printk+0x29c>
    86b8:	e3a030af 	mov	r3, #175	; 0xaf
    86bc:	ebffff17 	bl	8320 <printk>
    86c0:	eb000086 	bl	88e0 <rpi_reboot>
    86c4:	e283b004 	add	fp, r3, #4
    86c8:	e5933000 	ldr	r3, [r3]
    86cc:	e58dc000 	str	ip, [sp]
    86d0:	e3a02001 	mov	r2, #1
    86d4:	e58d2004 	str	r2, [sp, #4]
    86d8:	e3a0000a 	mov	r0, #10
    86dc:	e28d1008 	add	r1, sp, #8
    86e0:	e1a02009 	mov	r2, r9
    86e4:	ebffff25 	bl	8380 <emit>
    86e8:	e1a0300b 	mov	r3, fp
    86ec:	ea000040 	b	87f4 <va_printk+0x278>
    86f0:	e283b004 	add	fp, r3, #4
    86f4:	e5933000 	ldr	r3, [r3]
    86f8:	e58dc000 	str	ip, [sp]
    86fc:	e58d8004 	str	r8, [sp, #4]
    8700:	e3a0000a 	mov	r0, #10
    8704:	e28d1008 	add	r1, sp, #8
    8708:	e1a02009 	mov	r2, r9
    870c:	ebffff1b 	bl	8380 <emit>
    8710:	e1a0300b 	mov	r3, fp
    8714:	ea000036 	b	87f4 <va_printk+0x278>
    8718:	e283b004 	add	fp, r3, #4
    871c:	e5933000 	ldr	r3, [r3]
    8720:	e58dc000 	str	ip, [sp]
    8724:	e58d8004 	str	r8, [sp, #4]
    8728:	e3a00010 	mov	r0, #16
    872c:	e28d1008 	add	r1, sp, #8
    8730:	e1a02009 	mov	r2, r9
    8734:	ebffff11 	bl	8380 <emit>
    8738:	e1a0300b 	mov	r3, fp
    873c:	ea00002c 	b	87f4 <va_printk+0x278>
    8740:	e283b004 	add	fp, r3, #4
    8744:	e5933000 	ldr	r3, [r3]
    8748:	e58dc000 	str	ip, [sp]
    874c:	e58d8004 	str	r8, [sp, #4]
    8750:	e3a00002 	mov	r0, #2
    8754:	e28d1008 	add	r1, sp, #8
    8758:	e1a02009 	mov	r2, r9
    875c:	ebffff07 	bl	8380 <emit>
    8760:	e1a0300b 	mov	r3, fp
    8764:	ea000022 	b	87f4 <va_printk+0x278>
    8768:	e5930000 	ldr	r0, [r3]
    876c:	e2833004 	add	r3, r3, #4
    8770:	ea00001f 	b	87f4 <va_printk+0x278>
    8774:	e283b004 	add	fp, r3, #4
    8778:	e5933000 	ldr	r3, [r3]
    877c:	e58dc000 	str	ip, [sp]
    8780:	e58d8004 	str	r8, [sp, #4]
    8784:	e1a0000a 	mov	r0, sl
    8788:	e28d1008 	add	r1, sp, #8
    878c:	e1a02009 	mov	r2, r9
    8790:	ebfffefa 	bl	8380 <emit>
    8794:	e1a0300b 	mov	r3, fp
    8798:	ea000015 	b	87f4 <va_printk+0x278>
    879c:	e58d0000 	str	r0, [sp]
    87a0:	e59f0078 	ldr	r0, [pc, #120]	; 8820 <va_printk+0x2a4>
    87a4:	e59f1068 	ldr	r1, [pc, #104]	; 8814 <va_printk+0x298>
    87a8:	e59f2068 	ldr	r2, [pc, #104]	; 8818 <va_printk+0x29c>
    87ac:	e3a030d0 	mov	r3, #208	; 0xd0
    87b0:	ebfffeda 	bl	8320 <printk>
    87b4:	eb000049 	bl	88e0 <rpi_reboot>
    87b8:	e4c41001 	strb	r1, [r4], #1
    87bc:	e1540005 	cmp	r4, r5
    87c0:	0a000002 	beq	87d0 <va_printk+0x254>
    87c4:	e5f01001 	ldrb	r1, [r0, #1]!
    87c8:	e3510000 	cmp	r1, #0
    87cc:	1afffff9 	bne	87b8 <va_printk+0x23c>
    87d0:	e5d21000 	ldrb	r1, [r2]
    87d4:	e3510000 	cmp	r1, #0
    87d8:	0a000001 	beq	87e4 <va_printk+0x268>
    87dc:	e1540005 	cmp	r4, r5
    87e0:	3affff71 	bcc	85ac <va_printk+0x30>
    87e4:	e3a03000 	mov	r3, #0
    87e8:	e4c43001 	strb	r3, [r4], #1
    87ec:	e0670004 	rsb	r0, r7, r4
    87f0:	ea000004 	b	8808 <va_printk+0x28c>
    87f4:	e2862001 	add	r2, r6, #1
    87f8:	e5d01000 	ldrb	r1, [r0]
    87fc:	e3510000 	cmp	r1, #0
    8800:	0afffff2 	beq	87d0 <va_printk+0x254>
    8804:	eaffffeb 	b	87b8 <va_printk+0x23c>
    8808:	e28dd08c 	add	sp, sp, #140	; 0x8c
    880c:	e8bd8ff0 	pop	{r4, r5, r6, r7, r8, r9, sl, fp, pc}
    8810:	000093dc 	ldrdeq	r9, [r0], -ip
    8814:	000093a8 	andeq	r9, r0, r8, lsr #7
    8818:	00009388 	andeq	r9, r0, r8, lsl #7
    881c:	000093f8 	strdeq	r9, [r0], -r8
    8820:	00009420 	andeq	r9, r0, r0, lsr #8

00008824 <snprintk>:
    8824:	e92d000c 	push	{r2, r3}
    8828:	e52de004 	push	{lr}		; (str lr, [sp, #-4]!)
    882c:	e24dd00c 	sub	sp, sp, #12
    8830:	e28d3014 	add	r3, sp, #20
    8834:	e58d3004 	str	r3, [sp, #4]
    8838:	e59d2010 	ldr	r2, [sp, #16]
    883c:	ebffff4e 	bl	857c <va_printk>
    8840:	e28dd00c 	add	sp, sp, #12
    8844:	e49de004 	pop	{lr}		; (ldr lr, [sp], #4)
    8848:	e28dd008 	add	sp, sp, #8
    884c:	e12fff1e 	bx	lr

00008850 <putk>:
    8850:	e92d4010 	push	{r4, lr}
    8854:	e1a04000 	mov	r4, r0
    8858:	e5d00000 	ldrb	r0, [r0]
    885c:	e3500000 	cmp	r0, #0
    8860:	0a000003 	beq	8874 <putk+0x24>
    8864:	eb0000f8 	bl	8c4c <uart_putc>
    8868:	e5f40001 	ldrb	r0, [r4, #1]!
    886c:	e3500000 	cmp	r0, #0
    8870:	1afffffb 	bne	8864 <putk+0x14>
    8874:	e3a00001 	mov	r0, #1
    8878:	e8bd8010 	pop	{r4, pc}

0000887c <panic>:
    887c:	e92d4008 	push	{r3, lr}
    8880:	e1a06000 	mov	r6, r0
    8884:	e1a05001 	mov	r5, r1
    8888:	e1a04002 	mov	r4, r2
    888c:	e59f0018 	ldr	r0, [pc, #24]	; 88ac <panic+0x30>
    8890:	ebffffee 	bl	8850 <putk>
    8894:	e59f0014 	ldr	r0, [pc, #20]	; 88b0 <panic+0x34>
    8898:	e1a01006 	mov	r1, r6
    889c:	e1a02005 	mov	r2, r5
    88a0:	e1a03004 	mov	r3, r4
    88a4:	ebfffe9d 	bl	8320 <printk>
    88a8:	eb00000c 	bl	88e0 <rpi_reboot>
    88ac:	00009458 	andeq	r9, r0, r8, asr r4
    88b0:	00009464 	andeq	r9, r0, r4, ror #8

000088b4 <at_user_level>:
    88b4:	e10f0000 	mrs	r0, CPSR
    88b8:	e200001f 	and	r0, r0, #31
    88bc:	e3500010 	cmp	r0, #16
    88c0:	13a00000 	movne	r0, #0
    88c4:	03a00001 	moveq	r0, #1
    88c8:	e12fff1e 	bx	lr

000088cc <set_user_level>:
    88cc:	e10f3000 	mrs	r3, CPSR
    88d0:	e3c3301f 	bic	r3, r3, #31
    88d4:	e3833010 	orr	r3, r3, #16
    88d8:	e129f003 	msr	CPSR_fc, r3
    88dc:	e12fff1e 	bx	lr

000088e0 <rpi_reboot>:
    88e0:	e92d4008 	push	{r3, lr}
    88e4:	ebfffff2 	bl	88b4 <at_user_level>
    88e8:	e3500000 	cmp	r0, #0
    88ec:	0a000009 	beq	8918 <rpi_reboot+0x38>
    88f0:	ebfffff5 	bl	88cc <set_user_level>
    88f4:	ebffffee 	bl	88b4 <at_user_level>
    88f8:	e3500000 	cmp	r0, #0
    88fc:	1a000005 	bne	8918 <rpi_reboot+0x38>
    8900:	e59f0034 	ldr	r0, [pc, #52]	; 893c <rpi_reboot+0x5c>
    8904:	e59f1034 	ldr	r1, [pc, #52]	; 8940 <rpi_reboot+0x60>
    8908:	e59f2034 	ldr	r2, [pc, #52]	; 8944 <rpi_reboot+0x64>
    890c:	e3a0301f 	mov	r3, #31
    8910:	ebfffe82 	bl	8320 <printk>
    8914:	ebfffff1 	bl	88e0 <rpi_reboot>
    8918:	e3a0001e 	mov	r0, #30
    891c:	eb000022 	bl	89ac <delay_ms>
    8920:	e59f0020 	ldr	r0, [pc, #32]	; 8948 <rpi_reboot+0x68>
    8924:	e59f1020 	ldr	r1, [pc, #32]	; 894c <rpi_reboot+0x6c>
    8928:	eb000095 	bl	8b84 <PUT32>
    892c:	e59f001c 	ldr	r0, [pc, #28]	; 8950 <rpi_reboot+0x70>
    8930:	e59f101c 	ldr	r1, [pc, #28]	; 8954 <rpi_reboot+0x74>
    8934:	eb000092 	bl	8b84 <PUT32>
    8938:	eafffffe 	b	8938 <rpi_reboot+0x58>
    893c:	00009490 	muleq	r0, r0, r4
    8940:	000094b0 			; <UNDEFINED> instruction: 0x000094b0
    8944:	00009484 	andeq	r9, r0, r4, lsl #9
    8948:	20100024 	andscs	r0, r0, r4, lsr #32
    894c:	5a000001 	bpl	8958 <clean_reboot>
    8950:	2010001c 	andscs	r0, r0, ip, lsl r0
    8954:	5a000020 	bpl	89dc <memset+0x1c>

00008958 <clean_reboot>:
    8958:	e92d4008 	push	{r3, lr}
    895c:	e59f000c 	ldr	r0, [pc, #12]	; 8970 <clean_reboot+0x18>
    8960:	ebffffba 	bl	8850 <putk>
    8964:	e3a00032 	mov	r0, #50	; 0x32
    8968:	eb00000f 	bl	89ac <delay_ms>
    896c:	ebffffdb 	bl	88e0 <rpi_reboot>
    8970:	000094c0 	andeq	r9, r0, r0, asr #9

00008974 <timer_get_time>:
    8974:	e92d4008 	push	{r3, lr}
    8978:	e59f0004 	ldr	r0, [pc, #4]	; 8984 <timer_get_time+0x10>
    897c:	eb000088 	bl	8ba4 <GET32>
    8980:	e8bd8008 	pop	{r3, pc}
    8984:	20003004 	andcs	r3, r0, r4

00008988 <delay_us>:
    8988:	e92d4038 	push	{r3, r4, r5, lr}
    898c:	e1a05000 	mov	r5, r0
    8990:	ebfffff7 	bl	8974 <timer_get_time>
    8994:	e1a04000 	mov	r4, r0
    8998:	ebfffff5 	bl	8974 <timer_get_time>
    899c:	e0640000 	rsb	r0, r4, r0
    89a0:	e1500005 	cmp	r0, r5
    89a4:	3afffffb 	bcc	8998 <delay_us+0x10>
    89a8:	e8bd8038 	pop	{r3, r4, r5, pc}

000089ac <delay_ms>:
    89ac:	e92d4008 	push	{r3, lr}
    89b0:	e3a03ffa 	mov	r3, #1000	; 0x3e8
    89b4:	e0000093 	mul	r0, r3, r0
    89b8:	ebfffff2 	bl	8988 <delay_us>
    89bc:	e8bd8008 	pop	{r3, pc}

000089c0 <memset>:
    89c0:	e0802002 	add	r2, r0, r2
    89c4:	e1500002 	cmp	r0, r2
    89c8:	212fff1e 	bxcs	lr
    89cc:	e1a03000 	mov	r3, r0
    89d0:	e4c31001 	strb	r1, [r3], #1
    89d4:	e1530002 	cmp	r3, r2
    89d8:	1afffffc 	bne	89d0 <memset+0x10>
    89dc:	e12fff1e 	bx	lr

000089e0 <memcmp>:
    89e0:	e52d4004 	push	{r4}		; (str r4, [sp, #-4]!)
    89e4:	e3520000 	cmp	r2, #0
    89e8:	0a00000f 	beq	8a2c <memcmp+0x4c>
    89ec:	e5d04000 	ldrb	r4, [r0]
    89f0:	e5d13000 	ldrb	r3, [r1]
    89f4:	e0543003 	subs	r3, r4, r3
    89f8:	1a00000d 	bne	8a34 <memcmp+0x54>
    89fc:	e1a03000 	mov	r3, r0
    8a00:	e242c001 	sub	ip, r2, #1
    8a04:	e080c00c 	add	ip, r0, ip
    8a08:	ea000003 	b	8a1c <memcmp+0x3c>
    8a0c:	e5f30001 	ldrb	r0, [r3, #1]!
    8a10:	e5f12001 	ldrb	r2, [r1, #1]!
    8a14:	e0500002 	subs	r0, r0, r2
    8a18:	1a000006 	bne	8a38 <memcmp+0x58>
    8a1c:	e153000c 	cmp	r3, ip
    8a20:	1afffff9 	bne	8a0c <memcmp+0x2c>
    8a24:	e3a00000 	mov	r0, #0
    8a28:	ea000002 	b	8a38 <memcmp+0x58>
    8a2c:	e3a00000 	mov	r0, #0
    8a30:	ea000000 	b	8a38 <memcmp+0x58>
    8a34:	e1a00003 	mov	r0, r3
    8a38:	e49d4004 	pop	{r4}		; (ldr r4, [sp], #4)
    8a3c:	e12fff1e 	bx	lr

00008a40 <memcpy>:
    8a40:	e1803001 	orr	r3, r0, r1
    8a44:	e3130003 	tst	r3, #3
    8a48:	1a000001 	bne	8a54 <memcpy+0x14>
    8a4c:	e3120003 	tst	r2, #3
    8a50:	0a000003 	beq	8a64 <memcpy+0x24>
    8a54:	e3520000 	cmp	r2, #0
    8a58:	13a03000 	movne	r3, #0
    8a5c:	1a00000a 	bne	8a8c <memcpy+0x4c>
    8a60:	e12fff1e 	bx	lr
    8a64:	e1b02122 	lsrs	r2, r2, #2
    8a68:	012fff1e 	bxeq	lr
    8a6c:	e1a0c102 	lsl	ip, r2, #2
    8a70:	e3a03000 	mov	r3, #0
    8a74:	e7912003 	ldr	r2, [r1, r3]
    8a78:	e7802003 	str	r2, [r0, r3]
    8a7c:	e2833004 	add	r3, r3, #4
    8a80:	e153000c 	cmp	r3, ip
    8a84:	1afffffa 	bne	8a74 <memcpy+0x34>
    8a88:	e12fff1e 	bx	lr
    8a8c:	e7d1c003 	ldrb	ip, [r1, r3]
    8a90:	e7c0c003 	strb	ip, [r0, r3]
    8a94:	e2833001 	add	r3, r3, #1
    8a98:	e1530002 	cmp	r3, r2
    8a9c:	1afffffa 	bne	8a8c <memcpy+0x4c>
    8aa0:	e12fff1e 	bx	lr

00008aa4 <strcmp>:
    8aa4:	e5d03000 	ldrb	r3, [r0]
    8aa8:	e3530000 	cmp	r3, #0
    8aac:	0a00000b 	beq	8ae0 <strcmp+0x3c>
    8ab0:	e5d12000 	ldrb	r2, [r1]
    8ab4:	e1520003 	cmp	r2, r3
    8ab8:	1a000008 	bne	8ae0 <strcmp+0x3c>
    8abc:	e2812001 	add	r2, r1, #1
    8ac0:	e1a01002 	mov	r1, r2
    8ac4:	e5f03001 	ldrb	r3, [r0, #1]!
    8ac8:	e3530000 	cmp	r3, #0
    8acc:	0a000003 	beq	8ae0 <strcmp+0x3c>
    8ad0:	e2822001 	add	r2, r2, #1
    8ad4:	e5d1c000 	ldrb	ip, [r1]
    8ad8:	e15c0003 	cmp	ip, r3
    8adc:	0afffff7 	beq	8ac0 <strcmp+0x1c>
    8ae0:	e5d10000 	ldrb	r0, [r1]
    8ae4:	e0600003 	rsb	r0, r0, r3
    8ae8:	e12fff1e 	bx	lr

00008aec <strncmp>:
    8aec:	e0802002 	add	r2, r0, r2
    8af0:	ea000005 	b	8b0c <strncmp+0x20>
    8af4:	e4d0c001 	ldrb	ip, [r0], #1
    8af8:	e4d13001 	ldrb	r3, [r1], #1
    8afc:	e15c0003 	cmp	ip, r3
    8b00:	0a000001 	beq	8b0c <strncmp+0x20>
    8b04:	e063000c 	rsb	r0, r3, ip
    8b08:	e12fff1e 	bx	lr
    8b0c:	e1500002 	cmp	r0, r2
    8b10:	1afffff7 	bne	8af4 <strncmp+0x8>
    8b14:	e3a00000 	mov	r0, #0
    8b18:	e12fff1e 	bx	lr

00008b1c <dev_barrier>:
    8b1c:	e92d4008 	push	{r3, lr}
    8b20:	eb000057 	bl	8c84 <dmb>
    8b24:	eb000058 	bl	8c8c <dsb>
    8b28:	e8bd8008 	pop	{r3, pc}

00008b2c <_cstart>:
    8b2c:	e92d4008 	push	{r3, lr}
    8b30:	e59f3038 	ldr	r3, [pc, #56]	; 8b70 <_cstart+0x44>
    8b34:	e59f2038 	ldr	r2, [pc, #56]	; 8b74 <_cstart+0x48>
    8b38:	e1520003 	cmp	r2, r3
    8b3c:	2a000009 	bcs	8b68 <_cstart+0x3c>
    8b40:	e2423004 	sub	r3, r2, #4
    8b44:	e59f102c 	ldr	r1, [pc, #44]	; 8b78 <_cstart+0x4c>
    8b48:	e0631001 	rsb	r1, r3, r1
    8b4c:	e3c11003 	bic	r1, r1, #3
    8b50:	e2832004 	add	r2, r3, #4
    8b54:	e0811002 	add	r1, r1, r2
    8b58:	e3a02000 	mov	r2, #0
    8b5c:	e5a32004 	str	r2, [r3, #4]!
    8b60:	e1530001 	cmp	r3, r1
    8b64:	1afffffc 	bne	8b5c <_cstart+0x30>
    8b68:	ebfffd28 	bl	8010 <notmain>
    8b6c:	ebffff5b 	bl	88e0 <rpi_reboot>
    8b70:	000098d0 	ldrdeq	r9, [r0], -r0
    8b74:	000094cc 	andeq	r9, r0, ip, asr #9
    8b78:	000098cb 	andeq	r9, r0, fp, asr #17

00008b7c <put32>:
    8b7c:	e5801000 	str	r1, [r0]
    8b80:	e12fff1e 	bx	lr

00008b84 <PUT32>:
    8b84:	e5801000 	str	r1, [r0]
    8b88:	e12fff1e 	bx	lr

00008b8c <PUT16>:
    8b8c:	e1c010b0 	strh	r1, [r0]
    8b90:	e12fff1e 	bx	lr

00008b94 <PUT8>:
    8b94:	e5c01000 	strb	r1, [r0]
    8b98:	e12fff1e 	bx	lr

00008b9c <get32>:
    8b9c:	e5900000 	ldr	r0, [r0]
    8ba0:	e12fff1e 	bx	lr

00008ba4 <GET32>:
    8ba4:	e5900000 	ldr	r0, [r0]
    8ba8:	e12fff1e 	bx	lr

00008bac <GETPC>:
    8bac:	e1a0000e 	mov	r0, lr
    8bb0:	e12fff1e 	bx	lr

00008bb4 <dummy>:
    8bb4:	e12fff1e 	bx	lr

00008bb8 <BRANCHTO>:
    8bb8:	e12fff10 	bx	r0

00008bbc <uart_init>:
    8bbc:	e92d4010 	push	{r4, lr}
    8bc0:	e3a01002 	mov	r1, #2
    8bc4:	e3a0000e 	mov	r0, #14
    8bc8:	eb000031 	bl	8c94 <gpio_set_function>
    8bcc:	e3a01002 	mov	r1, #2
    8bd0:	e3a0000f 	mov	r0, #15
    8bd4:	eb00002e 	bl	8c94 <gpio_set_function>
    8bd8:	e59f4044 	ldr	r4, [pc, #68]	; 8c24 <uart_init+0x68>
    8bdc:	e5943004 	ldr	r3, [r4, #4]
    8be0:	e3833001 	orr	r3, r3, #1
    8be4:	e5843004 	str	r3, [r4, #4]
    8be8:	eb000025 	bl	8c84 <dmb>
    8bec:	eb000026 	bl	8c8c <dsb>
    8bf0:	e3a03000 	mov	r3, #0
    8bf4:	e5843044 	str	r3, [r4, #68]	; 0x44
    8bf8:	e5843060 	str	r3, [r4, #96]	; 0x60
    8bfc:	e3a02003 	mov	r2, #3
    8c00:	e584204c 	str	r2, [r4, #76]	; 0x4c
    8c04:	e5843050 	str	r3, [r4, #80]	; 0x50
    8c08:	e5843044 	str	r3, [r4, #68]	; 0x44
    8c0c:	e3a0300e 	mov	r3, #14
    8c10:	e5843048 	str	r3, [r4, #72]	; 0x48
    8c14:	e2833c01 	add	r3, r3, #256	; 0x100
    8c18:	e5843068 	str	r3, [r4, #104]	; 0x68
    8c1c:	e5842060 	str	r2, [r4, #96]	; 0x60
    8c20:	e8bd8010 	pop	{r4, pc}
    8c24:	20215000 	eorcs	r5, r1, r0

00008c28 <uart_getc>:
    8c28:	e59f3018 	ldr	r3, [pc, #24]	; 8c48 <uart_getc+0x20>
    8c2c:	e5933054 	ldr	r3, [r3, #84]	; 0x54
    8c30:	e3130001 	tst	r3, #1
    8c34:	0afffffb 	beq	8c28 <uart_getc>
    8c38:	e59f3008 	ldr	r3, [pc, #8]	; 8c48 <uart_getc+0x20>
    8c3c:	e5930040 	ldr	r0, [r3, #64]	; 0x40
    8c40:	e6ef0070 	uxtb	r0, r0
    8c44:	e12fff1e 	bx	lr
    8c48:	20215000 	eorcs	r5, r1, r0

00008c4c <uart_putc>:
    8c4c:	e59f3014 	ldr	r3, [pc, #20]	; 8c68 <uart_putc+0x1c>
    8c50:	e5933054 	ldr	r3, [r3, #84]	; 0x54
    8c54:	e3130020 	tst	r3, #32
    8c58:	0afffffb 	beq	8c4c <uart_putc>
    8c5c:	e59f3004 	ldr	r3, [pc, #4]	; 8c68 <uart_putc+0x1c>
    8c60:	e5830040 	str	r0, [r3, #64]	; 0x40
    8c64:	e12fff1e 	bx	lr
    8c68:	20215000 	eorcs	r5, r1, r0

00008c6c <mb>:
    8c6c:	e3a00000 	mov	r0, #0
    8c70:	ee070f15 	mcr	15, 0, r0, cr7, cr5, {0}
    8c74:	ee070fd5 	mcr	15, 0, r0, cr7, cr5, {6}
    8c78:	ee070f9a 	mcr	15, 0, r0, cr7, cr10, {4}
    8c7c:	ee070f95 	mcr	15, 0, r0, cr7, cr5, {4}
    8c80:	e12fff1e 	bx	lr

00008c84 <dmb>:
    8c84:	ee070fba 	mcr	15, 0, r0, cr7, cr10, {5}
    8c88:	e12fff1e 	bx	lr

00008c8c <dsb>:
    8c8c:	ee070f9a 	mcr	15, 0, r0, cr7, cr10, {4}
    8c90:	e12fff1e 	bx	lr

00008c94 <gpio_set_function>:
    8c94:	e92d40f8 	push	{r3, r4, r5, r6, r7, lr}
    8c98:	e1a04000 	mov	r4, r0
    8c9c:	e1a06001 	mov	r6, r1
    8ca0:	e3500035 	cmp	r0, #53	; 0x35
    8ca4:	8a000013 	bhi	8cf8 <gpio_set_function+0x64>
    8ca8:	e3510007 	cmp	r1, #7
    8cac:	8a000013 	bhi	8d00 <gpio_set_function+0x6c>
    8cb0:	e59f5050 	ldr	r5, [pc, #80]	; 8d08 <gpio_set_function+0x74>
    8cb4:	e0853095 	umull	r3, r5, r5, r0
    8cb8:	e1a051a5 	lsr	r5, r5, #3
    8cbc:	e2857302 	add	r7, r5, #134217728	; 0x8000000
    8cc0:	e2877702 	add	r7, r7, #524288	; 0x80000
    8cc4:	e1a07107 	lsl	r7, r7, #2
    8cc8:	e1a00007 	mov	r0, r7
    8ccc:	ebffffb4 	bl	8ba4 <GET32>
    8cd0:	e0855105 	add	r5, r5, r5, lsl #2
    8cd4:	e0444085 	sub	r4, r4, r5, lsl #1
    8cd8:	e0844084 	add	r4, r4, r4, lsl #1
    8cdc:	e3a01007 	mov	r1, #7
    8ce0:	e1c01411 	bic	r1, r0, r1, lsl r4
    8ce4:	e1a00007 	mov	r0, r7
    8ce8:	e1811416 	orr	r1, r1, r6, lsl r4
    8cec:	ebffffa4 	bl	8b84 <PUT32>
    8cf0:	e3a00000 	mov	r0, #0
    8cf4:	e8bd80f8 	pop	{r3, r4, r5, r6, r7, pc}
    8cf8:	e3e00000 	mvn	r0, #0
    8cfc:	e8bd80f8 	pop	{r3, r4, r5, r6, r7, pc}
    8d00:	e3e00000 	mvn	r0, #0
    8d04:	e8bd80f8 	pop	{r3, r4, r5, r6, r7, pc}
    8d08:	cccccccd 	stclgt	12, cr12, [ip], {205}	; 0xcd

00008d0c <gpio_get_function>:
    8d0c:	e92d4038 	push	{r3, r4, r5, lr}
    8d10:	e1a04000 	mov	r4, r0
    8d14:	e3500035 	cmp	r0, #53	; 0x35
    8d18:	8a00000d 	bhi	8d54 <gpio_get_function+0x48>
    8d1c:	e59f5038 	ldr	r5, [pc, #56]	; 8d5c <gpio_get_function+0x50>
    8d20:	e0853095 	umull	r3, r5, r5, r0
    8d24:	e1a051a5 	lsr	r5, r5, #3
    8d28:	e2850302 	add	r0, r5, #134217728	; 0x8000000
    8d2c:	e2800702 	add	r0, r0, #524288	; 0x80000
    8d30:	e1a00100 	lsl	r0, r0, #2
    8d34:	ebffff9a 	bl	8ba4 <GET32>
    8d38:	e0855105 	add	r5, r5, r5, lsl #2
    8d3c:	e0444085 	sub	r4, r4, r5, lsl #1
    8d40:	e0844084 	add	r4, r4, r4, lsl #1
    8d44:	e3a03007 	mov	r3, #7
    8d48:	e0000413 	and	r0, r0, r3, lsl r4
    8d4c:	e1a00430 	lsr	r0, r0, r4
    8d50:	e8bd8038 	pop	{r3, r4, r5, pc}
    8d54:	e3e00000 	mvn	r0, #0
    8d58:	e8bd8038 	pop	{r3, r4, r5, pc}
    8d5c:	cccccccd 	stclgt	12, cr12, [ip], {205}	; 0xcd

00008d60 <gpio_set_input>:
    8d60:	e92d4008 	push	{r3, lr}
    8d64:	e3a01000 	mov	r1, #0
    8d68:	ebffffc9 	bl	8c94 <gpio_set_function>
    8d6c:	e8bd8008 	pop	{r3, pc}

00008d70 <gpio_set_output>:
    8d70:	e92d4008 	push	{r3, lr}
    8d74:	e3a01001 	mov	r1, #1
    8d78:	ebffffc5 	bl	8c94 <gpio_set_function>
    8d7c:	e8bd8008 	pop	{r3, pc}

00008d80 <gpio_write>:
    8d80:	e92d4008 	push	{r3, lr}
    8d84:	e3500035 	cmp	r0, #53	; 0x35
    8d88:	8a00000b 	bhi	8dbc <gpio_write+0x3c>
    8d8c:	e3510000 	cmp	r1, #0
    8d90:	e1a022a0 	lsr	r2, r0, #5
    8d94:	159f3028 	ldrne	r3, [pc, #40]	; 8dc4 <gpio_write+0x44>
    8d98:	059f3028 	ldreq	r3, [pc, #40]	; 8dc8 <gpio_write+0x48>
    8d9c:	e0832102 	add	r2, r3, r2, lsl #2
    8da0:	e200301f 	and	r3, r0, #31
    8da4:	e1a00002 	mov	r0, r2
    8da8:	e3a01001 	mov	r1, #1
    8dac:	e1a01311 	lsl	r1, r1, r3
    8db0:	ebffff73 	bl	8b84 <PUT32>
    8db4:	e3a00000 	mov	r0, #0
    8db8:	e8bd8008 	pop	{r3, pc}
    8dbc:	e3e00000 	mvn	r0, #0
    8dc0:	e8bd8008 	pop	{r3, pc}
    8dc4:	2020001c 	eorcs	r0, r0, ip, lsl r0
    8dc8:	20200028 	eorcs	r0, r0, r8, lsr #32

00008dcc <gpio_read>:
    8dcc:	e92d4010 	push	{r4, lr}
    8dd0:	e1a04000 	mov	r4, r0
    8dd4:	e3500035 	cmp	r0, #53	; 0x35
    8dd8:	8a000009 	bhi	8e04 <gpio_read+0x38>
    8ddc:	e1a002a0 	lsr	r0, r0, #5
    8de0:	e59f3024 	ldr	r3, [pc, #36]	; 8e0c <gpio_read+0x40>
    8de4:	e0830100 	add	r0, r3, r0, lsl #2
    8de8:	ebffff6d 	bl	8ba4 <GET32>
    8dec:	e204401f 	and	r4, r4, #31
    8df0:	e3a03001 	mov	r3, #1
    8df4:	e0103413 	ands	r3, r0, r3, lsl r4
    8df8:	03a00000 	moveq	r0, #0
    8dfc:	13a00001 	movne	r0, #1
    8e00:	e8bd8010 	pop	{r4, pc}
    8e04:	e3e00000 	mvn	r0, #0
    8e08:	e8bd8010 	pop	{r4, pc}
    8e0c:	20200034 	eorcs	r0, r0, r4, lsr r0

00008e10 <gpio_set_off>:
    8e10:	e92d4008 	push	{r3, lr}
    8e14:	e3a01000 	mov	r1, #0
    8e18:	ebffffd8 	bl	8d80 <gpio_write>
    8e1c:	e8bd8008 	pop	{r3, pc}

00008e20 <gpio_set_on>:
    8e20:	e92d4008 	push	{r3, lr}
    8e24:	e3a01001 	mov	r1, #1
    8e28:	ebffffd4 	bl	8d80 <gpio_write>
    8e2c:	e8bd8008 	pop	{r3, pc}

00008e30 <gpio_set_pud>:
    8e30:	e92d4070 	push	{r4, r5, r6, lr}
    8e34:	e1a04000 	mov	r4, r0
    8e38:	e3500035 	cmp	r0, #53	; 0x35
    8e3c:	8a000018 	bhi	8ea4 <gpio_set_pud+0x74>
    8e40:	e3510002 	cmp	r1, #2
    8e44:	8a000018 	bhi	8eac <gpio_set_pud+0x7c>
    8e48:	e59f6064 	ldr	r6, [pc, #100]	; 8eb4 <gpio_set_pud+0x84>
    8e4c:	e1a00006 	mov	r0, r6
    8e50:	ebffff4b 	bl	8b84 <PUT32>
    8e54:	e3a00096 	mov	r0, #150	; 0x96
    8e58:	ebfffeca 	bl	8988 <delay_us>
    8e5c:	e1a052a4 	lsr	r5, r4, #5
    8e60:	e59f3050 	ldr	r3, [pc, #80]	; 8eb8 <gpio_set_pud+0x88>
    8e64:	e0835105 	add	r5, r3, r5, lsl #2
    8e68:	e204401f 	and	r4, r4, #31
    8e6c:	e1a00005 	mov	r0, r5
    8e70:	e3a01001 	mov	r1, #1
    8e74:	e1a01411 	lsl	r1, r1, r4
    8e78:	ebffff41 	bl	8b84 <PUT32>
    8e7c:	e3a00096 	mov	r0, #150	; 0x96
    8e80:	ebfffec0 	bl	8988 <delay_us>
    8e84:	e1a00006 	mov	r0, r6
    8e88:	e3a01000 	mov	r1, #0
    8e8c:	ebffff3c 	bl	8b84 <PUT32>
    8e90:	e1a00005 	mov	r0, r5
    8e94:	e3a01000 	mov	r1, #0
    8e98:	ebffff39 	bl	8b84 <PUT32>
    8e9c:	e3a00000 	mov	r0, #0
    8ea0:	e8bd8070 	pop	{r4, r5, r6, pc}
    8ea4:	e3e00000 	mvn	r0, #0
    8ea8:	e8bd8070 	pop	{r4, r5, r6, pc}
    8eac:	e3e00000 	mvn	r0, #0
    8eb0:	e8bd8070 	pop	{r4, r5, r6, pc}
    8eb4:	20200094 	mlacs	r0, r4, r0, r0
    8eb8:	20200098 	mlacs	r0, r8, r0, r0

00008ebc <gpio_set_pullup>:
    8ebc:	e92d4008 	push	{r3, lr}
    8ec0:	e3a01002 	mov	r1, #2
    8ec4:	ebffffd9 	bl	8e30 <gpio_set_pud>
    8ec8:	e8bd8008 	pop	{r3, pc}

00008ecc <gpio_set_pulldown>:
    8ecc:	e92d4008 	push	{r3, lr}
    8ed0:	e3a01001 	mov	r1, #1
    8ed4:	ebffffd5 	bl	8e30 <gpio_set_pud>
    8ed8:	e8bd8008 	pop	{r3, pc}

Disassembly of section .rodata:

00008edc <pi_done>:
    8edc:	52204950 	eorpl	r4, r0, #80, 18	; 0x140000
    8ee0:	4f4f4245 	svcmi	0x004f4245
    8ee4:	21212154 	teqcs	r1, r4, asr r1
    8ee8:	0000000a 	andeq	r0, r0, sl

00008eec <cmd_done>:
    8eec:	2d444d43 	stclcs	13, cr4, [r4, #-268]	; 0xfffffef4
    8ef0:	454e4f44 	strbmi	r4, [lr, #-3908]	; 0xf44
    8ef4:	0000000a 	andeq	r0, r0, sl

00008ef8 <__FUNCTION__.3788>:
    8ef8:	6d746f6e 	ldclvs	15, cr6, [r4, #-440]!	; 0xfffffe48
    8efc:	006e6961 	rsbeq	r6, lr, r1, ror #18

00008f00 <__FUNCTION__.3781>:
    8f00:	64616572 	strbtvs	r6, [r1], #-1394	; 0x572
    8f04:	656e696c 	strbvs	r6, [lr, #-2412]!	; 0x96c
    8f08:	00000000 	andeq	r0, r0, r0
    8f0c:	6f686365 	svcvs	0x00686365
    8f10:	00000020 	andeq	r0, r0, r0, lsr #32
    8f14:	000a7325 	andeq	r7, sl, r5, lsr #6
    8f18:	65736572 	ldrbvs	r6, [r3, #-1394]!	; 0x572
    8f1c:	00000074 	andeq	r0, r0, r4, ror r0
    8f20:	00007325 	andeq	r7, r0, r5, lsr #6
    8f24:	006e7572 	rsbeq	r7, lr, r2, ror r5
    8f28:	494e4150 	stmdbmi	lr, {r4, r6, r8, lr}^
    8f2c:	73253a43 	teqvc	r5, #274432	; 0x43000
    8f30:	3a73253a 	bcc	1cd2420 <__bss_end__+0x1cc8b50>
    8f34:	693a6425 	ldmdbvs	sl!, {r0, r2, r5, sl, sp, lr}
    8f38:	656c706d 	strbvs	r7, [ip, #-109]!	; 0x6d
    8f3c:	746e656d 	strbtvc	r6, [lr], #-1389	; 0x56d
    8f40:	69687420 	stmdbvs	r8!, {r5, sl, ip, sp, lr}^
    8f44:	75662073 	strbvc	r2, [r6, #-115]!	; 0x73
    8f48:	6974636e 	ldmdbvs	r4!, {r1, r2, r3, r5, r6, r8, r9, sp, lr}^
    8f4c:	0a216e6f 	beq	864910 <__bss_end__+0x85b040>
    8f50:	0000000a 	andeq	r0, r0, sl
    8f54:	732d6970 	teqvc	sp, #112, 18	; 0x1c0000
    8f58:	6c6c6568 	cfstr64vs	mvdx6, [ip], #-416	; 0xfffffe60
    8f5c:	0000632e 	andeq	r6, r0, lr, lsr #6
    8f60:	494e4150 	stmdbmi	lr, {r4, r6, r8, lr}^
    8f64:	73253a43 	teqvc	r5, #274432	; 0x43000
    8f68:	3a73253a 	bcc	1cd2458 <__bss_end__+0x1cc8b88>
    8f6c:	733a6425 	teqvc	sl, #620756992	; 0x25000000
    8f70:	20657a69 	rsbcs	r7, r5, r9, ror #20
    8f74:	206f6f74 	rsbcs	r6, pc, r4, ror pc	; <UNPREDICTABLE>
    8f78:	6c616d73 	stclvs	13, cr6, [r1], #-460	; 0xfffffe34
    8f7c:	000a0a6c 	andeq	r0, sl, ip, ror #20

00008f80 <crc32_tab>:
    8f80:	00000000 	andeq	r0, r0, r0
    8f84:	77073096 			; <UNDEFINED> instruction: 0x77073096
    8f88:	ee0e612c 	adfep	f6, f6, #4.0
    8f8c:	990951ba 	stmdbls	r9, {r1, r3, r4, r5, r7, r8, ip, lr}
    8f90:	076dc419 			; <UNDEFINED> instruction: 0x076dc419
    8f94:	706af48f 	rsbvc	pc, sl, pc, lsl #9
    8f98:	e963a535 	stmdb	r3!, {r0, r2, r4, r5, r8, sl, sp, pc}^
    8f9c:	9e6495a3 	cdpls	5, 6, cr9, cr4, cr3, {5}
    8fa0:	0edb8832 	mrceq	8, 6, r8, cr11, cr2, {1}
    8fa4:	79dcb8a4 	ldmibvc	ip, {r2, r5, r7, fp, ip, sp, pc}^
    8fa8:	e0d5e91e 	sbcs	lr, r5, lr, lsl r9
    8fac:	97d2d988 	ldrbls	sp, [r2, r8, lsl #19]
    8fb0:	09b64c2b 	ldmibeq	r6!, {r0, r1, r3, r5, sl, fp, lr}
    8fb4:	7eb17cbd 	mrcvc	12, 5, r7, cr1, cr13, {5}
    8fb8:	e7b82d07 	ldr	r2, [r8, r7, lsl #26]!
    8fbc:	90bf1d91 	umlalsls	r1, pc, r1, sp	; <UNPREDICTABLE>
    8fc0:	1db71064 	ldcne	0, cr1, [r7, #400]!	; 0x190
    8fc4:	6ab020f2 	bvs	fec11394 <__bss_end__+0xfec07ac4>
    8fc8:	f3b97148 	vceq.i32	<illegal reg q3.5>, q4, #0
    8fcc:	84be41de 	ldrthi	r4, [lr], #478	; 0x1de
    8fd0:	1adad47d 	bne	ff6be1cc <__bss_end__+0xff6b48fc>
    8fd4:	6ddde4eb 	cfldrdvs	mvd14, [sp, #940]	; 0x3ac
    8fd8:	f4d4b551 			; <UNDEFINED> instruction: 0xf4d4b551
    8fdc:	83d385c7 	bicshi	r8, r3, #834666496	; 0x31c00000
    8fe0:	136c9856 	cmnne	ip, #5636096	; 0x560000
    8fe4:	646ba8c0 	strbtvs	sl, [fp], #-2240	; 0x8c0
    8fe8:	fd62f97a 	stc2l	9, cr15, [r2, #-488]!	; 0xfffffe18
    8fec:	8a65c9ec 	bhi	197b7a4 <__bss_end__+0x1971ed4>
    8ff0:	14015c4f 	strne	r5, [r1], #-3151	; 0xc4f
    8ff4:	63066cd9 	movwvs	r6, #27865	; 0x6cd9
    8ff8:	fa0f3d63 	blx	3d858c <__bss_end__+0x3cecbc>
    8ffc:	8d080df5 	stchi	13, cr0, [r8, #-980]	; 0xfffffc2c
    9000:	3b6e20c8 	blcc	1b91328 <__bss_end__+0x1b87a58>
    9004:	4c69105e 	stclmi	0, cr1, [r9], #-376	; 0xfffffe88
    9008:	d56041e4 	strble	r4, [r0, #-484]!	; 0x1e4
    900c:	a2677172 	rsbge	r7, r7, #-2147483620	; 0x8000001c
    9010:	3c03e4d1 	cfstrscc	mvf14, [r3], {209}	; 0xd1
    9014:	4b04d447 	blmi	13e138 <__bss_end__+0x134868>
    9018:	d20d85fd 	andle	r8, sp, #1061158912	; 0x3f400000
    901c:	a50ab56b 	strge	fp, [sl, #-1387]	; 0x56b
    9020:	35b5a8fa 	ldrcc	sl, [r5, #2298]!	; 0x8fa
    9024:	42b2986c 	adcsmi	r9, r2, #108, 16	; 0x6c0000
    9028:	dbbbc9d6 	blle	feefb788 <__bss_end__+0xfeef1eb8>
    902c:	acbcf940 	ldcge	9, cr15, [ip], #256	; 0x100
    9030:	32d86ce3 	sbcscc	r6, r8, #58112	; 0xe300
    9034:	45df5c75 	ldrbmi	r5, [pc, #3189]	; 9cb1 <__bss_end__+0x3e1>
    9038:	dcd60dcf 	ldclle	13, cr0, [r6], {207}	; 0xcf
    903c:	abd13d59 	blge	ff4585a8 <__bss_end__+0xff44ecd8>
    9040:	26d930ac 	ldrbcs	r3, [r9], ip, lsr #1
    9044:	51de003a 	bicspl	r0, lr, sl, lsr r0
    9048:	c8d75180 	ldmgt	r7, {r7, r8, ip, lr}^
    904c:	bfd06116 	svclt	0x00d06116
    9050:	21b4f4b5 			; <UNDEFINED> instruction: 0x21b4f4b5
    9054:	56b3c423 	ldrtpl	ip, [r3], r3, lsr #8
    9058:	cfba9599 	svcgt	0x00ba9599
    905c:	b8bda50f 	poplt	{r0, r1, r2, r3, r8, sl, sp, pc}
    9060:	2802b89e 	stmdacs	r2, {r1, r2, r3, r4, r7, fp, ip, sp, pc}
    9064:	5f058808 	svcpl	0x00058808
    9068:	c60cd9b2 			; <UNDEFINED> instruction: 0xc60cd9b2
    906c:	b10be924 	tstlt	fp, r4, lsr #18
    9070:	2f6f7c87 	svccs	0x006f7c87
    9074:	58684c11 	stmdapl	r8!, {r0, r4, sl, fp, lr}^
    9078:	c1611dab 	cmngt	r1, fp, lsr #27
    907c:	b6662d3d 			; <UNDEFINED> instruction: 0xb6662d3d
    9080:	76dc4190 			; <UNDEFINED> instruction: 0x76dc4190
    9084:	01db7106 	bicseq	r7, fp, r6, lsl #2
    9088:	98d220bc 	ldmls	r2, {r2, r3, r4, r5, r7, sp}^
    908c:	efd5102a 	svc	0x00d5102a
    9090:	71b18589 			; <UNDEFINED> instruction: 0x71b18589
    9094:	06b6b51f 	ssateq	fp, #23, pc, lsl #10	; <UNPREDICTABLE>
    9098:	9fbfe4a5 	svcls	0x00bfe4a5
    909c:	e8b8d433 	ldm	r8!, {r0, r1, r4, r5, sl, ip, lr, pc}
    90a0:	7807c9a2 	stmdavc	r7, {r1, r5, r7, r8, fp, lr, pc}
    90a4:	0f00f934 	svceq	0x0000f934
    90a8:	9609a88e 	strls	sl, [r9], -lr, lsl #17
    90ac:	e10e9818 	tst	lr, r8, lsl r8
    90b0:	7f6a0dbb 	svcvc	0x006a0dbb
    90b4:	086d3d2d 	stmdaeq	sp!, {r0, r2, r3, r5, r8, sl, fp, ip, sp}^
    90b8:	91646c97 			; <UNDEFINED> instruction: 0x91646c97
    90bc:	e6635c01 	strbt	r5, [r3], -r1, lsl #24
    90c0:	6b6b51f4 	blvs	1add898 <__bss_end__+0x1ad3fc8>
    90c4:	1c6c6162 	stfnee	f6, [ip], #-392	; 0xfffffe78
    90c8:	856530d8 	strbhi	r3, [r5, #-216]!	; 0xd8
    90cc:	f262004e 	vhadd.s32	q8, q1, q7
    90d0:	6c0695ed 	cfstr32vs	mvfx9, [r6], {237}	; 0xed
    90d4:	1b01a57b 	blne	726c8 <__bss_end__+0x68df8>
    90d8:	8208f4c1 	andhi	pc, r8, #-1056964608	; 0xc1000000
    90dc:	f50fc457 			; <UNDEFINED> instruction: 0xf50fc457
    90e0:	65b0d9c6 	ldrvs	sp, [r0, #2502]!	; 0x9c6
    90e4:	12b7e950 	adcsne	lr, r7, #80, 18	; 0x140000
    90e8:	8bbeb8ea 	blhi	fefb7498 <__bss_end__+0xfefadbc8>
    90ec:	fcb9887c 	ldc2	8, cr8, [r9], #496	; 0x1f0
    90f0:	62dd1ddf 	sbcsvs	r1, sp, #14272	; 0x37c0
    90f4:	15da2d49 	ldrbne	r2, [sl, #3401]	; 0xd49
    90f8:	8cd37cf3 	ldclhi	12, cr7, [r3], {243}	; 0xf3
    90fc:	fbd44c65 	blx	ff51c29a <__bss_end__+0xff5129ca>
    9100:	4db26158 	ldfmis	f6, [r2, #352]!	; 0x160
    9104:	3ab551ce 	bcc	fed5d844 <__bss_end__+0xfed53f74>
    9108:	a3bc0074 			; <UNDEFINED> instruction: 0xa3bc0074
    910c:	d4bb30e2 	ldrtle	r3, [fp], #226	; 0xe2
    9110:	4adfa541 	bmi	ff7f261c <__bss_end__+0xff7e8d4c>
    9114:	3dd895d7 	cfldr64cc	mvdx9, [r8, #860]	; 0x35c
    9118:	a4d1c46d 	ldrbge	ip, [r1], #1133	; 0x46d
    911c:	d3d6f4fb 	bicsle	pc, r6, #-83886080	; 0xfb000000
    9120:	4369e96a 	cmnmi	r9, #1736704	; 0x1a8000
    9124:	346ed9fc 	strbtcc	sp, [lr], #-2556	; 0x9fc
    9128:	ad678846 	stclge	8, cr8, [r7, #-280]!	; 0xfffffee8
    912c:	da60b8d0 	ble	1837474 <__bss_end__+0x182dba4>
    9130:	44042d73 	strmi	r2, [r4], #-3443	; 0xd73
    9134:	33031de5 	movwcc	r1, #15845	; 0x3de5
    9138:	aa0a4c5f 	bge	29c2bc <__bss_end__+0x2929ec>
    913c:	dd0d7cc9 	stcle	12, cr7, [sp, #-804]	; 0xfffffcdc
    9140:	5005713c 	andpl	r7, r5, ip, lsr r1
    9144:	270241aa 	strcs	r4, [r2, -sl, lsr #3]
    9148:	be0b1010 	mcrlt	0, 0, r1, cr11, cr0, {0}
    914c:	c90c2086 	stmdbgt	ip, {r1, r2, r7, sp}
    9150:	5768b525 	strbpl	fp, [r8, -r5, lsr #10]!
    9154:	206f85b3 	strhtcs	r8, [pc], #-83
    9158:	b966d409 	stmdblt	r6!, {r0, r3, sl, ip, lr, pc}^
    915c:	ce61e49f 	mcrgt	4, 3, lr, cr1, cr15, {4}
    9160:	5edef90e 	cdppl	9, 13, cr15, cr14, cr14, {0}
    9164:	29d9c998 	ldmibcs	r9, {r3, r4, r7, r8, fp, lr, pc}^
    9168:	b0d09822 	sbcslt	r9, r0, r2, lsr #16
    916c:	c7d7a8b4 			; <UNDEFINED> instruction: 0xc7d7a8b4
    9170:	59b33d17 	ldmibpl	r3!, {r0, r1, r2, r4, r8, sl, fp, ip, sp}
    9174:	2eb40d81 	cdpcs	13, 11, cr0, cr4, cr1, {4}
    9178:	b7bd5c3b 			; <UNDEFINED> instruction: 0xb7bd5c3b
    917c:	c0ba6cad 	adcsgt	r6, sl, sp, lsr #25
    9180:	edb88320 	ldc	3, cr8, [r8, #128]!	; 0x80
    9184:	9abfb3b6 	bls	feff6064 <__bss_end__+0xfefec794>
    9188:	03b6e20c 			; <UNDEFINED> instruction: 0x03b6e20c
    918c:	74b1d29a 	ldrtvc	sp, [r1], #666	; 0x29a
    9190:	ead54739 	b	ff55ae7c <__bss_end__+0xff5515ac>
    9194:	9dd277af 	ldclls	7, cr7, [r2, #700]	; 0x2bc
    9198:	04db2615 	ldrbeq	r2, [fp], #1557	; 0x615
    919c:	73dc1683 	bicsvc	r1, ip, #137363456	; 0x8300000
    91a0:	e3630b12 	cmn	r3, #18432	; 0x4800
    91a4:	94643b84 	strbtls	r3, [r4], #-2948	; 0xb84
    91a8:	0d6d6a3e 	vpusheq	{s13-s74}
    91ac:	7a6a5aa8 	bvc	1a9fc54 <__bss_end__+0x1a96384>
    91b0:	e40ecf0b 	str	ip, [lr], #-3851	; 0xf0b
    91b4:	9309ff9d 	movwls	pc, #40861	; 0x9f9d	; <UNPREDICTABLE>
    91b8:	0a00ae27 	beq	34a5c <__bss_end__+0x2b18c>
    91bc:	7d079eb1 	stcvc	14, cr9, [r7, #-708]	; 0xfffffd3c
    91c0:	f00f9344 			; <UNDEFINED> instruction: 0xf00f9344
    91c4:	8708a3d2 			; <UNDEFINED> instruction: 0x8708a3d2
    91c8:	1e01f268 	cdpne	2, 0, cr15, cr1, cr8, {3}
    91cc:	6906c2fe 	stmdbvs	r6, {r1, r2, r3, r4, r5, r6, r7, r9, lr, pc}
    91d0:	f762575d 			; <UNDEFINED> instruction: 0xf762575d
    91d4:	806567cb 	rsbhi	r6, r5, fp, asr #15
    91d8:	196c3671 	stmdbne	ip!, {r0, r4, r5, r6, r9, sl, ip, sp}^
    91dc:	6e6b06e7 	cdpvs	6, 6, cr0, cr11, cr7, {7}
    91e0:	fed41b76 	mrc2	11, 6, r1, cr4, cr6, {3}
    91e4:	89d32be0 	ldmibhi	r3, {r5, r6, r7, r8, r9, fp, sp}^
    91e8:	10da7a5a 	sbcsne	r7, sl, sl, asr sl
    91ec:	67dd4acc 	ldrbvs	r4, [sp, ip, asr #21]
    91f0:	f9b9df6f 			; <UNDEFINED> instruction: 0xf9b9df6f
    91f4:	8ebeeff9 	mrchi	15, 5, lr, cr14, cr9, {7}
    91f8:	17b7be43 	ldrne	fp, [r7, r3, asr #28]!
    91fc:	60b08ed5 	ldrsbtvs	r8, [r0], r5
    9200:	d6d6a3e8 	ldrble	sl, [r6], r8, ror #7
    9204:	a1d1937e 	bicsge	r9, r1, lr, ror r3
    9208:	38d8c2c4 	ldmcc	r8, {r2, r6, r7, r9, lr, pc}^
    920c:	4fdff252 	svcmi	0x00dff252
    9210:	d1bb67f1 			; <UNDEFINED> instruction: 0xd1bb67f1
    9214:	a6bc5767 	ldrtge	r5, [ip], r7, ror #14
    9218:	3fb506dd 	svccc	0x00b506dd
    921c:	48b2364b 	ldmmi	r2!, {r0, r1, r3, r6, r9, sl, ip, sp}
    9220:	d80d2bda 	stmdale	sp, {r1, r3, r4, r6, r7, r8, r9, fp, sp}
    9224:	af0a1b4c 	svcge	0x000a1b4c
    9228:	36034af6 			; <UNDEFINED> instruction: 0x36034af6
    922c:	41047a60 	tstmi	r4, r0, ror #20
    9230:	df60efc3 	svcle	0x0060efc3
    9234:	a867df55 	stmdage	r7!, {r0, r2, r4, r6, r8, r9, sl, fp, ip, lr, pc}^
    9238:	316e8eef 	cmncc	lr, pc, ror #29
    923c:	4669be79 			; <UNDEFINED> instruction: 0x4669be79
    9240:	cb61b38c 	blgt	1876078 <__bss_end__+0x186c7a8>
    9244:	bc66831a 	stcllt	3, cr8, [r6], #-104	; 0xffffff98
    9248:	256fd2a0 	strbcs	sp, [pc, #-672]!	; 8fb0 <crc32_tab+0x30>
    924c:	5268e236 	rsbpl	lr, r8, #1610612739	; 0x60000003
    9250:	cc0c7795 	stcgt	7, cr7, [ip], {149}	; 0x95
    9254:	bb0b4703 	bllt	2dae68 <__bss_end__+0x2d1598>
    9258:	220216b9 	andcs	r1, r2, #193986560	; 0xb900000
    925c:	5505262f 	strpl	r2, [r5, #-1583]	; 0x62f
    9260:	c5ba3bbe 	ldrgt	r3, [sl, #3006]!	; 0xbbe
    9264:	b2bd0b28 	adcslt	r0, sp, #40, 22	; 0xa000
    9268:	2bb45a92 	blcs	fed1fcb8 <__bss_end__+0xfed163e8>
    926c:	5cb36a04 	vldmiapl	r3!, {s12-s15}
    9270:	c2d7ffa7 	sbcsgt	pc, r7, #668	; 0x29c
    9274:	b5d0cf31 	ldrblt	ip, [r0, #3889]	; 0xf31
    9278:	2cd99e8b 	ldclcs	14, cr9, [r9], {139}	; 0x8b
    927c:	5bdeae1d 	blpl	ff7b4af8 <__bss_end__+0xff7ab228>
    9280:	9b64c2b0 	blls	1939d48 <__bss_end__+0x1930478>
    9284:	ec63f226 	sfm	f7, 3, [r3], #-152	; 0xffffff68
    9288:	756aa39c 	strbvc	sl, [sl, #-924]!	; 0x39c
    928c:	026d930a 	rsbeq	r9, sp, #671088640	; 0x28000000
    9290:	9c0906a9 	stcls	6, cr0, [r9], {169}	; 0xa9
    9294:	eb0e363f 	bl	396b98 <__bss_end__+0x38d2c8>
    9298:	72076785 	andvc	r6, r7, #34865152	; 0x2140000
    929c:	05005713 	streq	r5, [r0, #-1811]	; 0x713
    92a0:	95bf4a82 	ldrls	r4, [pc, #2690]!	; 9d2a <__bss_end__+0x45a>
    92a4:	e2b87a14 	adcs	r7, r8, #20, 20	; 0x14000
    92a8:	7bb12bae 	blvc	fec54168 <__bss_end__+0xfec4a898>
    92ac:	0cb61b38 	vldmiaeq	r6!, {d1-d28}
    92b0:	92d28e9b 	sbcsls	r8, r2, #2480	; 0x9b0
    92b4:	e5d5be0d 	ldrb	fp, [r5, #3597]	; 0xe0d
    92b8:	7cdcefb7 	ldclvc	15, cr14, [ip], {183}	; 0xb7
    92bc:	0bdbdf21 	bleq	ff700f48 <__bss_end__+0xff6f7678>
    92c0:	86d3d2d4 			; <UNDEFINED> instruction: 0x86d3d2d4
    92c4:	f1d4e242 			; <UNDEFINED> instruction: 0xf1d4e242
    92c8:	68ddb3f8 	ldmvs	sp, {r3, r4, r5, r6, r7, r8, r9, ip, sp, pc}^
    92cc:	1fda836e 	svcne	0x00da836e
    92d0:	81be16cd 			; <UNDEFINED> instruction: 0x81be16cd
    92d4:	f6b9265b 			; <UNDEFINED> instruction: 0xf6b9265b
    92d8:	6fb077e1 	svcvs	0x00b077e1
    92dc:	18b74777 	ldmne	r7!, {r0, r1, r2, r4, r5, r6, r8, r9, sl, lr}
    92e0:	88085ae6 	stmdahi	r8, {r1, r2, r5, r6, r7, r9, fp, ip, lr}
    92e4:	ff0f6a70 			; <UNDEFINED> instruction: 0xff0f6a70
    92e8:	66063bca 	strvs	r3, [r6], -sl, asr #23
    92ec:	11010b5c 	tstne	r1, ip, asr fp
    92f0:	8f659eff 	svchi	0x00659eff
    92f4:	f862ae69 			; <UNDEFINED> instruction: 0xf862ae69
    92f8:	616bffd3 	ldrdvs	pc, [fp, #-243]!	; 0xffffff0d
    92fc:	166ccf45 	strbtne	ip, [ip], -r5, asr #30
    9300:	a00ae278 	andge	lr, sl, r8, ror r2
    9304:	d70dd2ee 	strle	sp, [sp, -lr, ror #5]
    9308:	4e048354 	mcrmi	3, 0, r8, cr4, cr4, {2}
    930c:	3903b3c2 	stmdbcc	r3, {r1, r6, r7, r8, r9, ip, sp, pc}
    9310:	a7672661 	strbge	r2, [r7, -r1, ror #12]!
    9314:	d06016f7 	strdle	r1, [r0], #-103	; 0xffffff99	; <UNPREDICTABLE>
    9318:	4969474d 	stmdbmi	r9!, {r0, r2, r3, r6, r8, r9, sl, lr}^
    931c:	3e6e77db 	mcrcc	7, 3, r7, cr14, cr11, {6}
    9320:	aed16a4a 	vfnmage.f32	s13, s2, s20
    9324:	d9d65adc 	ldmible	r6, {r2, r3, r4, r6, r7, r9, fp, ip, lr}^
    9328:	40df0b66 	sbcsmi	r0, pc, r6, ror #22
    932c:	37d83bf0 			; <UNDEFINED> instruction: 0x37d83bf0
    9330:	a9bcae53 	ldmibge	ip!, {r0, r1, r4, r6, r9, sl, fp, sp, pc}
    9334:	debb9ec5 	cdple	14, 11, cr9, cr11, cr5, {6}
    9338:	47b2cf7f 			; <UNDEFINED> instruction: 0x47b2cf7f
    933c:	30b5ffe9 	adcscc	pc, r5, r9, ror #31
    9340:	bdbdf21c 	lfmlt	f7, 1, [sp, #112]!	; 0x70
    9344:	cabac28a 	bgt	feeb9d74 <__bss_end__+0xfeeb04a4>
    9348:	53b39330 			; <UNDEFINED> instruction: 0x53b39330
    934c:	24b4a3a6 	ldrtcs	sl, [r4], #934	; 0x3a6
    9350:	bad03605 	blt	ff416b6c <__bss_end__+0xff40d29c>
    9354:	cdd70693 	ldclgt	6, cr0, [r7, #588]	; 0x24c
    9358:	54de5729 	ldrbpl	r5, [lr], #1833	; 0x729
    935c:	23d967bf 	bicscs	r6, r9, #50069504	; 0x2fc0000
    9360:	b3667a2e 	cmnlt	r6, #188416	; 0x2e000
    9364:	c4614ab8 	strbtgt	r4, [r1], #-2744	; 0xab8
    9368:	5d681b02 	vstmdbpl	r8!, {d17}
    936c:	2a6f2b94 	bcs	1bd41c4 <__bss_end__+0x1bca8f4>
    9370:	b40bbe37 	strlt	fp, [fp], #-3639	; 0xe37
    9374:	c30c8ea1 	movwgt	r8, #52897	; 0xcea1
    9378:	5a05df1b 	bpl	180fec <__bss_end__+0x17771c>
    937c:	2d02ef8d 	stccs	15, cr14, [r2, #-564]	; 0xfffffdcc

00009380 <__FUNCTION__.3828>:
    9380:	74696d65 	strbtvc	r6, [r9], #-3429	; 0xd65
    9384:	00000000 	andeq	r0, r0, r0

00009388 <__FUNCTION__.3843>:
    9388:	705f6176 	subsvc	r6, pc, r6, ror r1	; <UNPREDICTABLE>
    938c:	746e6972 	strbtvc	r6, [lr], #-2418	; 0x972
    9390:	0000006b 	andeq	r0, r0, fp, rrx
    9394:	494e4150 	stmdbmi	lr, {r4, r6, r8, lr}^
    9398:	73253a43 	teqvc	r5, #274432	; 0x43000
    939c:	3a73253a 	bcc	1cd288c <__bss_end__+0x1cc8fbc>
    93a0:	303a6425 	eorscc	r6, sl, r5, lsr #8
    93a4:	0000000a 	andeq	r0, r0, sl
    93a8:	34317363 	ldrtcc	r7, [r1], #-867	; 0x363
    93ac:	702d6530 	eorvc	r6, sp, r0, lsr r5
    93b0:	746e6972 	strbtvc	r6, [lr], #-2418	; 0x972
    93b4:	00632e66 	rsbeq	r2, r3, r6, ror #28
    93b8:	33323130 	teqcc	r2, #48, 2
    93bc:	37363534 			; <UNDEFINED> instruction: 0x37363534
    93c0:	00003938 	andeq	r3, r0, r8, lsr r9
    93c4:	33323130 	teqcc	r2, #48, 2
    93c8:	37363534 			; <UNDEFINED> instruction: 0x37363534
    93cc:	62613938 	rsbvs	r3, r1, #56, 18	; 0xe0000
    93d0:	66656463 	strbtvs	r6, [r5], -r3, ror #8
    93d4:	00000000 	andeq	r0, r0, r0
    93d8:	00003130 	andeq	r3, r0, r0, lsr r1
    93dc:	494e4150 	stmdbmi	lr, {r4, r6, r8, lr}^
    93e0:	73253a43 	teqvc	r5, #274432	; 0x43000
    93e4:	3a73253a 	bcc	1cd28d4 <__bss_end__+0x1cc9004>
    93e8:	773a6425 	ldrvc	r6, [sl, -r5, lsr #8]!
    93ec:	68746469 	ldmdavs	r4!, {r0, r3, r5, r6, sl, sp, lr}^
    93f0:	33203c20 	teqcc	r0, #32, 24	; 0x2000
    93f4:	00000a32 	andeq	r0, r0, r2, lsr sl
    93f8:	494e4150 	stmdbmi	lr, {r4, r6, r8, lr}^
    93fc:	73253a43 	teqvc	r5, #274432	; 0x43000
    9400:	3a73253a 	bcc	1cd28f0 <__bss_end__+0x1cc9020>
    9404:	663a6425 	ldrtvs	r6, [sl], -r5, lsr #8
    9408:	74616f6c 	strbtvc	r6, [r1], #-3948	; 0xf6c
    940c:	746f6e20 	strbtvc	r6, [pc], #-3616	; 9414 <__FUNCTION__.3843+0x8c>
    9410:	616e6520 	cmnvs	lr, r0, lsr #10
    9414:	64656c62 	strbtvs	r6, [r5], #-3170	; 0xc62
    9418:	0a212121 	beq	8518a4 <__bss_end__+0x847fd4>
    941c:	00000000 	andeq	r0, r0, r0
    9420:	494e4150 	stmdbmi	lr, {r4, r6, r8, lr}^
    9424:	73253a43 	teqvc	r5, #274432	; 0x43000
    9428:	3a73253a 	bcc	1cd2918 <__bss_end__+0x1cc9048>
    942c:	703a6425 	eorsvc	r6, sl, r5, lsr #8
    9430:	746e6972 	strbtvc	r6, [lr], #-2418	; 0x972
    9434:	6e203a6b 	vnmulvs.f32	s6, s0, s23
    9438:	6820746f 	stmdavs	r0!, {r0, r1, r2, r3, r5, r6, sl, ip, sp, lr}
    943c:	6c646e61 	stclvs	14, cr6, [r4], #-388	; 0xfffffe7c
    9440:	20676e69 	rsbcs	r6, r7, r9, ror #28
    9444:	63657073 	cmnvs	r5, #115	; 0x73
    9448:	65696669 	strbvs	r6, [r9, #-1641]!	; 0x669
    944c:	25272072 	strcs	r2, [r7, #-114]!	; 0x72
    9450:	0a0a2763 	beq	2931e4 <__bss_end__+0x289914>
    9454:	00000000 	andeq	r0, r0, r0
    9458:	4e41503c 	mcrmi	0, 2, r5, cr1, cr12, {1}
    945c:	3a3e4349 	bcc	f9a188 <__bss_end__+0xf908b8>
    9460:	00000000 	andeq	r0, r0, r0
    9464:	253a7325 	ldrcs	r7, [sl, #-805]!	; 0x325
    9468:	50203a64 	eorpl	r3, r0, r4, ror #20
    946c:	43494e41 	movtmi	r4, #40513	; 0x9e41
    9470:	4e415020 	cdpmi	0, 4, cr5, cr1, cr0, {1}
    9474:	50204349 	eorpl	r4, r0, r9, asr #6
    9478:	43494e41 	movtmi	r4, #40513	; 0x9e41
    947c:	7325203a 	teqvc	r5, #58	; 0x3a
    9480:	0000000a 	andeq	r0, r0, sl

00009484 <__FUNCTION__.3779>:
    9484:	5f697072 	svcpl	0x00697072
    9488:	6f626572 	svcvs	0x00626572
    948c:	0000746f 	andeq	r7, r0, pc, ror #8
    9490:	494e4150 	stmdbmi	lr, {r4, r6, r8, lr}^
    9494:	73253a43 	teqvc	r5, #274432	; 0x43000
    9498:	3a73253a 	bcc	1cd2988 <__bss_end__+0x1cc90b8>
    949c:	613a6425 	teqvs	sl, r5, lsr #8
    94a0:	73755f74 	cmnvc	r5, #116, 30	; 0x1d0
    94a4:	6c5f7265 	lfmvs	f7, 2, [pc], {101}	; 0x65
    94a8:	6c657665 	stclvs	6, cr7, [r5], #-404	; 0xfffffe6c
    94ac:	000a2928 	andeq	r2, sl, r8, lsr #18
    94b0:	34317363 	ldrtcc	r7, [r1], #-867	; 0x363
    94b4:	722d6530 	eorvc	r6, sp, #48, 10	; 0xc000000
    94b8:	6f6f6265 	svcvs	0x006f6265
    94bc:	00632e74 	rsbeq	r2, r3, r4, ror lr
    94c0:	454e4f44 	strbmi	r4, [lr, #-3908]	; 0xf44
    94c4:	0a212121 	beq	851950 <__bss_end__+0x848080>
    94c8:	00000000 	andeq	r0, r0, r0

Disassembly of section .bss:

000094cc <__bss_start__>:
	...

Disassembly of section .comment:

00000000 <.comment>:
   0:	3a434347 	bcc	10d0d24 <__bss_end__+0x10c7454>
   4:	4e472820 	cdpmi	8, 4, cr2, cr7, cr0, {1}
   8:	34202955 	strtcc	r2, [r0], #-2389	; 0x955
   c:	332e382e 	teqcc	lr, #3014656	; 0x2e0000
  10:	43434700 	movtmi	r4, #14080	; 0x3700
  14:	4728203a 			; <UNDEFINED> instruction: 0x4728203a
  18:	5420554e 	strtpl	r5, [r0], #-1358	; 0x54e
  1c:	736c6f6f 	cmnvc	ip, #444	; 0x1bc
  20:	726f6620 	rsbvc	r6, pc, #32, 12	; 0x2000000
  24:	6d724120 	ldfvse	f4, [r2, #-128]!	; 0xffffff80
  28:	626d4520 	rsbvs	r4, sp, #32, 10	; 0x8000000
  2c:	65646465 	strbvs	r6, [r4, #-1125]!	; 0x465
  30:	72502064 	subsvc	r2, r0, #100	; 0x64
  34:	7365636f 	cmnvc	r5, #-1140850687	; 0xbc000001
  38:	73726f73 	cmnvc	r2, #460	; 0x1cc
  3c:	322d3720 	eorcc	r3, sp, #32, 14	; 0x800000
  40:	2d383130 	ldfcss	f3, [r8, #-192]!	; 0xffffff40
  44:	752d3371 	strvc	r3, [sp, #-881]!	; 0x371
  48:	74616470 	strbtvc	r6, [r1], #-1136	; 0x470
  4c:	37202965 	strcc	r2, [r0, -r5, ror #18]!
  50:	312e332e 	teqcc	lr, lr, lsr #6
  54:	31303220 	teqcc	r0, r0, lsr #4
  58:	32363038 	eorscc	r3, r6, #56	; 0x38
  5c:	72282032 	eorvc	r2, r8, #50	; 0x32
  60:	61656c65 	cmnvs	r5, r5, ror #24
  64:	20296573 	eorcs	r6, r9, r3, ror r5
  68:	4d52415b 	ldfmie	f4, [r2, #-364]	; 0xfffffe94
  6c:	626d652f 	rsbvs	r6, sp, #197132288	; 0xbc00000
  70:	65646465 	strbvs	r6, [r4, #-1125]!	; 0x465
  74:	2d372d64 	ldccs	13, cr2, [r7, #-400]!	; 0xfffffe70
  78:	6e617262 	cdpvs	2, 6, cr7, cr1, cr2, {3}
  7c:	72206863 	eorvc	r6, r0, #6488064	; 0x630000
  80:	73697665 	cmnvc	r9, #105906176	; 0x6500000
  84:	206e6f69 	rsbcs	r6, lr, r9, ror #30
  88:	39313632 	ldmdbcc	r1!, {r1, r4, r5, r9, sl, ip, sp}
  8c:	005d3730 	subseq	r3, sp, r0, lsr r7

Disassembly of section .ARM.attributes:

00000000 <.ARM.attributes>:
   0:	00002c41 	andeq	r2, r0, r1, asr #24
   4:	61656100 	cmnvs	r5, r0, lsl #2
   8:	01006962 	tsteq	r0, r2, ror #18
   c:	00000022 	andeq	r0, r0, r2, lsr #32
  10:	4b5a3605 	blmi	168d82c <__bss_end__+0x1683f5c>
  14:	08070600 	stmdaeq	r7, {r9, sl}
  18:	12010901 	andne	r0, r1, #16384	; 0x4000
  1c:	15011404 	strne	r1, [r1, #-1028]	; 0x404
  20:	18031701 	stmdane	r3, {r0, r8, r9, sl, ip}
  24:	1e011a01 	vmlane.f32	s2, s2, s2
  28:	44012201 	strmi	r2, [r1], #-513	; 0x201
  2c:	Address 0x000000000000002c is out of bounds.

